///////////////////////////////////////////////////////////////////////////////
//                                                                            /
// IAR C/C++ Compiler V8.20.2.41139 for 8051            09/Jan/2023  18:01:17 /
// Copyright 2004-2013 IAR Systems AB.                                        /
//                                                                            /
//    Core               =  plain                                             /
//    Code model         =  banked                                            /
//    Data model         =  large                                             /
//    Calling convention =  xdata reentrant                                   /
//    Constant location  =  data_rom                                          /
//    Dptr setup         =  1,16                                              /
//                                                                            /
//    Source file        =  E:\Project\ZStack\Components\mt\MT_AF.c           /
//    Command line       =  -f E:\Project\ZStack\Projects\zstack\Samples\Gene /
//                          ricApp\CC2530DB\..\..\..\Tools\CC2530DB\f8wCoord. /
//                          cfg (-DCPU32MHZ -DROOT=__near_func                /
//                          -DMAC_CFG_APP_PENDING_QUEUE=TRUE                  /
//                          -DMAC_CFG_TX_DATA_MAX=5 -DMAC_CFG_TX_MAX=8        /
//                          -DMAC_CFG_RX_MAX=5 -DZDO_COORDINATOR -DRTR_NWK)   /
//                          -f E:\Project\ZStack\Projects\zstack\Samples\Gene /
//                          ricApp\CC2530DB\..\..\..\Tools\CC2530DB\f8wConfig /
//                          .cfg (-DZIGBEEPRO -DSECURE=0                      /
//                          -DZG_SECURE_DYNAMIC=0 -DREFLECTOR                 /
//                          -DDEFAULT_CHANLIST=0x00000800                     /
//                          -DZDAPP_CONFIG_PAN_ID=0xFFFF                      /
//                          -DNWK_START_DELAY=100 -DEXTENDED_JOINING_RANDOM_M /
//                          ASK=0x007F -DBEACON_REQUEST_DELAY=100             /
//                          -DBEACON_REQ_DELAY_MASK=0x00FF                    /
//                          -DLINK_STATUS_JITTER_MASK=0x007F                  /
//                          -DROUTE_EXPIRY_TIME=30 -DAPSC_ACK_WAIT_DURATION_P /
//                          OLLED=3000 -DNWK_INDIRECT_MSG_TIMEOUT=7           /
//                          -DMAX_RREQ_ENTRIES=8 -DAPSC_MAX_FRAME_RETRIES=3   /
//                          -DNWK_MAX_DATA_RETRIES=2                          /
//                          -DMAX_POLL_FAILURE_RETRIES=2 -DMAX_BCAST=9        /
//                          -DAPS_MAX_GROUPS=16 -DMAX_RTG_ENTRIES=40          /
//                          -DNWK_MAX_BINDING_ENTRIES=4                       /
//                          -DMAX_BINDING_CLUSTER_IDS=4                       /
//                          "-DDEFAULT_KEY={0x01, 0x03, 0x05, 0x07, 0x09,     /
//                          0x0B, 0x0D, 0x0F, 0x00, 0x02, 0x04, 0x06, 0x08,   /
//                          0x0A, 0x0C, 0x0D}" -DMAC_MAX_FRAME_SIZE=116       /
//                          -DZDNWKMGR_MIN_TRANSMISSIONS=20 "-DCONST=const    /
//                          __code" -DGENERIC=__generic                       /
//                          -DRFD_RCVC_ALWAYS_ON=FALSE -DPOLL_RATE=1000       /
//                          -DQUEUED_POLL_RATE=100 -DRESPONSE_POLL_RATE=100)  /
//                          -DREJOIN_POLL_RATE=440 E:\Project\ZStack\Componen /
//                          ts\mt\MT_AF.c -D MT_TASK -D MT_SYS_FUNC -D        /
//                          MT_ZDO_FUNC -D NV_INIT -D COOR -lC                /
//                          E:\Project\ZStack\Projects\zstack\Samples\Generic /
//                          App\CC2530DB\CoordinatorEB\List\ -lA              /
//                          E:\Project\ZStack\Projects\zstack\Samples\Generic /
//                          App\CC2530DB\CoordinatorEB\List\ --diag_suppress  /
//                          Pe001,Pa010 -o E:\Project\ZStack\Projects\zstack\ /
//                          Samples\GenericApp\CC2530DB\CoordinatorEB\Obj\    /
//                          -e --no_code_motion --debug --core=plain          /
//                          --dptr=16,1 --data_model=large                    /
//                          --code_model=banked --calling_convention=xdata_re /
//                          entrant --place_constants=data_rom                /
//                          --nr_virtual_regs 24 -I                           /
//                          E:\Project\ZStack\Projects\zstack\Samples\Generic /
//                          App\CC2530DB\ -I E:\Project\ZStack\Projects\zstac /
//                          k\Samples\GenericApp\CC2530DB\..\Source\ -I       /
//                          E:\Project\ZStack\Projects\zstack\Samples\Generic /
//                          App\CC2530DB\..\..\..\ZMain\TI2530DB\ -I          /
//                          E:\Project\ZStack\Projects\zstack\Samples\Generic /
//                          App\CC2530DB\..\..\..\..\..\Components\hal\includ /
//                          e\ -I E:\Project\ZStack\Projects\zstack\Samples\G /
//                          enericApp\CC2530DB\..\..\..\..\..\Components\hal\ /
//                          target\CC2530EB\ -I E:\Project\ZStack\Projects\zs /
//                          tack\Samples\GenericApp\CC2530DB\..\..\..\..\..\C /
//                          omponents\mac\include\ -I                         /
//                          E:\Project\ZStack\Projects\zstack\Samples\Generic /
//                          App\CC2530DB\..\..\..\..\..\Components\mac\high_l /
//                          evel\ -I E:\Project\ZStack\Projects\zstack\Sample /
//                          s\GenericApp\CC2530DB\..\..\..\..\..\Components\m /
//                          ac\low_level\srf04\ -I E:\Project\ZStack\Projects /
//                          \zstack\Samples\GenericApp\CC2530DB\..\..\..\..\. /
//                          .\Components\mac\low_level\srf04\single_chip\ -I  /
//                          E:\Project\ZStack\Projects\zstack\Samples\Generic /
//                          App\CC2530DB\..\..\..\..\..\Components\mt\ -I     /
//                          E:\Project\ZStack\Projects\zstack\Samples\Generic /
//                          App\CC2530DB\..\..\..\..\..\Components\osal\inclu /
//                          de\ -I E:\Project\ZStack\Projects\zstack\Samples\ /
//                          GenericApp\CC2530DB\..\..\..\..\..\Components\ser /
//                          vices\saddr\ -I E:\Project\ZStack\Projects\zstack /
//                          \Samples\GenericApp\CC2530DB\..\..\..\..\..\Compo /
//                          nents\services\sdata\ -I                          /
//                          E:\Project\ZStack\Projects\zstack\Samples\Generic /
//                          App\CC2530DB\..\..\..\..\..\Components\stack\af\  /
//                          -I E:\Project\ZStack\Projects\zstack\Samples\Gene /
//                          ricApp\CC2530DB\..\..\..\..\..\Components\stack\n /
//                          wk\ -I E:\Project\ZStack\Projects\zstack\Samples\ /
//                          GenericApp\CC2530DB\..\..\..\..\..\Components\sta /
//                          ck\sapi\ -I E:\Project\ZStack\Projects\zstack\Sam /
//                          ples\GenericApp\CC2530DB\..\..\..\..\..\Component /
//                          s\stack\sec\ -I E:\Project\ZStack\Projects\zstack /
//                          \Samples\GenericApp\CC2530DB\..\..\..\..\..\Compo /
//                          nents\stack\sys\ -I E:\Project\ZStack\Projects\zs /
//                          tack\Samples\GenericApp\CC2530DB\..\..\..\..\..\C /
//                          omponents\stack\zdo\ -I                           /
//                          E:\Project\ZStack\Projects\zstack\Samples\Generic /
//                          App\CC2530DB\..\..\..\..\..\Components\zmac\ -I   /
//                          E:\Project\ZStack\Projects\zstack\Samples\Generic /
//                          App\CC2530DB\..\..\..\..\..\Components\zmac\f8w\  /
//                          -Ohz                                              /
//    List file          =  E:\Project\ZStack\Projects\zstack\Samples\Generic /
//                          App\CC2530DB\CoordinatorEB\List\MT_AF.s51         /
//                                                                            /
//                                                                            /
///////////////////////////////////////////////////////////////////////////////

        NAME MT_AF

        RTMODEL "__SystemLibrary", "CLib"
        RTMODEL "__calling_convention", "xdata_reentrant"
        RTMODEL "__code_model", "banked"
        RTMODEL "__core", "plain"
        RTMODEL "__data_model", "large"
        RTMODEL "__dptr_size", "16"
        RTMODEL "__extended_stack", "disabled"
        RTMODEL "__location_for_constants", "data"
        RTMODEL "__number_of_dptrs", "1"
        RTMODEL "__rt_version", "1"

        RSEG DOVERLAY:DATA:NOROOT(0)
        RSEG IOVERLAY:IDATA:NOROOT(0)
        RSEG ISTACK:IDATA:NOROOT(0)
        RSEG PSTACK:XDATA:NOROOT(0)
        RSEG XSTACK:XDATA:NOROOT(0)

        EXTERN ?ALLOC_XSTACK8
        EXTERN ?BANKED_ENTER_XDATA
        EXTERN ?BANKED_LEAVE_XDATA
        EXTERN ?BDISPATCH
        EXTERN ?BRET
        EXTERN ?DEALLOC_XSTACK8
        EXTERN ?L_ADD
        EXTERN ?L_EQ_X
        EXTERN ?L_MOV_X
        EXTERN ?L_SHL
        EXTERN ?PUSH_XSTACK8_X_TWO
        EXTERN ?PUSH_XSTACK_I_ONE
        EXTERN ?PUSH_XSTACK_I_THREE
        EXTERN ?PUSH_XSTACK_I_TWO
        EXTERN ?UL_SHR
        EXTERN ?V0
        EXTERN ?XLOAD_R2345
        EXTERN ?XSP
        EXTERN ?XSTACK_DISP0_8
        EXTERN ?XSTORE_R2345
        EXTERN __INIT_XDATA_Z

        PUBLIC ??MT_AfCommandProcessing?relay
        FUNCTION ??MT_AfCommandProcessing?relay,0203H
        PUBLIC ??MT_AfDataConfirm?relay
        FUNCTION ??MT_AfDataConfirm?relay,0203H
        PUBLIC ??MT_AfDataRequest?relay
        FUNCTION ??MT_AfDataRequest?relay,0203H
        PUBLIC ??MT_AfDataRequestSrcRtg?relay
        FUNCTION ??MT_AfDataRequestSrcRtg?relay,0203H
        FUNCTION ??MT_AfDataRetrieve?relay,0203H
        FUNCTION ??MT_AfDataStore?relay,0203H
        PUBLIC ??MT_AfExec?relay
        FUNCTION ??MT_AfExec?relay,0203H
        PUBLIC ??MT_AfIncomingMsg?relay
        FUNCTION ??MT_AfIncomingMsg?relay,0203H
        PUBLIC ??MT_AfRegister?relay
        FUNCTION ??MT_AfRegister?relay,0203H
        PUBLIC MT_AfCommandProcessing
        FUNCTION MT_AfCommandProcessing,021203H
        ARGFRAME XSTACK, 0, STACK
        LOCFRAME ISTACK, 1, STACK
        LOCFRAME XSTACK, 12, STACK
        PUBLIC MT_AfDataConfirm
        FUNCTION MT_AfDataConfirm,021203H
        ARGFRAME XSTACK, 0, STACK
        LOCFRAME ISTACK, 3, STACK
        LOCFRAME XSTACK, 3, STACK
        PUBLIC MT_AfDataRequest
        FUNCTION MT_AfDataRequest,021203H
        ARGFRAME XSTACK, 12, STACK
        ARGFRAME IOVERLAY, 0, STATIC
        ARGFRAME DOVERLAY, 0, STATIC
        LOCFRAME ISTACK, 1, STACK
        LOCFRAME XSTACK, 43, STACK
        PUBLIC MT_AfDataRequestSrcRtg
        FUNCTION MT_AfDataRequestSrcRtg,021203H
        ARGFRAME XSTACK, 12, STACK
        ARGFRAME IOVERLAY, 0, STATIC
        ARGFRAME DOVERLAY, 0, STATIC
        LOCFRAME ISTACK, 1, STACK
        LOCFRAME XSTACK, 46, STACK
        FUNCTION MT_AfDataRetrieve,021203H
        ARGFRAME XSTACK, 12, STACK
        ARGFRAME IOVERLAY, 0, STATIC
        ARGFRAME DOVERLAY, 0, STATIC
        LOCFRAME ISTACK, 1, STACK
        LOCFRAME XSTACK, 27, STACK
        FUNCTION MT_AfDataStore,021203H
        ARGFRAME XSTACK, 12, STACK
        ARGFRAME IOVERLAY, 0, STATIC
        ARGFRAME DOVERLAY, 0, STATIC
        LOCFRAME ISTACK, 1, STACK
        LOCFRAME XSTACK, 21, STACK
        PUBLIC MT_AfExec
        FUNCTION MT_AfExec,021203H
        ARGFRAME XSTACK, 0, STACK
        LOCFRAME XSTACK, 9, STACK
        PUBLIC MT_AfIncomingMsg
        FUNCTION MT_AfIncomingMsg,021203H
        ARGFRAME XSTACK, 0, STACK
        LOCFRAME ISTACK, 1, STACK
        LOCFRAME XSTACK, 26, STACK
        PUBLIC MT_AfRegister
        FUNCTION MT_AfRegister,021203H
        ARGFRAME XSTACK, 12, STACK
        ARGFRAME IOVERLAY, 0, STATIC
        ARGFRAME DOVERLAY, 0, STATIC
        LOCFRAME ISTACK, 1, STACK
        LOCFRAME XSTACK, 15, STACK
        PUBLIC pMtAfDataReq
        PUBLIC pMtAfInMsgList
        
          CFI Names cfiNames0
          CFI StackFrame CFA_SP SP IDATA
          CFI StackFrame CFA_PSP16 PSP16 XDATA
          CFI StackFrame CFA_XSP16 XSP16 XDATA
          CFI StaticOverlayFrame CFA_IOVERLAY IOVERLAY
          CFI StaticOverlayFrame CFA_DOVERLAY DOVERLAY
          CFI Resource `PSW.CY`:1, `B.BR0`:1, `B.BR1`:1, `B.BR2`:1, `B.BR3`:1
          CFI Resource `B.BR4`:1, `B.BR5`:1, `B.BR6`:1, `B.BR7`:1, `VB.BR8`:1
          CFI Resource `VB.BR9`:1, `VB.BR10`:1, `VB.BR11`:1, `VB.BR12`:1
          CFI Resource `VB.BR13`:1, `VB.BR14`:1, `VB.BR15`:1, VB:8, B:8, A:8
          CFI Resource PSW:8, DPL0:8, DPH0:8, R0:8, R1:8, R2:8, R3:8, R4:8, R5:8
          CFI Resource R6:8, R7:8, V0:8, V1:8, V2:8, V3:8, V4:8, V5:8, V6:8, V7:8
          CFI Resource V8:8, V9:8, V10:8, V11:8, V12:8, V13:8, V14:8, V15:8
          CFI Resource V16:8, V17:8, V18:8, V19:8, V20:8, V21:8, V22:8, V23:8
          CFI Resource SP:8, PSPH:8, PSPL:8, PSP16:16, XSPH:8, XSPL:8, XSP16:16
          CFI VirtualResource ?RET:24
          CFI Resource ?BRET_EXT:8
          CFI VirtualResource ?RET_HIGH:8, ?RET_LOW:8
          CFI ResourceParts PSP16 PSPH, PSPL
          CFI ResourceParts XSP16 XSPH, XSPL
          CFI ResourceParts ?RET ?BRET_EXT, ?RET_HIGH, ?RET_LOW
          CFI EndNames cfiNames0
        
          CFI Common cfiCommon0 Using cfiNames0
          CFI CodeAlign 1
          CFI DataAlign -1
          CFI ReturnAddress ?RET CODE
          CFI CFA_DOVERLAY Used
          CFI CFA_IOVERLAY Used
          CFI CFA_SP SP+-3
          CFI CFA_PSP16 PSP16+0
          CFI CFA_XSP16 XSP16+0
          CFI `PSW.CY` SameValue
          CFI `B.BR0` SameValue
          CFI `B.BR1` SameValue
          CFI `B.BR2` SameValue
          CFI `B.BR3` SameValue
          CFI `B.BR4` SameValue
          CFI `B.BR5` SameValue
          CFI `B.BR6` SameValue
          CFI `B.BR7` SameValue
          CFI `VB.BR8` SameValue
          CFI `VB.BR9` SameValue
          CFI `VB.BR10` SameValue
          CFI `VB.BR11` SameValue
          CFI `VB.BR12` SameValue
          CFI `VB.BR13` SameValue
          CFI `VB.BR14` SameValue
          CFI `VB.BR15` SameValue
          CFI VB SameValue
          CFI B Undefined
          CFI A Undefined
          CFI PSW SameValue
          CFI DPL0 SameValue
          CFI DPH0 SameValue
          CFI R0 Undefined
          CFI R1 Undefined
          CFI R2 Undefined
          CFI R3 Undefined
          CFI R4 Undefined
          CFI R5 Undefined
          CFI R6 SameValue
          CFI R7 SameValue
          CFI V0 SameValue
          CFI V1 SameValue
          CFI V2 SameValue
          CFI V3 SameValue
          CFI V4 SameValue
          CFI V5 SameValue
          CFI V6 SameValue
          CFI V7 SameValue
          CFI V8 SameValue
          CFI V9 SameValue
          CFI V10 SameValue
          CFI V11 SameValue
          CFI V12 SameValue
          CFI V13 SameValue
          CFI V14 SameValue
          CFI V15 SameValue
          CFI V16 SameValue
          CFI V17 SameValue
          CFI V18 SameValue
          CFI V19 SameValue
          CFI V20 SameValue
          CFI V21 SameValue
          CFI V22 SameValue
          CFI V23 SameValue
          CFI PSPH Undefined
          CFI PSPL Undefined
          CFI XSPH Undefined
          CFI XSPL Undefined
          CFI ?RET Concat
          CFI ?BRET_EXT Frame(CFA_SP, 3)
          CFI ?RET_HIGH Frame(CFA_SP, 2)
          CFI ?RET_LOW Frame(CFA_SP, 1)
          CFI EndCommon cfiCommon0
        
        
          CFI Common cfiCommon1 Using cfiNames0
          CFI CodeAlign 1
          CFI DataAlign -1
          CFI ReturnAddress ?RET CODE
          CFI CFA_DOVERLAY Used
          CFI CFA_IOVERLAY Used
          CFI CFA_SP SP+-2
          CFI CFA_PSP16 PSP16+0
          CFI CFA_XSP16 XSP16+0
          CFI `PSW.CY` SameValue
          CFI `B.BR0` SameValue
          CFI `B.BR1` SameValue
          CFI `B.BR2` SameValue
          CFI `B.BR3` SameValue
          CFI `B.BR4` SameValue
          CFI `B.BR5` SameValue
          CFI `B.BR6` SameValue
          CFI `B.BR7` SameValue
          CFI `VB.BR8` SameValue
          CFI `VB.BR9` SameValue
          CFI `VB.BR10` SameValue
          CFI `VB.BR11` SameValue
          CFI `VB.BR12` SameValue
          CFI `VB.BR13` SameValue
          CFI `VB.BR14` SameValue
          CFI `VB.BR15` SameValue
          CFI VB SameValue
          CFI B SameValue
          CFI A SameValue
          CFI PSW SameValue
          CFI DPL0 SameValue
          CFI DPH0 SameValue
          CFI R0 SameValue
          CFI R1 SameValue
          CFI R2 SameValue
          CFI R3 SameValue
          CFI R4 SameValue
          CFI R5 SameValue
          CFI R6 SameValue
          CFI R7 SameValue
          CFI V0 SameValue
          CFI V1 SameValue
          CFI V2 SameValue
          CFI V3 SameValue
          CFI V4 SameValue
          CFI V5 SameValue
          CFI V6 SameValue
          CFI V7 SameValue
          CFI V8 SameValue
          CFI V9 SameValue
          CFI V10 SameValue
          CFI V11 SameValue
          CFI V12 SameValue
          CFI V13 SameValue
          CFI V14 SameValue
          CFI V15 SameValue
          CFI V16 SameValue
          CFI V17 SameValue
          CFI V18 SameValue
          CFI V19 SameValue
          CFI V20 SameValue
          CFI V21 SameValue
          CFI V22 SameValue
          CFI V23 SameValue
          CFI PSPH Undefined
          CFI PSPL Undefined
          CFI XSPH Undefined
          CFI XSPL Undefined
          CFI ?RET Concat
          CFI ?BRET_EXT SameValue
          CFI ?RET_HIGH Frame(CFA_SP, 2)
          CFI ?RET_LOW Frame(CFA_SP, 1)
          CFI EndCommon cfiCommon1
        
AF_DataRequest      SYMBOL "AF_DataRequest"
??AF_DataRequest?relay SYMBOL "?relay", AF_DataRequest
AF_DataRequestSrcRtg SYMBOL "AF_DataRequestSrcRtg"
??AF_DataRequestSrcRtg?relay SYMBOL "?relay", AF_DataRequestSrcRtg
MT_BuildAndSendZToolResponse SYMBOL "MT_BuildAndSendZToolResponse"
??MT_BuildAndSendZToolResponse?relay SYMBOL "?relay", MT_BuildAndSendZToolResponse
MT_BuildEndpointDesc SYMBOL "MT_BuildEndpointDesc"
??MT_BuildEndpointDesc?relay SYMBOL "?relay", MT_BuildEndpointDesc
afAPSF_ConfigSet    SYMBOL "afAPSF_ConfigSet"
??afAPSF_ConfigSet?relay SYMBOL "?relay", afAPSF_ConfigSet
afFindEndPointDesc  SYMBOL "afFindEndPointDesc"
??afFindEndPointDesc?relay SYMBOL "?relay", afFindEndPointDesc
afRegister          SYMBOL "afRegister"
??afRegister?relay  SYMBOL "?relay", afRegister
osal_mem_alloc      SYMBOL "osal_mem_alloc"
??osal_mem_alloc?relay SYMBOL "?relay", osal_mem_alloc
osal_mem_free       SYMBOL "osal_mem_free"
??osal_mem_free?relay SYMBOL "?relay", osal_mem_free
osal_memcpy         SYMBOL "osal_memcpy"
??osal_memcpy?relay SYMBOL "?relay", osal_memcpy
osal_memset         SYMBOL "osal_memset"
??osal_memset?relay SYMBOL "?relay", osal_memset
osal_set_event      SYMBOL "osal_set_event"
??osal_set_event?relay SYMBOL "?relay", osal_set_event
osal_start_timerEx  SYMBOL "osal_start_timerEx"
??osal_start_timerEx?relay SYMBOL "?relay", osal_start_timerEx
MT_AfCommandProcessing SYMBOL "MT_AfCommandProcessing"
??MT_AfCommandProcessing?relay SYMBOL "?relay", MT_AfCommandProcessing
MT_AfDataConfirm    SYMBOL "MT_AfDataConfirm"
??MT_AfDataConfirm?relay SYMBOL "?relay", MT_AfDataConfirm
MT_AfDataRequest    SYMBOL "MT_AfDataRequest"
??MT_AfDataRequest?relay SYMBOL "?relay", MT_AfDataRequest
MT_AfDataRequestSrcRtg SYMBOL "MT_AfDataRequestSrcRtg"
??MT_AfDataRequestSrcRtg?relay SYMBOL "?relay", MT_AfDataRequestSrcRtg
MT_AfExec           SYMBOL "MT_AfExec"
??MT_AfExec?relay   SYMBOL "?relay", MT_AfExec
MT_AfIncomingMsg    SYMBOL "MT_AfIncomingMsg"
??MT_AfIncomingMsg?relay SYMBOL "?relay", MT_AfIncomingMsg
MT_AfRegister       SYMBOL "MT_AfRegister"
??MT_AfRegister?relay SYMBOL "?relay", MT_AfRegister

        EXTERN ??AF_DataRequest?relay
        FUNCTION ??AF_DataRequest?relay,00H
        EXTERN ??AF_DataRequestSrcRtg?relay
        FUNCTION ??AF_DataRequestSrcRtg?relay,00H
        EXTERN ??MT_BuildAndSendZToolResponse?relay
        FUNCTION ??MT_BuildAndSendZToolResponse?relay,00H
        EXTERN ??MT_BuildEndpointDesc?relay
        FUNCTION ??MT_BuildEndpointDesc?relay,00H
        EXTERN ??afAPSF_ConfigSet?relay
        FUNCTION ??afAPSF_ConfigSet?relay,00H
        EXTERN ??afFindEndPointDesc?relay
        FUNCTION ??afFindEndPointDesc?relay,00H
        EXTERN ??afRegister?relay
        FUNCTION ??afRegister?relay,00H
        EXTERN ??osal_mem_alloc?relay
        FUNCTION ??osal_mem_alloc?relay,00H
        EXTERN ??osal_mem_free?relay
        FUNCTION ??osal_mem_free?relay,00H
        EXTERN ??osal_memcpy?relay
        FUNCTION ??osal_memcpy?relay,00H
        EXTERN ??osal_memset?relay
        FUNCTION ??osal_memset?relay,00H
        EXTERN ??osal_set_event?relay
        FUNCTION ??osal_set_event?relay,00H
        EXTERN ??osal_start_timerEx?relay
        FUNCTION ??osal_start_timerEx?relay,00H
        EXTERN AF_DataRequest
        FUNCTION AF_DataRequest,0202H
        ARGFRAME ISTACK, 0, STACK
        ARGFRAME PSTACK, 0, STACK
        ARGFRAME XSTACK, 43, STACK
        ARGFRAME IOVERLAY, 0, STATIC
        ARGFRAME DOVERLAY, 0, STATIC
        EXTERN AF_DataRequestSrcRtg
        FUNCTION AF_DataRequestSrcRtg,0202H
        ARGFRAME ISTACK, 0, STACK
        ARGFRAME PSTACK, 0, STACK
        ARGFRAME XSTACK, 46, STACK
        ARGFRAME IOVERLAY, 0, STATIC
        ARGFRAME DOVERLAY, 0, STATIC
        EXTERN MT_BuildAndSendZToolResponse
        FUNCTION MT_BuildAndSendZToolResponse,0202H
        ARGFRAME ISTACK, 2, STACK
        ARGFRAME PSTACK, 0, STACK
        ARGFRAME XSTACK, 34, STACK
        ARGFRAME IOVERLAY, 0, STATIC
        ARGFRAME DOVERLAY, 0, STATIC
        EXTERN MT_BuildEndpointDesc
        FUNCTION MT_BuildEndpointDesc,0202H
        ARGFRAME ISTACK, 0, STACK
        ARGFRAME PSTACK, 0, STACK
        ARGFRAME XSTACK, 15, STACK
        ARGFRAME IOVERLAY, 0, STATIC
        ARGFRAME DOVERLAY, 0, STATIC
        EXTERN MT_TaskID
        EXTERN afAPSF_ConfigSet
        FUNCTION afAPSF_ConfigSet,0202H
        ARGFRAME ISTACK, 0, STACK
        ARGFRAME PSTACK, 0, STACK
        ARGFRAME XSTACK, 12, STACK
        ARGFRAME IOVERLAY, 0, STATIC
        ARGFRAME DOVERLAY, 0, STATIC
        EXTERN afFindEndPointDesc
        FUNCTION afFindEndPointDesc,0202H
        ARGFRAME ISTACK, 0, STACK
        ARGFRAME PSTACK, 0, STACK
        ARGFRAME XSTACK, 34, STACK
        ARGFRAME IOVERLAY, 0, STATIC
        ARGFRAME DOVERLAY, 0, STATIC
        EXTERN afRegister
        FUNCTION afRegister,0202H
        ARGFRAME ISTACK, 0, STACK
        ARGFRAME PSTACK, 0, STACK
        ARGFRAME XSTACK, 15, STACK
        ARGFRAME IOVERLAY, 0, STATIC
        ARGFRAME DOVERLAY, 0, STATIC
        EXTERN osal_mem_alloc
        FUNCTION osal_mem_alloc,0202H
        ARGFRAME ISTACK, 0, STACK
        ARGFRAME PSTACK, 0, STACK
        ARGFRAME XSTACK, 34, STACK
        ARGFRAME IOVERLAY, 0, STATIC
        ARGFRAME DOVERLAY, 0, STATIC
        EXTERN osal_mem_free
        FUNCTION osal_mem_free,0202H
        ARGFRAME ISTACK, 0, STACK
        ARGFRAME PSTACK, 0, STACK
        ARGFRAME XSTACK, 34, STACK
        ARGFRAME IOVERLAY, 0, STATIC
        ARGFRAME DOVERLAY, 0, STATIC
        EXTERN osal_memcpy
        FUNCTION osal_memcpy,0202H
        ARGFRAME ISTACK, 0, STACK
        ARGFRAME PSTACK, 0, STACK
        ARGFRAME XSTACK, 37, STACK
        ARGFRAME IOVERLAY, 0, STATIC
        ARGFRAME DOVERLAY, 0, STATIC
        EXTERN osal_memset
        FUNCTION osal_memset,0202H
        ARGFRAME ISTACK, 0, STACK
        ARGFRAME PSTACK, 0, STACK
        ARGFRAME XSTACK, 34, STACK
        ARGFRAME IOVERLAY, 0, STATIC
        ARGFRAME DOVERLAY, 0, STATIC
        EXTERN osal_set_event
        FUNCTION osal_set_event,0202H
        ARGFRAME ISTACK, 0, STACK
        ARGFRAME PSTACK, 0, STACK
        ARGFRAME XSTACK, 34, STACK
        ARGFRAME IOVERLAY, 0, STATIC
        ARGFRAME DOVERLAY, 0, STATIC
        EXTERN osal_start_timerEx
        FUNCTION osal_start_timerEx,0202H
        ARGFRAME ISTACK, 0, STACK
        ARGFRAME PSTACK, 0, STACK
        ARGFRAME XSTACK, 34, STACK
        ARGFRAME IOVERLAY, 0, STATIC
        ARGFRAME DOVERLAY, 0, STATIC

// E:\Project\ZStack\Components\mt\MT_AF.c
//    1 /**************************************************************************************************
//    2   Filename:       MT_AF.c
//    3   Revised:        $Date: 2011-05-27 16:00:27 -0700 (Fri, 27 May 2011) $
//    4   Revision:       $Revision: 26145 $
//    5 
//    6 
//    7   Description:    MonitorTest functions for the AF layer.
//    8 
//    9 
//   10   Copyright 2007-2011 Texas Instruments Incorporated. All rights reserved.
//   11 
//   12   IMPORTANT: Your use of this Software is limited to those specific rights
//   13   granted under the terms of a software license agreement between the user
//   14   who downloaded the software, his/her employer (which must be your employer)
//   15   and Texas Instruments Incorporated (the "License").  You may not use this
//   16   Software unless you agree to abide by the terms of the License. The License
//   17   limits your use, and you acknowledge, that the Software may not be modified,
//   18   copied or distributed unless embedded on a Texas Instruments microcontroller
//   19   or used solely and exclusively in conjunction with a Texas Instruments radio
//   20   frequency transceiver, which is integrated into your product.  Other than for
//   21   the foregoing purpose, you may not use, reproduce, copy, prepare derivative
//   22   works of, modify, distribute, perform, display or sell this Software and/or
//   23   its documentation for any purpose.
//   24 
//   25   YOU FURTHER ACKNOWLEDGE AND AGREE THAT THE SOFTWARE AND DOCUMENTATION ARE
//   26   PROVIDED “AS IS” WITHOUT WARRANTY OF ANY KIND, EITHER EXPRESS OR IMPLIED,
//   27   INCLUDING WITHOUT LIMITATION, ANY WARRANTY OF MERCHANTABILITY, TITLE,
//   28   NON-INFRINGEMENT AND FITNESS FOR A PARTICULAR PURPOSE. IN NO EVENT SHALL
//   29   TEXAS INSTRUMENTS OR ITS LICENSORS BE LIABLE OR OBLIGATED UNDER CONTRACT,
//   30   NEGLIGENCE, STRICT LIABILITY, CONTRIBUTION, BREACH OF WARRANTY, OR OTHER
//   31   LEGAL EQUITABLE THEORY ANY DIRECT OR INDIRECT DAMAGES OR EXPENSES
//   32   INCLUDING BUT NOT LIMITED TO ANY INCIDENTAL, SPECIAL, INDIRECT, PUNITIVE
//   33   OR CONSEQUENTIAL DAMAGES, LOST PROFITS OR LOST DATA, COST OF PROCUREMENT
//   34   OF SUBSTITUTE GOODS, TECHNOLOGY, SERVICES, OR ANY CLAIMS BY THIRD PARTIES
//   35   (INCLUDING BUT NOT LIMITED TO ANY DEFENSE THEREOF), OR OTHER SIMILAR COSTS.
//   36 
//   37   Should you have any questions regarding your right to use this Software,
//   38   contact Texas Instruments Incorporated at www.TI.com.
//   39 
//   40 **************************************************************************************************/
//   41 
//   42 /* ------------------------------------------------------------------------------------------------
//   43  *                                          Includes
//   44  * ------------------------------------------------------------------------------------------------
//   45  */
//   46 #include "ZComDef.h"
//   47 #include "OSAL.h"
//   48 #include "MT.h"
//   49 #include "MT_AF.h"
//   50 #include "MT_ZDO.h"
//   51 #include "nwk.h"
//   52 #include "OnBoard.h"
//   53 #include "MT_UART.h"
//   54 
//   55 #if defined INTER_PAN
//   56 #include "stub_aps.h"
//   57 #endif
//   58 
//   59 /* ------------------------------------------------------------------------------------------------
//   60  *                                          Constants
//   61  * ------------------------------------------------------------------------------------------------
//   62  */
//   63 
//   64 #if !defined MT_AF_EXEC_CNT
//   65 #define MT_AF_EXEC_CNT  15
//   66 #endif
//   67 
//   68 #if !defined MT_AF_EXEC_DLY
//   69 #define MT_AF_EXEC_DLY  1000
//   70 #endif
//   71 
//   72 /* ------------------------------------------------------------------------------------------------
//   73  *                                           Typedefs
//   74  * ------------------------------------------------------------------------------------------------
//   75  */
//   76 
//   77 typedef struct
//   78 {
//   79   uint8 *data;
//   80   afAddrType_t dstAddr;
//   81   endPointDesc_t *epDesc;
//   82   uint16 cId;
//   83   uint16 dataLen;
//   84   uint8 transId;
//   85   uint8 txOpts;
//   86   uint8 radius;
//   87   uint8 tick;
//   88 } mtAfDataReq_t;
//   89 
//   90 typedef struct _mtAfInMsgList_t
//   91 {
//   92   struct _mtAfInMsgList_t *next;
//   93   uint8 *data;
//   94   uint32 timestamp;         // Receipt timestamp from MAC.
//   95   uint8 tick;
//   96 } mtAfInMsgList_t;
//   97 
//   98 /* ------------------------------------------------------------------------------------------------
//   99  *                                        Local Variables
//  100  * ------------------------------------------------------------------------------------------------
//  101  */
//  102 

        RSEG XDATA_Z:XDATA:NOROOT(0)
        DATA16
//  103 mtAfInMsgList_t *pMtAfInMsgList = NULL;
pMtAfInMsgList:
        DS 2
        REQUIRE __INIT_XDATA_Z

        RSEG XDATA_Z:XDATA:NOROOT(0)
        DATA16
//  104 mtAfDataReq_t *pMtAfDataReq = NULL;
pMtAfDataReq:
        DS 2
        REQUIRE __INIT_XDATA_Z
//  105 
//  106 /* ------------------------------------------------------------------------------------------------
//  107  *                                        Global Variables
//  108  * ------------------------------------------------------------------------------------------------
//  109  */
//  110 
//  111 #if defined ( MT_AF_CB_FUNC )
//  112 uint16 _afCallbackSub;
//  113 #endif
//  114 
//  115 /* ------------------------------------------------------------------------------------------------
//  116  *                                        Local Functions
//  117  * ------------------------------------------------------------------------------------------------
//  118  */
//  119 
//  120 void MT_AfRegister(uint8 *pBuf);
//  121 void MT_AfDataRequest(uint8 *pBuf);
//  122 
//  123 #if defined ( ZIGBEE_SOURCE_ROUTING )
//  124 void MT_AfDataRequestSrcRtg(uint8 *pBuf);
//  125 #endif
//  126 
//  127 #if defined INTER_PAN
//  128 static void MT_AfInterPanCtl(uint8 *pBuf);
//  129 #endif
//  130 
//  131 static void MT_AfDataRetrieve(uint8 *pBuf);
//  132 static void MT_AfDataStore(uint8 *pBuf);
//  133 static void MT_AfAPSF_ConfigSet(uint8 *pBuf);
//  134 
//  135 /**************************************************************************************************
//  136  * @fn          MT_AfExec
//  137  *
//  138  * @brief       This function is invoked by an MT timer event.
//  139  *
//  140  * input parameters
//  141  *
//  142  * None.
//  143  *
//  144  * output parameters
//  145  *
//  146  * None.
//  147  *
//  148  * @return      None.
//  149  **************************************************************************************************
//  150  */

        RSEG BANKED_CODE:CODE:NOROOT(0)
//  151 void MT_AfExec(void)
MT_AfExec:
          CFI Block cfiBlock0 Using cfiCommon0
          CFI Function MT_AfExec
        CODE
//  152 {
        FUNCALL MT_AfExec, osal_mem_free
        LOCFRAME ISTACK, 0, STACK
        LOCFRAME PSTACK, 0, STACK
        LOCFRAME XSTACK, 9, STACK
        LOCFRAME IOVERLAY, 0, STATIC
        LOCFRAME DOVERLAY, 0, STATIC
        ARGFRAME ISTACK, 0, STACK
        ARGFRAME PSTACK, 0, STACK
        ARGFRAME XSTACK, 9, STACK
        ARGFRAME IOVERLAY, 0, STATIC
        ARGFRAME DOVERLAY, 0, STATIC
        FUNCALL MT_AfExec, osal_mem_free
        LOCFRAME ISTACK, 0, STACK
        LOCFRAME PSTACK, 0, STACK
        LOCFRAME XSTACK, 9, STACK
        LOCFRAME IOVERLAY, 0, STATIC
        LOCFRAME DOVERLAY, 0, STATIC
        ARGFRAME ISTACK, 0, STACK
        ARGFRAME PSTACK, 0, STACK
        ARGFRAME XSTACK, 9, STACK
        ARGFRAME IOVERLAY, 0, STATIC
        ARGFRAME DOVERLAY, 0, STATIC
        FUNCALL MT_AfExec, osal_mem_free
        LOCFRAME ISTACK, 0, STACK
        LOCFRAME PSTACK, 0, STACK
        LOCFRAME XSTACK, 9, STACK
        LOCFRAME IOVERLAY, 0, STATIC
        LOCFRAME DOVERLAY, 0, STATIC
        ARGFRAME ISTACK, 0, STACK
        ARGFRAME PSTACK, 0, STACK
        ARGFRAME XSTACK, 9, STACK
        ARGFRAME IOVERLAY, 0, STATIC
        ARGFRAME DOVERLAY, 0, STATIC
        FUNCALL MT_AfExec, osal_start_timerEx
        LOCFRAME ISTACK, 0, STACK
        LOCFRAME PSTACK, 0, STACK
        LOCFRAME XSTACK, 9, STACK
        LOCFRAME IOVERLAY, 0, STATIC
        LOCFRAME DOVERLAY, 0, STATIC
        ARGFRAME ISTACK, 0, STACK
        ARGFRAME PSTACK, 0, STACK
        ARGFRAME XSTACK, 9, STACK
        ARGFRAME IOVERLAY, 0, STATIC
        ARGFRAME DOVERLAY, 0, STATIC
        FUNCALL MT_AfExec, osal_set_event
        LOCFRAME ISTACK, 0, STACK
        LOCFRAME PSTACK, 0, STACK
        LOCFRAME XSTACK, 9, STACK
        LOCFRAME IOVERLAY, 0, STATIC
        LOCFRAME DOVERLAY, 0, STATIC
        ARGFRAME ISTACK, 0, STACK
        ARGFRAME PSTACK, 0, STACK
        ARGFRAME XSTACK, 9, STACK
        ARGFRAME IOVERLAY, 0, STATIC
        ARGFRAME DOVERLAY, 0, STATIC
        MOV     A,#-0x9
        LCALL   ?BANKED_ENTER_XDATA
          CFI R6 load(1, XDATA, add(CFA_XSP16, literal(-9)))
          CFI VB load(1, XDATA, add(CFA_XSP16, literal(-8)))
          CFI V0 load(1, XDATA, add(CFA_XSP16, literal(-7)))
          CFI R7 load(1, XDATA, add(CFA_XSP16, literal(-6)))
          CFI ?RET_LOW load(1, XDATA, add(CFA_XSP16, literal(-5)))
          CFI ?RET_HIGH load(1, XDATA, add(CFA_XSP16, literal(-4)))
          CFI ?BRET_EXT load(1, XDATA, add(CFA_XSP16, literal(-3)))
          CFI DPL0 load(1, XDATA, add(CFA_XSP16, literal(-2)))
          CFI DPH0 load(1, XDATA, add(CFA_XSP16, literal(-1)))
          CFI CFA_SP SP+0
          CFI CFA_XSP16 add(XSP16, 9)
        ; Saved register size: 9
        ; Auto size: 0
//  153   mtAfInMsgList_t *pPrev, *pItem = pMtAfInMsgList;
??MT_AfExec_0:
        MOV     DPTR,#pMtAfInMsgList
        SJMP    ??MT_AfExec_1
//  154 
//  155   while (pItem != NULL)
//  156   {
//  157     if (--(pItem->tick) == 0)
//  158     {
//  159       if (pMtAfInMsgList == pItem)
//  160       {
//  161         pMtAfInMsgList = pItem->next;
//  162         (void)osal_mem_free(pItem);
//  163         pItem = pMtAfInMsgList;
//  164       }
//  165       else
//  166       {
//  167         pPrev->next = pItem->next;
//  168         (void)osal_mem_free(pItem);
//  169         pItem = pPrev->next;
//  170       }
//  171     }
//  172     else
//  173     {
//  174       pPrev = pItem;
??MT_AfExec_2:
        MOV     A,R2
        MOV     R6,A
        MOV     A,R3
        MOV     R7,A
//  175       pItem = pItem->next;
        MOV     DPL,R2
        MOV     DPH,R3
//  176     }
??MT_AfExec_1:
        LCALL   ??Subroutine51_0 & 0xFFFF
??CrossCallReturnLabel_106:
        MOV     A,R2
        ORL     A,R3
        JZ      ??MT_AfExec_3
        MOV     A,R2
        ADD     A,#0x8
        MOV     DPL,A
        MOV     A,R3
        LCALL   ??Subroutine50_0 & 0xFFFF
??CrossCallReturnLabel_100:
        DEC     A
        MOVX    @DPTR,A
        JNZ     ??MT_AfExec_2
        LCALL   ?Subroutine21 & 0xFFFF
??CrossCallReturnLabel_126:
        MOV     A,R2
        XRL     A,R0
        JNZ     ??MT_AfExec_4
        MOV     A,R3
        XRL     A,R1
??MT_AfExec_4:
        MOV     DPL,R2
        MOV     DPH,R3
        JNZ     ??MT_AfExec_5
        LCALL   ?Subroutine20 & 0xFFFF
??CrossCallReturnLabel_31:
        LCALL   ?Subroutine36 & 0xFFFF
??CrossCallReturnLabel_60:
        ; Setup parameters for call to function osal_mem_free
        LCALL   ??osal_mem_free?relay
        SJMP    ??MT_AfExec_0
??MT_AfExec_5:
        LCALL   ??Subroutine54_0 & 0xFFFF
??CrossCallReturnLabel_124:
        MOV     DPL,R6
        MOV     DPH,R7
        LCALL   ?Subroutine36 & 0xFFFF
??CrossCallReturnLabel_61:
        ; Setup parameters for call to function osal_mem_free
        LCALL   ??osal_mem_free?relay
        MOV     DPL,R6
        MOV     DPH,R7
        SJMP    ??MT_AfExec_1
//  177   }
//  178 
//  179   if (pMtAfDataReq != NULL)
??MT_AfExec_3:
        LCALL   ?Subroutine3 & 0xFFFF
??CrossCallReturnLabel_81:
        JZ      ??MT_AfExec_6
//  180   {
//  181     if (--(pMtAfDataReq->tick) == 0)
        MOVX    A,@DPTR
        XCH     A,R0
        ADD     A,#0x17
        MOV     DPL,A
        MOV     A,R0
        LCALL   ??Subroutine50_0 & 0xFFFF
??CrossCallReturnLabel_101:
        DEC     A
        LCALL   ?Subroutine8 & 0xFFFF
??CrossCallReturnLabel_7:
        MOVX    A,@DPTR
        JNZ     ??MT_AfExec_6
//  182     {
//  183       (void)osal_mem_free(pMtAfDataReq);
        ; Setup parameters for call to function osal_mem_free
        LCALL   ?Subroutine16 & 0xFFFF
??CrossCallReturnLabel_108:
        LCALL   ??osal_mem_free?relay
//  184       pMtAfDataReq = NULL;
        MOV     DPTR,#pMtAfDataReq
        CLR     A
        MOVX    @DPTR,A
        INC     DPTR
        MOVX    @DPTR,A
//  185     }
//  186   }
//  187 
//  188   if ((pMtAfInMsgList != NULL) || (pMtAfDataReq != NULL))
??MT_AfExec_6:
        MOV     DPTR,#pMtAfInMsgList
        LCALL   ??Subroutine45_0 & 0xFFFF
??CrossCallReturnLabel_80:
        JNZ     ??MT_AfExec_7
        LCALL   ?Subroutine3 & 0xFFFF
??CrossCallReturnLabel_82:
        JZ      ??MT_AfExec_8
//  189   {
//  190     if (ZSuccess != osal_start_timerEx(MT_TaskID, MT_AF_EXEC_EVT, MT_AF_EXEC_DLY))
??MT_AfExec_7:
        ; Setup parameters for call to function osal_start_timerEx
        MOV     R4,#-0x18
        MOV     R5,#0x3
        MOV     R2,#0x8
        MOV     R3,#0x0
        MOV     DPTR,#MT_TaskID
        MOVX    A,@DPTR
        MOV     R1,A
        LCALL   ??osal_start_timerEx?relay
        MOV     A,R1
        JZ      ??MT_AfExec_8
//  191     {
//  192       osal_set_event(MT_TaskID, MT_AF_EXEC_EVT);
        ; Setup parameters for call to function osal_set_event
        MOV     R2,#0x8
        MOV     R3,#0x0
        MOV     DPTR,#MT_TaskID
        MOVX    A,@DPTR
        MOV     R1,A
        LCALL   ??osal_set_event?relay
          CFI EndBlock cfiBlock0
//  193     }
//  194   }
//  195 }
??MT_AfExec_8:
        REQUIRE ?Subroutine0
        ; // Fall through to label ?Subroutine0

        RSEG BANKED_CODE:CODE:NOROOT(0)
?Subroutine0:
          CFI Block cfiBlock1 Using cfiCommon0
          CFI NoFunction
          CFI CFA_SP SP+0
          CFI CFA_XSP16 add(XSP16, 9)
          CFI VB load(1, XDATA, add(CFA_XSP16, literal(-8)))
          CFI DPL0 load(1, XDATA, add(CFA_XSP16, literal(-2)))
          CFI DPH0 load(1, XDATA, add(CFA_XSP16, literal(-1)))
          CFI R6 load(1, XDATA, add(CFA_XSP16, literal(-9)))
          CFI R7 load(1, XDATA, add(CFA_XSP16, literal(-6)))
          CFI V0 load(1, XDATA, add(CFA_XSP16, literal(-7)))
          CFI ?BRET_EXT load(1, XDATA, add(CFA_XSP16, literal(-3)))
          CFI ?RET_HIGH load(1, XDATA, add(CFA_XSP16, literal(-4)))
          CFI ?RET_LOW load(1, XDATA, add(CFA_XSP16, literal(-5)))
        MOV     R7,#0x1
        LJMP    ?BANKED_LEAVE_XDATA
          CFI EndBlock cfiBlock1
//  196 
//  197 /***************************************************************************************************
//  198  * @fn      MT_AfCommandProcessing
//  199  *
//  200  * @brief   Process all the AF commands that are issued by test tool
//  201  *
//  202  * @param   pBuf - pointer to the received buffer
//  203  *
//  204  * @return  status
//  205  ***************************************************************************************************/

        RSEG BANKED_CODE:CODE:NOROOT(0)
//  206 uint8 MT_AfCommandProcessing(uint8 *pBuf)
MT_AfCommandProcessing:
          CFI Block cfiBlock2 Using cfiCommon0
          CFI Function MT_AfCommandProcessing
        CODE
//  207 {
        FUNCALL MT_AfCommandProcessing, MT_AfRegister
        LOCFRAME ISTACK, 0, STACK
        LOCFRAME PSTACK, 0, STACK
        LOCFRAME XSTACK, 12, STACK
        LOCFRAME IOVERLAY, 0, STATIC
        LOCFRAME DOVERLAY, 0, STATIC
        ARGFRAME ISTACK, 0, STACK
        ARGFRAME PSTACK, 0, STACK
        ARGFRAME XSTACK, 12, STACK
        ARGFRAME IOVERLAY, 0, STATIC
        ARGFRAME DOVERLAY, 0, STATIC
        FUNCALL MT_AfCommandProcessing, MT_AfDataRequest
        LOCFRAME ISTACK, 0, STACK
        LOCFRAME PSTACK, 0, STACK
        LOCFRAME XSTACK, 12, STACK
        LOCFRAME IOVERLAY, 0, STATIC
        LOCFRAME DOVERLAY, 0, STATIC
        ARGFRAME ISTACK, 0, STACK
        ARGFRAME PSTACK, 0, STACK
        ARGFRAME XSTACK, 12, STACK
        ARGFRAME IOVERLAY, 0, STATIC
        ARGFRAME DOVERLAY, 0, STATIC
        FUNCALL MT_AfCommandProcessing, MT_AfDataRequestSrcRtg
        LOCFRAME ISTACK, 0, STACK
        LOCFRAME PSTACK, 0, STACK
        LOCFRAME XSTACK, 12, STACK
        LOCFRAME IOVERLAY, 0, STATIC
        LOCFRAME DOVERLAY, 0, STATIC
        ARGFRAME ISTACK, 0, STACK
        ARGFRAME PSTACK, 0, STACK
        ARGFRAME XSTACK, 12, STACK
        ARGFRAME IOVERLAY, 0, STATIC
        ARGFRAME DOVERLAY, 0, STATIC
        FUNCALL MT_AfCommandProcessing, MT_AfDataRetrieve
        LOCFRAME ISTACK, 0, STACK
        LOCFRAME PSTACK, 0, STACK
        LOCFRAME XSTACK, 12, STACK
        LOCFRAME IOVERLAY, 0, STATIC
        LOCFRAME DOVERLAY, 0, STATIC
        ARGFRAME ISTACK, 0, STACK
        ARGFRAME PSTACK, 0, STACK
        ARGFRAME XSTACK, 12, STACK
        ARGFRAME IOVERLAY, 0, STATIC
        ARGFRAME DOVERLAY, 0, STATIC
        FUNCALL MT_AfCommandProcessing, MT_AfDataStore
        LOCFRAME ISTACK, 0, STACK
        LOCFRAME PSTACK, 0, STACK
        LOCFRAME XSTACK, 12, STACK
        LOCFRAME IOVERLAY, 0, STATIC
        LOCFRAME DOVERLAY, 0, STATIC
        ARGFRAME ISTACK, 0, STACK
        ARGFRAME PSTACK, 0, STACK
        ARGFRAME XSTACK, 12, STACK
        ARGFRAME IOVERLAY, 0, STATIC
        ARGFRAME DOVERLAY, 0, STATIC
        FUNCALL MT_AfCommandProcessing, afAPSF_ConfigSet
        LOCFRAME ISTACK, 0, STACK
        LOCFRAME PSTACK, 0, STACK
        LOCFRAME XSTACK, 12, STACK
        LOCFRAME IOVERLAY, 0, STATIC
        LOCFRAME DOVERLAY, 0, STATIC
        ARGFRAME ISTACK, 0, STACK
        ARGFRAME PSTACK, 0, STACK
        ARGFRAME XSTACK, 12, STACK
        ARGFRAME IOVERLAY, 0, STATIC
        ARGFRAME DOVERLAY, 0, STATIC
        FUNCALL MT_AfCommandProcessing, MT_BuildAndSendZToolResponse
        LOCFRAME ISTACK, 0, STACK
        LOCFRAME PSTACK, 0, STACK
        LOCFRAME XSTACK, 12, STACK
        LOCFRAME IOVERLAY, 0, STATIC
        LOCFRAME DOVERLAY, 0, STATIC
        ARGFRAME ISTACK, 0, STACK
        ARGFRAME PSTACK, 0, STACK
        ARGFRAME XSTACK, 12, STACK
        ARGFRAME IOVERLAY, 0, STATIC
        ARGFRAME DOVERLAY, 0, STATIC
        MOV     A,#-0x9
        LCALL   ?BANKED_ENTER_XDATA
          CFI DPH0 load(1, XDATA, add(CFA_XSP16, literal(-1)))
          CFI DPL0 load(1, XDATA, add(CFA_XSP16, literal(-2)))
          CFI ?BRET_EXT load(1, XDATA, add(CFA_XSP16, literal(-3)))
          CFI ?RET_HIGH load(1, XDATA, add(CFA_XSP16, literal(-4)))
          CFI ?RET_LOW load(1, XDATA, add(CFA_XSP16, literal(-5)))
          CFI R7 load(1, XDATA, add(CFA_XSP16, literal(-6)))
          CFI V0 load(1, XDATA, add(CFA_XSP16, literal(-7)))
          CFI VB load(1, XDATA, add(CFA_XSP16, literal(-8)))
          CFI R6 load(1, XDATA, add(CFA_XSP16, literal(-9)))
          CFI CFA_SP SP+0
          CFI CFA_XSP16 add(XSP16, 9)
        ; Saved register size: 9
        ; Auto size: 3
        MOV     A,#-0x3
        LCALL   ?ALLOC_XSTACK8
          CFI CFA_XSP16 add(XSP16, 12)
        MOV     A,R2
        MOV     R0,A
        MOV     A,R3
        MOV     R1,A
//  208   uint8 status = MT_RPC_SUCCESS;
        MOV     R6,#0x0
//  209 
//  210   switch (pBuf[MT_RPC_POS_CMD1])
        MOV     DPL,R0
        MOV     DPH,R1
        INC     DPTR
        INC     DPTR
        MOVX    A,@DPTR
        JZ      ??MT_AfCommandProcessing_0
        DEC     A
        JZ      ??MT_AfCommandProcessing_1
        DEC     A
        JZ      ??MT_AfCommandProcessing_1
        DEC     A
        JZ      ??MT_AfCommandProcessing_2
        ADD     A,#-0xe
        JZ      ??MT_AfCommandProcessing_3
        DEC     A
        JZ      ??MT_AfCommandProcessing_4
        DEC     A
        JZ      ??MT_AfCommandProcessing_5
        SJMP    ??MT_AfCommandProcessing_6
//  211   {
//  212     case MT_AF_REGISTER:
//  213       MT_AfRegister(pBuf);
??MT_AfCommandProcessing_0:
        ; Setup parameters for call to function MT_AfRegister
        LCALL   ??MT_AfRegister?relay
//  214       break;
        SJMP    ??MT_AfCommandProcessing_7
//  215 
//  216     case MT_AF_DATA_REQUEST:
//  217     case MT_AF_DATA_REQUEST_EXT:
//  218       MT_AfDataRequest(pBuf);
??MT_AfCommandProcessing_1:
        ; Setup parameters for call to function MT_AfDataRequest
        LCALL   ??MT_AfDataRequest?relay
//  219       break;
        SJMP    ??MT_AfCommandProcessing_7
//  220 
//  221 #if defined ( ZIGBEE_SOURCE_ROUTING )
//  222     case MT_AF_DATA_REQUEST_SRCRTG:
//  223       MT_AfDataRequestSrcRtg(pBuf);
??MT_AfCommandProcessing_2:
        ; Setup parameters for call to function MT_AfDataRequestSrcRtg
        LCALL   ??MT_AfDataRequestSrcRtg?relay
//  224       break;
        SJMP    ??MT_AfCommandProcessing_7
//  225 #endif
//  226 
//  227 #if defined INTER_PAN
//  228     case MT_AF_INTER_PAN_CTL:
//  229       MT_AfInterPanCtl(pBuf);
//  230       break;
//  231 #endif
//  232 
//  233     case MT_AF_DATA_RETRIEVE:
//  234       MT_AfDataRetrieve(pBuf);
??MT_AfCommandProcessing_4:
        ; Setup parameters for call to function MT_AfDataRetrieve
        LCALL   ??MT_AfDataRetrieve?relay
//  235       break;
        SJMP    ??MT_AfCommandProcessing_7
//  236 
//  237     case MT_AF_DATA_STORE:
//  238       MT_AfDataStore(pBuf);
??MT_AfCommandProcessing_3:
        ; Setup parameters for call to function MT_AfDataStore
        LCALL   ??MT_AfDataStore?relay
//  239       break;
        SJMP    ??MT_AfCommandProcessing_7
//  240 
//  241     case MT_AF_APSF_CONFIG_SET:
//  242       MT_AfAPSF_ConfigSet(pBuf);
??MT_AfCommandProcessing_5:
        MOV     DPL,R0
        MOV     DPH,R1
        INC     DPTR
        INC     DPTR
        INC     DPTR
        INC     DPTR
        MOVX    A,@DPTR
        PUSH    A
          CFI CFA_SP SP+-1
        MOV     A,#0x1
        LCALL   ?XSTACK_DISP0_8
        POP     A
          CFI CFA_SP SP+0
        MOVX    @DPTR,A
        MOV     DPL,R0
        MOV     DPH,R1
        INC     DPTR
        INC     DPTR
        INC     DPTR
        INC     DPTR
        INC     DPTR
        MOVX    A,@DPTR
        PUSH    A
          CFI CFA_SP SP+-1
        MOV     A,#0x2
        LCALL   ?XSTACK_DISP0_8
        POP     A
          CFI CFA_SP SP+0
        MOVX    @DPTR,A
        ; Setup parameters for call to function afAPSF_ConfigSet
        MOV     A,#0x1
        LCALL   ?XSTACK_DISP0_8
        MOV     R2,DPL
        MOV     R3,DPH
        MOV     DPL,R0
        MOV     DPH,R1
        INC     DPTR
        INC     DPTR
        INC     DPTR
        MOVX    A,@DPTR
        MOV     R1,A
        LCALL   ??afAPSF_ConfigSet?relay
        MOV     A,R1
        MOV     DPL,?XSP + 0
        MOV     DPH,?XSP + 1
        MOVX    @DPTR,A
        ; Setup parameters for call to function MT_BuildAndSendZToolResponse
        MOV     R4,DPL
        MOV     R5,DPH
        MOV     R3,#0x1
        MOV     R2,#0x13
        MOV     R1,#0x64
        LCALL   ??MT_BuildAndSendZToolResponse?relay
//  243       break;
        SJMP    ??MT_AfCommandProcessing_7
//  244 
//  245     default:
//  246       status = MT_RPC_ERR_COMMAND_ID;
??MT_AfCommandProcessing_6:
        INC     R6
        INC     R6
//  247       break;
//  248   }
//  249 
//  250   return status;
??MT_AfCommandProcessing_7:
        MOV     A,R6
        MOV     R1,A
        MOV     A,#0x3
        LCALL   ?DEALLOC_XSTACK8
          CFI CFA_XSP16 add(XSP16, 9)
        LJMP    ?Subroutine0 & 0xFFFF
          CFI EndBlock cfiBlock2
//  251 }
//  252 
//  253 /***************************************************************************************************
//  254  * @fn      MT_AfRegister
//  255  *
//  256  * @brief   Process AF Register command
//  257  *
//  258  * @param   pBuf - pointer to the received buffer
//  259  *
//  260  * @return  none
//  261  ***************************************************************************************************/

        RSEG BANKED_CODE:CODE:NOROOT(0)
//  262 void MT_AfRegister(uint8 *pBuf)
MT_AfRegister:
          CFI Block cfiBlock3 Using cfiCommon0
          CFI Function MT_AfRegister
        CODE
//  263 {
        FUNCALL MT_AfRegister, osal_mem_alloc
        LOCFRAME ISTACK, 0, STACK
        LOCFRAME PSTACK, 0, STACK
        LOCFRAME XSTACK, 15, STACK
        LOCFRAME IOVERLAY, 0, STATIC
        LOCFRAME DOVERLAY, 0, STATIC
        ARGFRAME ISTACK, 0, STACK
        ARGFRAME PSTACK, 0, STACK
        ARGFRAME XSTACK, 15, STACK
        ARGFRAME IOVERLAY, 0, STATIC
        ARGFRAME DOVERLAY, 0, STATIC
        FUNCALL MT_AfRegister, MT_BuildEndpointDesc
        LOCFRAME ISTACK, 0, STACK
        LOCFRAME PSTACK, 0, STACK
        LOCFRAME XSTACK, 15, STACK
        LOCFRAME IOVERLAY, 0, STATIC
        LOCFRAME DOVERLAY, 0, STATIC
        ARGFRAME ISTACK, 0, STACK
        ARGFRAME PSTACK, 0, STACK
        ARGFRAME XSTACK, 15, STACK
        ARGFRAME IOVERLAY, 0, STATIC
        ARGFRAME DOVERLAY, 0, STATIC
        FUNCALL MT_AfRegister, afRegister
        LOCFRAME ISTACK, 0, STACK
        LOCFRAME PSTACK, 0, STACK
        LOCFRAME XSTACK, 15, STACK
        LOCFRAME IOVERLAY, 0, STATIC
        LOCFRAME DOVERLAY, 0, STATIC
        ARGFRAME ISTACK, 0, STACK
        ARGFRAME PSTACK, 0, STACK
        ARGFRAME XSTACK, 15, STACK
        ARGFRAME IOVERLAY, 0, STATIC
        ARGFRAME DOVERLAY, 0, STATIC
        FUNCALL MT_AfRegister, osal_mem_free
        LOCFRAME ISTACK, 0, STACK
        LOCFRAME PSTACK, 0, STACK
        LOCFRAME XSTACK, 15, STACK
        LOCFRAME IOVERLAY, 0, STATIC
        LOCFRAME DOVERLAY, 0, STATIC
        ARGFRAME ISTACK, 0, STACK
        ARGFRAME PSTACK, 0, STACK
        ARGFRAME XSTACK, 15, STACK
        ARGFRAME IOVERLAY, 0, STATIC
        ARGFRAME DOVERLAY, 0, STATIC
        FUNCALL MT_AfRegister, MT_BuildAndSendZToolResponse
        LOCFRAME ISTACK, 0, STACK
        LOCFRAME PSTACK, 0, STACK
        LOCFRAME XSTACK, 15, STACK
        LOCFRAME IOVERLAY, 0, STATIC
        LOCFRAME DOVERLAY, 0, STATIC
        ARGFRAME ISTACK, 0, STACK
        ARGFRAME PSTACK, 0, STACK
        ARGFRAME XSTACK, 15, STACK
        ARGFRAME IOVERLAY, 0, STATIC
        ARGFRAME DOVERLAY, 0, STATIC
        MOV     A,#-0xe
        LCALL   ?BANKED_ENTER_XDATA
          CFI DPH0 load(1, XDATA, add(CFA_XSP16, literal(-1)))
          CFI DPL0 load(1, XDATA, add(CFA_XSP16, literal(-2)))
          CFI ?BRET_EXT load(1, XDATA, add(CFA_XSP16, literal(-3)))
          CFI ?RET_HIGH load(1, XDATA, add(CFA_XSP16, literal(-4)))
          CFI ?RET_LOW load(1, XDATA, add(CFA_XSP16, literal(-5)))
          CFI R7 load(1, XDATA, add(CFA_XSP16, literal(-6)))
          CFI V5 load(1, XDATA, add(CFA_XSP16, literal(-7)))
          CFI V4 load(1, XDATA, add(CFA_XSP16, literal(-8)))
          CFI V3 load(1, XDATA, add(CFA_XSP16, literal(-9)))
          CFI V2 load(1, XDATA, add(CFA_XSP16, literal(-10)))
          CFI V1 load(1, XDATA, add(CFA_XSP16, literal(-11)))
          CFI V0 load(1, XDATA, add(CFA_XSP16, literal(-12)))
          CFI VB load(1, XDATA, add(CFA_XSP16, literal(-13)))
          CFI R6 load(1, XDATA, add(CFA_XSP16, literal(-14)))
          CFI CFA_SP SP+0
          CFI CFA_XSP16 add(XSP16, 14)
        ; Saved register size: 14
        ; Auto size: 1
        MOV     A,#-0x1
        LCALL   ?ALLOC_XSTACK8
          CFI CFA_XSP16 add(XSP16, 15)
        MOV     ?V0 + 0,R2
        MOV     ?V0 + 1,R3
//  264   uint8 cmdId;
//  265   uint8 retValue = ZMemError;
        MOV     DPL,?XSP + 0
        MOV     DPH,?XSP + 1
        MOV     A,#0x10
        LCALL   ?Subroutine33 & 0xFFFF
//  266   endPointDesc_t *epDesc;
//  267 
//  268   /* parse header */
//  269   cmdId = pBuf[MT_RPC_POS_CMD1];
//  270   pBuf += MT_RPC_FRAME_HDR_SZ;
//  271 
//  272   epDesc = (endPointDesc_t *)osal_mem_alloc(sizeof(endPointDesc_t));
??CrossCallReturnLabel_53:
        ; Setup parameters for call to function osal_mem_alloc
        MOV     R2,#0x6
        MOV     R3,#0x0
        LCALL   ??osal_mem_alloc?relay
        MOV     ?V0 + 4,R2
        MOV     ?V0 + 5,R3
        MOV     R6,?V0 + 4
        MOV     R7,?V0 + 5
//  273   if ( epDesc )
        MOV     A,R6
        ORL     A,R7
        JZ      ??MT_AfRegister_0
//  274   {
//  275     epDesc->task_id = &MT_TaskID;
        MOV     DPL,R6
        MOV     DPH,R7
        INC     DPTR
        MOV     A,#MT_TaskID & 0xff
        MOVX    @DPTR,A
        INC     DPTR
        MOV     A,#(MT_TaskID >> 8) & 0xff
        MOVX    @DPTR,A
//  276     retValue = MT_BuildEndpointDesc( pBuf, epDesc );
        ; Setup parameters for call to function MT_BuildEndpointDesc
        MOV     A,R6
        MOV     R4,A
        MOV     A,R7
        MOV     R5,A
        MOV     A,?V0 + 0
        ADD     A,#0x3
        MOV     R2,A
        MOV     A,?V0 + 1
        ADDC    A,#0x0
        MOV     R3,A
        LCALL   ??MT_BuildEndpointDesc?relay
        MOV     A,R1
        MOV     DPL,?XSP + 0
        MOV     DPH,?XSP + 1
        MOVX    @DPTR,A
//  277     if ( retValue == ZSuccess )
        JNZ     ??MT_AfRegister_1
//  278     {
//  279       retValue = afRegister( epDesc );
        ; Setup parameters for call to function afRegister
        MOV     A,R6
        MOV     R2,A
        MOV     A,R7
        MOV     R3,A
        LCALL   ??afRegister?relay
        MOV     A,R1
        MOV     DPL,?XSP + 0
        MOV     DPH,?XSP + 1
        MOVX    @DPTR,A
//  280     }
//  281 
//  282     if ( retValue != ZSuccess )
??MT_AfRegister_1:
        MOVX    A,@DPTR
        JZ      ??MT_AfRegister_0
//  283     {
//  284       osal_mem_free( epDesc );
        ; Setup parameters for call to function osal_mem_free
        MOV     A,R6
        MOV     R2,A
        MOV     A,R7
        MOV     R3,A
        LCALL   ??osal_mem_free?relay
//  285     }
//  286   }
//  287 
//  288   /* Build and send back the response */
//  289   MT_BuildAndSendZToolResponse(((uint8)MT_RPC_CMD_SRSP | (uint8)MT_RPC_SYS_AF), cmdId, 1, &retValue);
??MT_AfRegister_0:
        ; Setup parameters for call to function MT_BuildAndSendZToolResponse
        MOV     DPL,?XSP + 0
        MOV     DPH,?XSP + 1
        MOV     R4,DPL
        MOV     R5,DPH
        MOV     R3,#0x1
        MOV     R2,?V0 + 2
        MOV     R1,#0x64
        LCALL   ??MT_BuildAndSendZToolResponse?relay
//  290 }
        MOV     A,#0x1
        LCALL   ?DEALLOC_XSTACK8
          CFI CFA_XSP16 add(XSP16, 14)
        MOV     R7,#0x6
        LJMP    ?BANKED_LEAVE_XDATA
          CFI EndBlock cfiBlock3
//  291 
//  292 /***************************************************************************************************
//  293  * @fn      MT_AfDataRequest
//  294  *
//  295  * @brief   Process AF Register command
//  296  *
//  297  * @param   pBuf - pointer to the received buffer
//  298  *
//  299  * @return  none
//  300  ***************************************************************************************************/

        RSEG BANKED_CODE:CODE:NOROOT(0)
//  301 void MT_AfDataRequest(uint8 *pBuf)
MT_AfDataRequest:
          CFI Block cfiBlock4 Using cfiCommon0
          CFI Function MT_AfDataRequest
        CODE
//  302 {
        FUNCALL MT_AfDataRequest, osal_memcpy
        LOCFRAME ISTACK, 0, STACK
        LOCFRAME PSTACK, 0, STACK
        LOCFRAME XSTACK, 37, STACK
        LOCFRAME IOVERLAY, 0, STATIC
        LOCFRAME DOVERLAY, 0, STATIC
        ARGFRAME ISTACK, 0, STACK
        ARGFRAME PSTACK, 0, STACK
        ARGFRAME XSTACK, 37, STACK
        ARGFRAME IOVERLAY, 0, STATIC
        ARGFRAME DOVERLAY, 0, STATIC
        FUNCALL MT_AfDataRequest, afFindEndPointDesc
        LOCFRAME ISTACK, 0, STACK
        LOCFRAME PSTACK, 0, STACK
        LOCFRAME XSTACK, 34, STACK
        LOCFRAME IOVERLAY, 0, STATIC
        LOCFRAME DOVERLAY, 0, STATIC
        ARGFRAME ISTACK, 0, STACK
        ARGFRAME PSTACK, 0, STACK
        ARGFRAME XSTACK, 34, STACK
        ARGFRAME IOVERLAY, 0, STATIC
        ARGFRAME DOVERLAY, 0, STATIC
        FUNCALL MT_AfDataRequest, osal_mem_alloc
        LOCFRAME ISTACK, 0, STACK
        LOCFRAME PSTACK, 0, STACK
        LOCFRAME XSTACK, 34, STACK
        LOCFRAME IOVERLAY, 0, STATIC
        LOCFRAME DOVERLAY, 0, STATIC
        ARGFRAME ISTACK, 0, STACK
        ARGFRAME PSTACK, 0, STACK
        ARGFRAME XSTACK, 34, STACK
        ARGFRAME IOVERLAY, 0, STATIC
        ARGFRAME DOVERLAY, 0, STATIC
        FUNCALL MT_AfDataRequest, osal_memcpy
        LOCFRAME ISTACK, 0, STACK
        LOCFRAME PSTACK, 0, STACK
        LOCFRAME XSTACK, 37, STACK
        LOCFRAME IOVERLAY, 0, STATIC
        LOCFRAME DOVERLAY, 0, STATIC
        ARGFRAME ISTACK, 0, STACK
        ARGFRAME PSTACK, 0, STACK
        ARGFRAME XSTACK, 37, STACK
        ARGFRAME IOVERLAY, 0, STATIC
        ARGFRAME DOVERLAY, 0, STATIC
        FUNCALL MT_AfDataRequest, osal_start_timerEx
        LOCFRAME ISTACK, 0, STACK
        LOCFRAME PSTACK, 0, STACK
        LOCFRAME XSTACK, 34, STACK
        LOCFRAME IOVERLAY, 0, STATIC
        LOCFRAME DOVERLAY, 0, STATIC
        ARGFRAME ISTACK, 0, STACK
        ARGFRAME PSTACK, 0, STACK
        ARGFRAME XSTACK, 34, STACK
        ARGFRAME IOVERLAY, 0, STATIC
        ARGFRAME DOVERLAY, 0, STATIC
        FUNCALL MT_AfDataRequest, osal_set_event
        LOCFRAME ISTACK, 0, STACK
        LOCFRAME PSTACK, 0, STACK
        LOCFRAME XSTACK, 34, STACK
        LOCFRAME IOVERLAY, 0, STATIC
        LOCFRAME DOVERLAY, 0, STATIC
        ARGFRAME ISTACK, 0, STACK
        ARGFRAME PSTACK, 0, STACK
        ARGFRAME XSTACK, 34, STACK
        ARGFRAME IOVERLAY, 0, STATIC
        ARGFRAME DOVERLAY, 0, STATIC
        FUNCALL MT_AfDataRequest, AF_DataRequest
        LOCFRAME ISTACK, 0, STACK
        LOCFRAME PSTACK, 0, STACK
        LOCFRAME XSTACK, 43, STACK
        LOCFRAME IOVERLAY, 0, STATIC
        LOCFRAME DOVERLAY, 0, STATIC
        ARGFRAME ISTACK, 0, STACK
        ARGFRAME PSTACK, 0, STACK
        ARGFRAME XSTACK, 43, STACK
        ARGFRAME IOVERLAY, 0, STATIC
        ARGFRAME DOVERLAY, 0, STATIC
        FUNCALL MT_AfDataRequest, MT_BuildAndSendZToolResponse
        LOCFRAME ISTACK, 0, STACK
        LOCFRAME PSTACK, 0, STACK
        LOCFRAME XSTACK, 34, STACK
        LOCFRAME IOVERLAY, 0, STATIC
        LOCFRAME DOVERLAY, 0, STATIC
        ARGFRAME ISTACK, 0, STACK
        ARGFRAME PSTACK, 0, STACK
        ARGFRAME XSTACK, 34, STACK
        ARGFRAME IOVERLAY, 0, STATIC
        ARGFRAME DOVERLAY, 0, STATIC
        MOV     A,#-0x14
        LCALL   ?BANKED_ENTER_XDATA
          CFI DPH0 load(1, XDATA, add(CFA_XSP16, literal(-1)))
          CFI DPL0 load(1, XDATA, add(CFA_XSP16, literal(-2)))
          CFI ?BRET_EXT load(1, XDATA, add(CFA_XSP16, literal(-3)))
          CFI ?RET_HIGH load(1, XDATA, add(CFA_XSP16, literal(-4)))
          CFI ?RET_LOW load(1, XDATA, add(CFA_XSP16, literal(-5)))
          CFI R7 load(1, XDATA, add(CFA_XSP16, literal(-6)))
          CFI V11 load(1, XDATA, add(CFA_XSP16, literal(-7)))
          CFI V10 load(1, XDATA, add(CFA_XSP16, literal(-8)))
          CFI V9 load(1, XDATA, add(CFA_XSP16, literal(-9)))
          CFI V8 load(1, XDATA, add(CFA_XSP16, literal(-10)))
          CFI V7 load(1, XDATA, add(CFA_XSP16, literal(-11)))
          CFI V6 load(1, XDATA, add(CFA_XSP16, literal(-12)))
          CFI V5 load(1, XDATA, add(CFA_XSP16, literal(-13)))
          CFI V4 load(1, XDATA, add(CFA_XSP16, literal(-14)))
          CFI V3 load(1, XDATA, add(CFA_XSP16, literal(-15)))
          CFI V2 load(1, XDATA, add(CFA_XSP16, literal(-16)))
          CFI V1 load(1, XDATA, add(CFA_XSP16, literal(-17)))
          CFI V0 load(1, XDATA, add(CFA_XSP16, literal(-18)))
          CFI VB load(1, XDATA, add(CFA_XSP16, literal(-19)))
          CFI R6 load(1, XDATA, add(CFA_XSP16, literal(-20)))
          CFI CFA_SP SP+0
          CFI CFA_XSP16 add(XSP16, 20)
        ; Saved register size: 20
        ; Auto size: 14
        MOV     A,#-0xe
        LCALL   ?ALLOC_XSTACK8
          CFI CFA_XSP16 add(XSP16, 34)
//  303   #define MT_AF_REQ_MSG_LEN  10
//  304   #define MT_AF_REQ_MSG_EXT  10
//  305 
//  306   endPointDesc_t *epDesc;
//  307   afAddrType_t dstAddr;
//  308   cId_t cId;
//  309   uint8 transId, txOpts, radius;
//  310   uint8 cmd0, cmd1;
//  311   uint8 retValue = ZFailure;
        MOV     DPL,?XSP + 0
        MOV     DPH,?XSP + 1
        MOV     A,#0x1
        LCALL   ?Subroutine34 & 0xFFFF
//  312   uint16 dataLen, tempLen;
//  313 
//  314   /* Parse header */
//  315   cmd0 = pBuf[MT_RPC_POS_CMD0];
??CrossCallReturnLabel_55:
        MOVX    A,@DPTR
        MOV     R7,A
//  316   cmd1 = pBuf[MT_RPC_POS_CMD1];
        MOV     DPL,R2
        MOV     DPH,R3
        INC     DPTR
        INC     DPTR
        MOVX    A,@DPTR
        MOV     R6,A
//  317   pBuf += MT_RPC_FRAME_HDR_SZ;
        LCALL   ?Subroutine37 & 0xFFFF
//  318 
//  319   if (cmd1 == MT_AF_DATA_REQUEST_EXT)
??CrossCallReturnLabel_66:
        MOV     A,#0x2
        XRL     A,R6
        JNZ     ??MT_AfDataRequest_0
//  320   {
//  321     dstAddr.addrMode = (afAddrMode_t)*pBuf++;
        MOV     DPL,?V0 + 4
        MOV     DPH,?V0 + 5
        MOVX    A,@DPTR
        MOV     R0,A
        MOV     A,#0xa
        LCALL   ?XSTACK_DISP0_8
        MOV     A,R0
        LCALL   ?Subroutine28 & 0xFFFF
//  322 
//  323     if (dstAddr.addrMode == afAddr64Bit)
??CrossCallReturnLabel_40:
        MOV     A,#0x3
        XRL     A,R0
        JNZ     ??MT_AfDataRequest_1
//  324     {
//  325       (void)osal_memcpy(dstAddr.addr.extAddr, pBuf, Z_EXTADDR_LEN);
        ; Setup parameters for call to function osal_memcpy
        MOV     ?V0 + 0,?V0 + 4
        MOV     ?V0 + 1,?V0 + 5
        MOV     ?V0 + 2,#0x0
        MOV     R0,#?V0 + 0
        LCALL   ?PUSH_XSTACK_I_THREE
          CFI CFA_XSP16 add(XSP16, 37)
        MOV     R4,#0x8
        MOV     R5,#0x0
        MOV     A,#0x5
        LCALL   ?XSTACK_DISP0_8
        MOV     R2,DPL
        MOV     R3,DPH
        LCALL   ??osal_memcpy?relay
        MOV     A,#0x3
        LCALL   ?DEALLOC_XSTACK8
          CFI CFA_XSP16 add(XSP16, 34)
        SJMP    ??CrossCallReturnLabel_62
//  326     }
//  327     else
//  328     {
//  329       dstAddr.addr.shortAddr = BUILD_UINT16(pBuf[0], pBuf[1]);
??MT_AfDataRequest_1:
        LCALL   ??Subroutine48_0 & 0xFFFF
//  330     }
??CrossCallReturnLabel_93:
        LCALL   ?XSTACK_DISP0_8
        LCALL   ?Subroutine36 & 0xFFFF
//  331     pBuf += Z_EXTADDR_LEN;
??CrossCallReturnLabel_62:
        MOV     A,?V0 + 4
        ADD     A,#0x8
        LCALL   ??Subroutine47_0 & 0xFFFF
//  332 
//  333     dstAddr.endPoint = *pBuf++;
??CrossCallReturnLabel_90:
        PUSH    A
          CFI CFA_SP SP+-1
        MOV     A,#0xb
        LCALL   ?XSTACK_DISP0_8
        POP     A
          CFI CFA_SP SP+0
        LCALL   ?Subroutine28 & 0xFFFF
//  334     dstAddr.panId = BUILD_UINT16(pBuf[0], pBuf[1]);
??CrossCallReturnLabel_41:
        LCALL   ?Subroutine41 & 0xFFFF
//  335     pBuf += 2;
//  336   }
??CrossCallReturnLabel_94:
        MOV     R0,A
        MOV     A,#0xc
        LCALL   ?XSTACK_DISP0_8
        MOV     A,R0
        MOVX    @DPTR,A
        INC     DPTR
        MOV     A,R1
        LCALL   ?Subroutine31 & 0xFFFF
??CrossCallReturnLabel_49:
        SJMP    ??MT_AfDataRequest_2
//  337   else
//  338   {
//  339     /* Destination address */
//  340     dstAddr.addrMode = afAddr16Bit;
??MT_AfDataRequest_0:
        MOV     A,#0xa
        LCALL   ?XSTACK_DISP0_8
        LCALL   ?Subroutine5 & 0xFFFF
//  341     dstAddr.addr.shortAddr = BUILD_UINT16(pBuf[0], pBuf[1]);
??CrossCallReturnLabel_91:
        LCALL   ?XSTACK_DISP0_8
        LCALL   ?Subroutine23 & 0xFFFF
//  342     pBuf += 2;
//  343 
//  344     /* Destination endpoint */
//  345     dstAddr.endPoint = *pBuf++;
??CrossCallReturnLabel_86:
        PUSH    A
          CFI CFA_SP SP+-1
        MOV     A,#0xb
        LCALL   ?XSTACK_DISP0_8
        POP     A
          CFI CFA_SP SP+0
        LCALL   ?Subroutine28 & 0xFFFF
//  346     dstAddr.panId = 0;
??CrossCallReturnLabel_42:
        MOV     A,#0xc
        LCALL   ?XSTACK_DISP0_8
        CLR     A
        MOVX    @DPTR,A
        INC     DPTR
        MOVX    @DPTR,A
//  347   }
//  348 
//  349   /* Source endpoint */
//  350   epDesc = afFindEndPointDesc(*pBuf++);
??MT_AfDataRequest_2:
        ; Setup parameters for call to function afFindEndPointDesc
        MOV     DPL,?V0 + 4
        MOV     DPH,?V0 + 5
        MOVX    A,@DPTR
        MOV     R1,A
        LCALL   ??afFindEndPointDesc?relay
        MOV     ?V0 + 0,R2
        MOV     ?V0 + 1,R3
        MOV     DPL,?V0 + 4
        MOV     DPH,?V0 + 5
        INC     DPTR
        MOV     ?V0 + 4,DPL
        MOV     ?V0 + 5,DPH
//  351 
//  352   /* ClusterId */
//  353   cId = BUILD_UINT16(pBuf[0], pBuf[1]);
        MOVX    A,@DPTR
        MOV     R2,A
        INC     DPTR
        MOVX    A,@DPTR
        MOV     R0,A
        CLR     A
        XCH     A,R0
        MOV     R1,A
        MOV     A,R2
        ADD     A,#0x0
        MOV     ?V0 + 10,A
        CLR     A
        ADDC    A,R1
        MOV     ?V0 + 11,A
//  354   pBuf +=2;
        LCALL   ??Subroutine46_0 & 0xFFFF
//  355 
//  356   /* TransId */
//  357   transId = *pBuf++;
??CrossCallReturnLabel_88:
        PUSH    A
          CFI CFA_SP SP+-1
        MOV     A,#0x1
        LCALL   ?XSTACK_DISP0_8
        POP     A
          CFI CFA_SP SP+0
        LCALL   ?Subroutine39 & 0xFFFF
//  358 
//  359   /* TxOption */
//  360   txOpts = *pBuf++;
??CrossCallReturnLabel_68:
        LCALL   ?Subroutine15 & 0xFFFF
//  361 
//  362   /* Radius */
//  363   radius = *pBuf++;
??CrossCallReturnLabel_21:
        INC     DPTR
        MOV     ?V0 + 4,DPL
        MOV     ?V0 + 5,DPH
//  364 
//  365   /* Length */
//  366   if (cmd1 == MT_AF_DATA_REQUEST_EXT)
        MOV     A,#0x2
        XRL     A,R6
        JNZ     ??MT_AfDataRequest_3
//  367   {
//  368     dataLen = BUILD_UINT16(pBuf[0], pBuf[1]);
        LCALL   ?Subroutine7 & 0xFFFF
//  369     tempLen = dataLen + MT_AF_REQ_MSG_LEN + MT_AF_REQ_MSG_EXT;
??CrossCallReturnLabel_4:
        MOV     A,R2
        ADD     A,#0x14
        MOV     R0,A
        MOV     A,R1
        ADDC    A,#0x0
        MOV     R1,A
//  370     pBuf += 2;
        LCALL   ?Subroutine43 & 0xFFFF
//  371   }
??CrossCallReturnLabel_78:
        SJMP    ??MT_AfDataRequest_4
//  372   else
//  373   {
//  374     dataLen = *pBuf++;
??MT_AfDataRequest_3:
        MOVX    A,@DPTR
        MOV     ?V0 + 8,A
        MOV     ?V0 + 9,R0
        INC     DPTR
        MOV     ?V0 + 4,DPL
        MOV     ?V0 + 5,DPH
//  375     tempLen = dataLen + MT_AF_REQ_MSG_LEN;
        ADD     A,#0xa
        MOV     R0,A
        CLR     A
        ADDC    A,#0x0
        MOV     R1,A
//  376   }
//  377 
//  378   if ( epDesc == NULL )
??MT_AfDataRequest_4:
        MOV     A,?V0 + 0
        ORL     A,?V0 + 1
        JZ      ??MT_AfDataRequest_5
//  379   {
//  380     retValue = afStatus_INVALID_PARAMETER;
//  381   }
//  382   else if (tempLen > (uint16)MT_RPC_DATA_MAX)
        CLR     C
        MOV     A,R0
        SUBB    A,#-0x5
        MOV     A,R1
        SUBB    A,#0x0
        JNC     $+5
        LJMP    ??MT_AfDataRequest_6 & 0xFFFF
//  383   {
//  384     if (pMtAfDataReq != NULL)
        LCALL   ?Subroutine3 & 0xFFFF
??CrossCallReturnLabel_83:
        JZ      ??MT_AfDataRequest_7
//  385     {
//  386       retValue = afStatus_INVALID_PARAMETER;
??MT_AfDataRequest_5:
        MOV     DPL,?XSP + 0
        MOV     DPH,?XSP + 1
        MOV     A,#0x2
        LJMP    ??MT_AfDataRequest_8 & 0xFFFF
//  387     }
//  388     else if ((pMtAfDataReq = osal_mem_alloc(sizeof(mtAfDataReq_t) + dataLen)) == NULL)
??MT_AfDataRequest_7:
        ; Setup parameters for call to function osal_mem_alloc
        MOV     A,?V0 + 8
        ADD     A,#0x18
        MOV     R2,A
        MOV     A,?V0 + 9
        ADDC    A,#0x0
        MOV     R3,A
        LCALL   ??osal_mem_alloc?relay
        MOV     DPTR,#pMtAfDataReq
        MOV     A,R2
        MOVX    @DPTR,A
        INC     DPTR
        MOV     A,R3
        MOVX    @DPTR,A
        LCALL   ?Subroutine3 & 0xFFFF
??CrossCallReturnLabel_84:
        MOV     DPL,?XSP + 0
        MOV     DPH,?XSP + 1
        JNZ     ??MT_AfDataRequest_9
//  389     {
//  390       retValue = afStatus_MEM_FAIL;
        MOV     A,#0x10
        LJMP    ??MT_AfDataRequest_8 & 0xFFFF
//  391     }
//  392     else
//  393     {
//  394       retValue = afStatus_SUCCESS;
??MT_AfDataRequest_9:
        CLR     A
        MOVX    @DPTR,A
//  395 
//  396       pMtAfDataReq->data = (uint8 *)(pMtAfDataReq+1);
        MOV     DPTR,#pMtAfDataReq
        MOVX    A,@DPTR
        ADD     A,#0x18
        MOV     R2,A
        INC     DPTR
        MOVX    A,@DPTR
        ADDC    A,#0x0
        MOV     R3,A
        LCALL   ?Subroutine14 & 0xFFFF
??CrossCallReturnLabel_18:
        MOV     A,R2
        MOVX    @DPTR,A
        INC     DPTR
        MOV     A,R3
        MOVX    @DPTR,A
//  397       (void)osal_memcpy(&(pMtAfDataReq->dstAddr), &dstAddr, sizeof(afAddrType_t));
        ; Setup parameters for call to function osal_memcpy
        MOV     A,#0x2
        LCALL   ?XSTACK_DISP0_8
        MOV     R1,DPL
        MOV     R2,DPH
        MOV     ?V0 + 4,R1
        MOV     ?V0 + 5,R2
        MOV     ?V0 + 6,#0x0
        MOV     R0,#?V0 + 4
        LCALL   ?PUSH_XSTACK_I_THREE
          CFI CFA_XSP16 add(XSP16, 37)
        MOV     R4,#0xc
        MOV     R5,#0x0
        LCALL   ?Subroutine17 & 0xFFFF
??CrossCallReturnLabel_24:
        LCALL   ??osal_memcpy?relay
        MOV     A,#0x3
        LCALL   ?DEALLOC_XSTACK8
          CFI CFA_XSP16 add(XSP16, 34)
//  398       pMtAfDataReq->epDesc = epDesc;
        LCALL   ?Subroutine9 & 0xFFFF
??CrossCallReturnLabel_8:
        MOV     A,?V0 + 0
        MOVX    @DPTR,A
        INC     DPTR
        MOV     A,?V0 + 1
        MOVX    @DPTR,A
//  399       pMtAfDataReq->cId = cId;
        LCALL   ?Subroutine10 & 0xFFFF
??CrossCallReturnLabel_10:
        MOV     A,?V0 + 10
        MOVX    @DPTR,A
        INC     DPTR
        MOV     A,?V0 + 11
        MOVX    @DPTR,A
//  400       pMtAfDataReq->dataLen = dataLen;
        LCALL   ?Subroutine11 & 0xFFFF
??CrossCallReturnLabel_12:
        MOV     A,?V0 + 8
        MOVX    @DPTR,A
        INC     DPTR
        MOV     A,?V0 + 9
        MOVX    @DPTR,A
//  401       pMtAfDataReq->transId = transId;
        MOV     A,#0x1
        LCALL   ?XSTACK_DISP0_8
        MOVX    A,@DPTR
        PUSH    A
          CFI CFA_SP SP+-1
        LCALL   ?Subroutine40 & 0xFFFF
??CrossCallReturnLabel_71:
        ADD     A,#0x14
        LCALL   ?Subroutine42 & 0xFFFF
??CrossCallReturnLabel_133:
        POP     A
          CFI CFA_SP SP+0
        MOVX    @DPTR,A
//  402       pMtAfDataReq->txOpts = txOpts;
        LCALL   ?Subroutine12 & 0xFFFF
??CrossCallReturnLabel_14:
        MOV     A,?V0 + 2
        MOVX    @DPTR,A
//  403       pMtAfDataReq->radius = radius;
        LCALL   ?Subroutine13 & 0xFFFF
??CrossCallReturnLabel_16:
        MOV     A,?V0 + 3
        LCALL   ?Subroutine8 & 0xFFFF
//  404 
//  405       // Setup to time-out the huge outgoing item if host does not MT_AF_DATA_STORE it.
//  406       pMtAfDataReq->tick = MT_AF_EXEC_CNT;
??CrossCallReturnLabel_6:
        LCALL   ?Subroutine30 & 0xFFFF
//  407       if (ZSuccess != osal_start_timerEx(MT_TaskID, MT_AF_EXEC_EVT, MT_AF_EXEC_DLY))
??CrossCallReturnLabel_47:
        LCALL   ??osal_start_timerEx?relay
        MOV     A,R1
        JZ      ??MT_AfDataRequest_10
//  408       {
//  409         (void)osal_set_event(MT_TaskID, MT_AF_EXEC_EVT);
        ; Setup parameters for call to function osal_set_event
        MOV     R2,#0x8
        MOV     R3,#0x0
        MOV     DPTR,#MT_TaskID
        MOVX    A,@DPTR
        MOV     R1,A
        LCALL   ??osal_set_event?relay
        SJMP    ??MT_AfDataRequest_10
//  410       }
//  411     }
//  412   }
//  413   else
//  414   {
//  415     retValue = AF_DataRequest(&dstAddr, epDesc, cId, dataLen, pBuf, &transId, txOpts, radius);
??MT_AfDataRequest_6:
        ; Setup parameters for call to function AF_DataRequest
        MOV     R0,#?V0 + 3
        LCALL   ?PUSH_XSTACK_I_ONE
          CFI CFA_XSP16 add(XSP16, 35)
        MOV     A,#0x2
        LCALL   ?XSTACK_DISP0_8
        MOV     ?V0 + 6,DPL
        MOV     ?V0 + 7,DPH
        MOV     R0,#?V0 + 6
        LCALL   ?PUSH_XSTACK_I_TWO
          CFI CFA_XSP16 add(XSP16, 37)
        MOV     R0,#?V0 + 4
        LCALL   ?PUSH_XSTACK_I_TWO
          CFI CFA_XSP16 add(XSP16, 39)
        MOV     R0,#?V0 + 8
        LCALL   ?PUSH_XSTACK_I_TWO
          CFI CFA_XSP16 add(XSP16, 41)
        MOV     R0,#?V0 + 10
        LCALL   ?PUSH_XSTACK_I_TWO
          CFI CFA_XSP16 add(XSP16, 43)
        MOV     R1,?V0 + 2
        MOV     R4,?V0 + 0
        MOV     R5,?V0 + 1
        MOV     A,#0xb
        LCALL   ?XSTACK_DISP0_8
        MOV     R2,DPL
        MOV     R3,DPH
        LCALL   ??AF_DataRequest?relay
        MOV     A,#0x9
        LCALL   ?DEALLOC_XSTACK8
          CFI CFA_XSP16 add(XSP16, 34)
        MOV     A,R1
        MOV     DPL,?XSP + 0
        MOV     DPH,?XSP + 1
??MT_AfDataRequest_8:
        MOVX    @DPTR,A
//  416   }
//  417 
//  418   if (MT_RPC_CMD_SREQ == (cmd0 & MT_RPC_CMD_TYPE_MASK))
??MT_AfDataRequest_10:
        MOV     A,#-0x20
        ANL     A,R7
        XRL     A,#0x20
        JNZ     ??MT_AfDataRequest_11
//  419   {
//  420     MT_BuildAndSendZToolResponse(((uint8)MT_RPC_CMD_SRSP|(uint8)MT_RPC_SYS_AF), cmd1, 1, &retValue);
        ; Setup parameters for call to function MT_BuildAndSendZToolResponse
        MOV     DPL,?XSP + 0
        MOV     DPH,?XSP + 1
        MOV     R4,DPL
        MOV     R5,DPH
        MOV     R3,#0x1
        MOV     A,R6
        MOV     R2,A
        MOV     R1,#0x64
        LCALL   ??MT_BuildAndSendZToolResponse?relay
          CFI EndBlock cfiBlock4
//  421   }
//  422 }
??MT_AfDataRequest_11:
        REQUIRE ?Subroutine1
        ; // Fall through to label ?Subroutine1

        RSEG BANKED_CODE:CODE:NOROOT(0)
?Subroutine1:
          CFI Block cfiBlock5 Using cfiCommon0
          CFI NoFunction
          CFI CFA_SP SP+0
          CFI CFA_XSP16 add(XSP16, 34)
          CFI VB load(1, XDATA, add(CFA_XSP16, literal(-19)))
          CFI DPL0 load(1, XDATA, add(CFA_XSP16, literal(-2)))
          CFI DPH0 load(1, XDATA, add(CFA_XSP16, literal(-1)))
          CFI R6 load(1, XDATA, add(CFA_XSP16, literal(-20)))
          CFI R7 load(1, XDATA, add(CFA_XSP16, literal(-6)))
          CFI V0 load(1, XDATA, add(CFA_XSP16, literal(-18)))
          CFI V1 load(1, XDATA, add(CFA_XSP16, literal(-17)))
          CFI V2 load(1, XDATA, add(CFA_XSP16, literal(-16)))
          CFI V3 load(1, XDATA, add(CFA_XSP16, literal(-15)))
          CFI V4 load(1, XDATA, add(CFA_XSP16, literal(-14)))
          CFI V5 load(1, XDATA, add(CFA_XSP16, literal(-13)))
          CFI V6 load(1, XDATA, add(CFA_XSP16, literal(-12)))
          CFI V7 load(1, XDATA, add(CFA_XSP16, literal(-11)))
          CFI V8 load(1, XDATA, add(CFA_XSP16, literal(-10)))
          CFI V9 load(1, XDATA, add(CFA_XSP16, literal(-9)))
          CFI V10 load(1, XDATA, add(CFA_XSP16, literal(-8)))
          CFI V11 load(1, XDATA, add(CFA_XSP16, literal(-7)))
          CFI ?BRET_EXT load(1, XDATA, add(CFA_XSP16, literal(-3)))
          CFI ?RET_HIGH load(1, XDATA, add(CFA_XSP16, literal(-4)))
          CFI ?RET_LOW load(1, XDATA, add(CFA_XSP16, literal(-5)))
        MOV     A,#0xe
        LCALL   ?DEALLOC_XSTACK8
          CFI CFA_XSP16 add(XSP16, 20)
        MOV     R7,#0xc
        LJMP    ?BANKED_LEAVE_XDATA
          CFI EndBlock cfiBlock5

        RSEG BANKED_CODE:CODE:NOROOT(0)
?Subroutine28:
          CFI Block cfiCond6 Using cfiCommon0
          CFI Function MT_AfDataRequest
          CFI Conditional ??CrossCallReturnLabel_40
          CFI R6 load(1, XDATA, add(CFA_XSP16, literal(-20)))
          CFI VB load(1, XDATA, add(CFA_XSP16, literal(-19)))
          CFI V0 load(1, XDATA, add(CFA_XSP16, literal(-18)))
          CFI V1 load(1, XDATA, add(CFA_XSP16, literal(-17)))
          CFI V2 load(1, XDATA, add(CFA_XSP16, literal(-16)))
          CFI V3 load(1, XDATA, add(CFA_XSP16, literal(-15)))
          CFI V4 load(1, XDATA, add(CFA_XSP16, literal(-14)))
          CFI V5 load(1, XDATA, add(CFA_XSP16, literal(-13)))
          CFI V6 load(1, XDATA, add(CFA_XSP16, literal(-12)))
          CFI V7 load(1, XDATA, add(CFA_XSP16, literal(-11)))
          CFI V8 load(1, XDATA, add(CFA_XSP16, literal(-10)))
          CFI V9 load(1, XDATA, add(CFA_XSP16, literal(-9)))
          CFI V10 load(1, XDATA, add(CFA_XSP16, literal(-8)))
          CFI V11 load(1, XDATA, add(CFA_XSP16, literal(-7)))
          CFI R7 load(1, XDATA, add(CFA_XSP16, literal(-6)))
          CFI ?RET_LOW load(1, XDATA, add(CFA_XSP16, literal(-5)))
          CFI ?RET_HIGH load(1, XDATA, add(CFA_XSP16, literal(-4)))
          CFI ?BRET_EXT load(1, XDATA, add(CFA_XSP16, literal(-3)))
          CFI DPL0 load(1, XDATA, add(CFA_XSP16, literal(-2)))
          CFI DPH0 load(1, XDATA, add(CFA_XSP16, literal(-1)))
          CFI CFA_SP SP+0
          CFI CFA_XSP16 add(XSP16, 34)
          CFI Block cfiCond7 Using cfiCommon0
          CFI (cfiCond7) Function MT_AfDataRequest
          CFI (cfiCond7) Conditional ??CrossCallReturnLabel_41
          CFI (cfiCond7) R6 load(1, XDATA, add(CFA_XSP16, literal(-20)))
          CFI (cfiCond7) VB load(1, XDATA, add(CFA_XSP16, literal(-19)))
          CFI (cfiCond7) V0 load(1, XDATA, add(CFA_XSP16, literal(-18)))
          CFI (cfiCond7) V1 load(1, XDATA, add(CFA_XSP16, literal(-17)))
          CFI (cfiCond7) V2 load(1, XDATA, add(CFA_XSP16, literal(-16)))
          CFI (cfiCond7) V3 load(1, XDATA, add(CFA_XSP16, literal(-15)))
          CFI (cfiCond7) V4 load(1, XDATA, add(CFA_XSP16, literal(-14)))
          CFI (cfiCond7) V5 load(1, XDATA, add(CFA_XSP16, literal(-13)))
          CFI (cfiCond7) V6 load(1, XDATA, add(CFA_XSP16, literal(-12)))
          CFI (cfiCond7) V7 load(1, XDATA, add(CFA_XSP16, literal(-11)))
          CFI (cfiCond7) V8 load(1, XDATA, add(CFA_XSP16, literal(-10)))
          CFI (cfiCond7) V9 load(1, XDATA, add(CFA_XSP16, literal(-9)))
          CFI (cfiCond7) V10 load(1, XDATA, add(CFA_XSP16, literal(-8)))
          CFI (cfiCond7) V11 load(1, XDATA, add(CFA_XSP16, literal(-7)))
          CFI (cfiCond7) R7 load(1, XDATA, add(CFA_XSP16, literal(-6)))
          CFI (cfiCond7) ?RET_LOW load(1, XDATA, add(CFA_XSP16, literal(-5)))
          CFI (cfiCond7) ?RET_HIGH load(1, XDATA, add(CFA_XSP16, literal(-4)))
          CFI (cfiCond7) ?BRET_EXT load(1, XDATA, add(CFA_XSP16, literal(-3)))
          CFI (cfiCond7) DPL0 load(1, XDATA, add(CFA_XSP16, literal(-2)))
          CFI (cfiCond7) DPH0 load(1, XDATA, add(CFA_XSP16, literal(-1)))
          CFI (cfiCond7) CFA_SP SP+0
          CFI (cfiCond7) CFA_XSP16 add(XSP16, 34)
          CFI Block cfiCond8 Using cfiCommon0
          CFI (cfiCond8) Function MT_AfDataRequest
          CFI (cfiCond8) Conditional ??CrossCallReturnLabel_42
          CFI (cfiCond8) R6 load(1, XDATA, add(CFA_XSP16, literal(-20)))
          CFI (cfiCond8) VB load(1, XDATA, add(CFA_XSP16, literal(-19)))
          CFI (cfiCond8) V0 load(1, XDATA, add(CFA_XSP16, literal(-18)))
          CFI (cfiCond8) V1 load(1, XDATA, add(CFA_XSP16, literal(-17)))
          CFI (cfiCond8) V2 load(1, XDATA, add(CFA_XSP16, literal(-16)))
          CFI (cfiCond8) V3 load(1, XDATA, add(CFA_XSP16, literal(-15)))
          CFI (cfiCond8) V4 load(1, XDATA, add(CFA_XSP16, literal(-14)))
          CFI (cfiCond8) V5 load(1, XDATA, add(CFA_XSP16, literal(-13)))
          CFI (cfiCond8) V6 load(1, XDATA, add(CFA_XSP16, literal(-12)))
          CFI (cfiCond8) V7 load(1, XDATA, add(CFA_XSP16, literal(-11)))
          CFI (cfiCond8) V8 load(1, XDATA, add(CFA_XSP16, literal(-10)))
          CFI (cfiCond8) V9 load(1, XDATA, add(CFA_XSP16, literal(-9)))
          CFI (cfiCond8) V10 load(1, XDATA, add(CFA_XSP16, literal(-8)))
          CFI (cfiCond8) V11 load(1, XDATA, add(CFA_XSP16, literal(-7)))
          CFI (cfiCond8) R7 load(1, XDATA, add(CFA_XSP16, literal(-6)))
          CFI (cfiCond8) ?RET_LOW load(1, XDATA, add(CFA_XSP16, literal(-5)))
          CFI (cfiCond8) ?RET_HIGH load(1, XDATA, add(CFA_XSP16, literal(-4)))
          CFI (cfiCond8) ?BRET_EXT load(1, XDATA, add(CFA_XSP16, literal(-3)))
          CFI (cfiCond8) DPL0 load(1, XDATA, add(CFA_XSP16, literal(-2)))
          CFI (cfiCond8) DPH0 load(1, XDATA, add(CFA_XSP16, literal(-1)))
          CFI (cfiCond8) CFA_SP SP+0
          CFI (cfiCond8) CFA_XSP16 add(XSP16, 34)
          CFI Block cfiPicker9 Using cfiCommon1
          CFI (cfiPicker9) NoFunction
          CFI (cfiPicker9) Picker
        LCALL   ?Subroutine39 & 0xFFFF
??CrossCallReturnLabel_69:
        MOV     ?V0 + 4,DPL
        MOV     ?V0 + 5,DPH
        RET
          CFI EndBlock cfiCond6
          CFI EndBlock cfiCond7
          CFI EndBlock cfiCond8
          CFI EndBlock cfiPicker9

        RSEG BANKED_CODE:CODE:NOROOT(0)
?Subroutine39:
          CFI Block cfiCond10 Using cfiCommon0
          CFI Function MT_AfDataRequest
          CFI Conditional ??CrossCallReturnLabel_68
          CFI R6 load(1, XDATA, add(CFA_XSP16, literal(-20)))
          CFI VB load(1, XDATA, add(CFA_XSP16, literal(-19)))
          CFI V0 load(1, XDATA, add(CFA_XSP16, literal(-18)))
          CFI V1 load(1, XDATA, add(CFA_XSP16, literal(-17)))
          CFI V2 load(1, XDATA, add(CFA_XSP16, literal(-16)))
          CFI V3 load(1, XDATA, add(CFA_XSP16, literal(-15)))
          CFI V4 load(1, XDATA, add(CFA_XSP16, literal(-14)))
          CFI V5 load(1, XDATA, add(CFA_XSP16, literal(-13)))
          CFI V6 load(1, XDATA, add(CFA_XSP16, literal(-12)))
          CFI V7 load(1, XDATA, add(CFA_XSP16, literal(-11)))
          CFI V8 load(1, XDATA, add(CFA_XSP16, literal(-10)))
          CFI V9 load(1, XDATA, add(CFA_XSP16, literal(-9)))
          CFI V10 load(1, XDATA, add(CFA_XSP16, literal(-8)))
          CFI V11 load(1, XDATA, add(CFA_XSP16, literal(-7)))
          CFI R7 load(1, XDATA, add(CFA_XSP16, literal(-6)))
          CFI ?RET_LOW load(1, XDATA, add(CFA_XSP16, literal(-5)))
          CFI ?RET_HIGH load(1, XDATA, add(CFA_XSP16, literal(-4)))
          CFI ?BRET_EXT load(1, XDATA, add(CFA_XSP16, literal(-3)))
          CFI DPL0 load(1, XDATA, add(CFA_XSP16, literal(-2)))
          CFI DPH0 load(1, XDATA, add(CFA_XSP16, literal(-1)))
          CFI CFA_SP SP+0
          CFI CFA_XSP16 add(XSP16, 34)
          CFI Block cfiCond11 Using cfiCommon0
          CFI (cfiCond11) Function MT_AfDataRequest
          CFI (cfiCond11) Conditional ??CrossCallReturnLabel_69, ??CrossCallReturnLabel_40
          CFI (cfiCond11) R6 load(1, XDATA, add(CFA_XSP16, literal(-20)))
          CFI (cfiCond11) VB load(1, XDATA, add(CFA_XSP16, literal(-19)))
          CFI (cfiCond11) V0 load(1, XDATA, add(CFA_XSP16, literal(-18)))
          CFI (cfiCond11) V1 load(1, XDATA, add(CFA_XSP16, literal(-17)))
          CFI (cfiCond11) V2 load(1, XDATA, add(CFA_XSP16, literal(-16)))
          CFI (cfiCond11) V3 load(1, XDATA, add(CFA_XSP16, literal(-15)))
          CFI (cfiCond11) V4 load(1, XDATA, add(CFA_XSP16, literal(-14)))
          CFI (cfiCond11) V5 load(1, XDATA, add(CFA_XSP16, literal(-13)))
          CFI (cfiCond11) V6 load(1, XDATA, add(CFA_XSP16, literal(-12)))
          CFI (cfiCond11) V7 load(1, XDATA, add(CFA_XSP16, literal(-11)))
          CFI (cfiCond11) V8 load(1, XDATA, add(CFA_XSP16, literal(-10)))
          CFI (cfiCond11) V9 load(1, XDATA, add(CFA_XSP16, literal(-9)))
          CFI (cfiCond11) V10 load(1, XDATA, add(CFA_XSP16, literal(-8)))
          CFI (cfiCond11) V11 load(1, XDATA, add(CFA_XSP16, literal(-7)))
          CFI (cfiCond11) R7 load(1, XDATA, add(CFA_XSP16, literal(-6)))
          CFI (cfiCond11) ?RET_LOW load(1, XDATA, add(CFA_XSP16, literal(-5)))
          CFI (cfiCond11) ?RET_HIGH load(1, XDATA, add(CFA_XSP16, literal(-4)))
          CFI (cfiCond11) ?BRET_EXT load(1, XDATA, add(CFA_XSP16, literal(-3)))
          CFI (cfiCond11) DPL0 load(1, XDATA, add(CFA_XSP16, literal(-2)))
          CFI (cfiCond11) DPH0 load(1, XDATA, add(CFA_XSP16, literal(-1)))
          CFI (cfiCond11) CFA_SP SP+0
          CFI (cfiCond11) CFA_XSP16 add(XSP16, 34)
          CFI Block cfiCond12 Using cfiCommon0
          CFI (cfiCond12) Function MT_AfDataRequest
          CFI (cfiCond12) Conditional ??CrossCallReturnLabel_69, ??CrossCallReturnLabel_41
          CFI (cfiCond12) R6 load(1, XDATA, add(CFA_XSP16, literal(-20)))
          CFI (cfiCond12) VB load(1, XDATA, add(CFA_XSP16, literal(-19)))
          CFI (cfiCond12) V0 load(1, XDATA, add(CFA_XSP16, literal(-18)))
          CFI (cfiCond12) V1 load(1, XDATA, add(CFA_XSP16, literal(-17)))
          CFI (cfiCond12) V2 load(1, XDATA, add(CFA_XSP16, literal(-16)))
          CFI (cfiCond12) V3 load(1, XDATA, add(CFA_XSP16, literal(-15)))
          CFI (cfiCond12) V4 load(1, XDATA, add(CFA_XSP16, literal(-14)))
          CFI (cfiCond12) V5 load(1, XDATA, add(CFA_XSP16, literal(-13)))
          CFI (cfiCond12) V6 load(1, XDATA, add(CFA_XSP16, literal(-12)))
          CFI (cfiCond12) V7 load(1, XDATA, add(CFA_XSP16, literal(-11)))
          CFI (cfiCond12) V8 load(1, XDATA, add(CFA_XSP16, literal(-10)))
          CFI (cfiCond12) V9 load(1, XDATA, add(CFA_XSP16, literal(-9)))
          CFI (cfiCond12) V10 load(1, XDATA, add(CFA_XSP16, literal(-8)))
          CFI (cfiCond12) V11 load(1, XDATA, add(CFA_XSP16, literal(-7)))
          CFI (cfiCond12) R7 load(1, XDATA, add(CFA_XSP16, literal(-6)))
          CFI (cfiCond12) ?RET_LOW load(1, XDATA, add(CFA_XSP16, literal(-5)))
          CFI (cfiCond12) ?RET_HIGH load(1, XDATA, add(CFA_XSP16, literal(-4)))
          CFI (cfiCond12) ?BRET_EXT load(1, XDATA, add(CFA_XSP16, literal(-3)))
          CFI (cfiCond12) DPL0 load(1, XDATA, add(CFA_XSP16, literal(-2)))
          CFI (cfiCond12) DPH0 load(1, XDATA, add(CFA_XSP16, literal(-1)))
          CFI (cfiCond12) CFA_SP SP+0
          CFI (cfiCond12) CFA_XSP16 add(XSP16, 34)
          CFI Block cfiCond13 Using cfiCommon0
          CFI (cfiCond13) Function MT_AfDataRequest
          CFI (cfiCond13) Conditional ??CrossCallReturnLabel_69, ??CrossCallReturnLabel_42
          CFI (cfiCond13) R6 load(1, XDATA, add(CFA_XSP16, literal(-20)))
          CFI (cfiCond13) VB load(1, XDATA, add(CFA_XSP16, literal(-19)))
          CFI (cfiCond13) V0 load(1, XDATA, add(CFA_XSP16, literal(-18)))
          CFI (cfiCond13) V1 load(1, XDATA, add(CFA_XSP16, literal(-17)))
          CFI (cfiCond13) V2 load(1, XDATA, add(CFA_XSP16, literal(-16)))
          CFI (cfiCond13) V3 load(1, XDATA, add(CFA_XSP16, literal(-15)))
          CFI (cfiCond13) V4 load(1, XDATA, add(CFA_XSP16, literal(-14)))
          CFI (cfiCond13) V5 load(1, XDATA, add(CFA_XSP16, literal(-13)))
          CFI (cfiCond13) V6 load(1, XDATA, add(CFA_XSP16, literal(-12)))
          CFI (cfiCond13) V7 load(1, XDATA, add(CFA_XSP16, literal(-11)))
          CFI (cfiCond13) V8 load(1, XDATA, add(CFA_XSP16, literal(-10)))
          CFI (cfiCond13) V9 load(1, XDATA, add(CFA_XSP16, literal(-9)))
          CFI (cfiCond13) V10 load(1, XDATA, add(CFA_XSP16, literal(-8)))
          CFI (cfiCond13) V11 load(1, XDATA, add(CFA_XSP16, literal(-7)))
          CFI (cfiCond13) R7 load(1, XDATA, add(CFA_XSP16, literal(-6)))
          CFI (cfiCond13) ?RET_LOW load(1, XDATA, add(CFA_XSP16, literal(-5)))
          CFI (cfiCond13) ?RET_HIGH load(1, XDATA, add(CFA_XSP16, literal(-4)))
          CFI (cfiCond13) ?BRET_EXT load(1, XDATA, add(CFA_XSP16, literal(-3)))
          CFI (cfiCond13) DPL0 load(1, XDATA, add(CFA_XSP16, literal(-2)))
          CFI (cfiCond13) DPH0 load(1, XDATA, add(CFA_XSP16, literal(-1)))
          CFI (cfiCond13) CFA_SP SP+0
          CFI (cfiCond13) CFA_XSP16 add(XSP16, 34)
          CFI Block cfiCond14 Using cfiCommon0
          CFI (cfiCond14) Function MT_AfDataRequestSrcRtg
          CFI (cfiCond14) Conditional ??CrossCallReturnLabel_70, ??CrossCallReturnLabel_58
          CFI (cfiCond14) R6 load(1, XDATA, add(CFA_XSP16, literal(-20)))
          CFI (cfiCond14) VB load(1, XDATA, add(CFA_XSP16, literal(-19)))
          CFI (cfiCond14) V0 load(1, XDATA, add(CFA_XSP16, literal(-18)))
          CFI (cfiCond14) V1 load(1, XDATA, add(CFA_XSP16, literal(-17)))
          CFI (cfiCond14) V2 load(1, XDATA, add(CFA_XSP16, literal(-16)))
          CFI (cfiCond14) V3 load(1, XDATA, add(CFA_XSP16, literal(-15)))
          CFI (cfiCond14) V4 load(1, XDATA, add(CFA_XSP16, literal(-14)))
          CFI (cfiCond14) V5 load(1, XDATA, add(CFA_XSP16, literal(-13)))
          CFI (cfiCond14) V6 load(1, XDATA, add(CFA_XSP16, literal(-12)))
          CFI (cfiCond14) V7 load(1, XDATA, add(CFA_XSP16, literal(-11)))
          CFI (cfiCond14) V8 load(1, XDATA, add(CFA_XSP16, literal(-10)))
          CFI (cfiCond14) V9 load(1, XDATA, add(CFA_XSP16, literal(-9)))
          CFI (cfiCond14) V10 load(1, XDATA, add(CFA_XSP16, literal(-8)))
          CFI (cfiCond14) V11 load(1, XDATA, add(CFA_XSP16, literal(-7)))
          CFI (cfiCond14) R7 load(1, XDATA, add(CFA_XSP16, literal(-6)))
          CFI (cfiCond14) ?RET_LOW load(1, XDATA, add(CFA_XSP16, literal(-5)))
          CFI (cfiCond14) ?RET_HIGH load(1, XDATA, add(CFA_XSP16, literal(-4)))
          CFI (cfiCond14) ?BRET_EXT load(1, XDATA, add(CFA_XSP16, literal(-3)))
          CFI (cfiCond14) DPL0 load(1, XDATA, add(CFA_XSP16, literal(-2)))
          CFI (cfiCond14) DPH0 load(1, XDATA, add(CFA_XSP16, literal(-1)))
          CFI (cfiCond14) CFA_SP SP+0
          CFI (cfiCond14) CFA_XSP16 add(XSP16, 34)
          CFI Block cfiCond15 Using cfiCommon0
          CFI (cfiCond15) Function MT_AfDataRequestSrcRtg
          CFI (cfiCond15) Conditional ??CrossCallReturnLabel_70, ??CrossCallReturnLabel_59
          CFI (cfiCond15) R6 load(1, XDATA, add(CFA_XSP16, literal(-20)))
          CFI (cfiCond15) VB load(1, XDATA, add(CFA_XSP16, literal(-19)))
          CFI (cfiCond15) V0 load(1, XDATA, add(CFA_XSP16, literal(-18)))
          CFI (cfiCond15) V1 load(1, XDATA, add(CFA_XSP16, literal(-17)))
          CFI (cfiCond15) V2 load(1, XDATA, add(CFA_XSP16, literal(-16)))
          CFI (cfiCond15) V3 load(1, XDATA, add(CFA_XSP16, literal(-15)))
          CFI (cfiCond15) V4 load(1, XDATA, add(CFA_XSP16, literal(-14)))
          CFI (cfiCond15) V5 load(1, XDATA, add(CFA_XSP16, literal(-13)))
          CFI (cfiCond15) V6 load(1, XDATA, add(CFA_XSP16, literal(-12)))
          CFI (cfiCond15) V7 load(1, XDATA, add(CFA_XSP16, literal(-11)))
          CFI (cfiCond15) V8 load(1, XDATA, add(CFA_XSP16, literal(-10)))
          CFI (cfiCond15) V9 load(1, XDATA, add(CFA_XSP16, literal(-9)))
          CFI (cfiCond15) V10 load(1, XDATA, add(CFA_XSP16, literal(-8)))
          CFI (cfiCond15) V11 load(1, XDATA, add(CFA_XSP16, literal(-7)))
          CFI (cfiCond15) R7 load(1, XDATA, add(CFA_XSP16, literal(-6)))
          CFI (cfiCond15) ?RET_LOW load(1, XDATA, add(CFA_XSP16, literal(-5)))
          CFI (cfiCond15) ?RET_HIGH load(1, XDATA, add(CFA_XSP16, literal(-4)))
          CFI (cfiCond15) ?BRET_EXT load(1, XDATA, add(CFA_XSP16, literal(-3)))
          CFI (cfiCond15) DPL0 load(1, XDATA, add(CFA_XSP16, literal(-2)))
          CFI (cfiCond15) DPH0 load(1, XDATA, add(CFA_XSP16, literal(-1)))
          CFI (cfiCond15) CFA_SP SP+0
          CFI (cfiCond15) CFA_XSP16 add(XSP16, 34)
          CFI Block cfiPicker16 Using cfiCommon1
          CFI (cfiPicker16) NoFunction
          CFI (cfiPicker16) Picker
        MOVX    @DPTR,A
        MOV     DPL,?V0 + 4
        MOV     DPH,?V0 + 5
        INC     DPTR
        RET
          CFI EndBlock cfiCond10
          CFI EndBlock cfiCond11
          CFI EndBlock cfiCond12
          CFI EndBlock cfiCond13
          CFI EndBlock cfiCond14
          CFI EndBlock cfiCond15
          CFI EndBlock cfiPicker16

        RSEG BANKED_CODE:CODE:NOROOT(0)
?Subroutine8:
          CFI Block cfiCond17 Using cfiCommon0
          CFI Function MT_AfExec
          CFI Conditional ??CrossCallReturnLabel_7
          CFI R6 load(1, XDATA, add(CFA_XSP16, literal(-9)))
          CFI VB load(1, XDATA, add(CFA_XSP16, literal(-8)))
          CFI V0 load(1, XDATA, add(CFA_XSP16, literal(-7)))
          CFI R7 load(1, XDATA, add(CFA_XSP16, literal(-6)))
          CFI ?RET_LOW load(1, XDATA, add(CFA_XSP16, literal(-5)))
          CFI ?RET_HIGH load(1, XDATA, add(CFA_XSP16, literal(-4)))
          CFI ?BRET_EXT load(1, XDATA, add(CFA_XSP16, literal(-3)))
          CFI DPL0 load(1, XDATA, add(CFA_XSP16, literal(-2)))
          CFI DPH0 load(1, XDATA, add(CFA_XSP16, literal(-1)))
          CFI CFA_SP SP+0
          CFI CFA_XSP16 add(XSP16, 9)
          CFI Block cfiCond18 Using cfiCommon0
          CFI (cfiCond18) Function MT_AfDataRequest
          CFI (cfiCond18) Conditional ??CrossCallReturnLabel_6
          CFI (cfiCond18) R6 load(1, XDATA, add(CFA_XSP16, literal(-20)))
          CFI (cfiCond18) VB load(1, XDATA, add(CFA_XSP16, literal(-19)))
          CFI (cfiCond18) V0 load(1, XDATA, add(CFA_XSP16, literal(-18)))
          CFI (cfiCond18) V1 load(1, XDATA, add(CFA_XSP16, literal(-17)))
          CFI (cfiCond18) V2 load(1, XDATA, add(CFA_XSP16, literal(-16)))
          CFI (cfiCond18) V3 load(1, XDATA, add(CFA_XSP16, literal(-15)))
          CFI (cfiCond18) V4 load(1, XDATA, add(CFA_XSP16, literal(-14)))
          CFI (cfiCond18) V5 load(1, XDATA, add(CFA_XSP16, literal(-13)))
          CFI (cfiCond18) V6 load(1, XDATA, add(CFA_XSP16, literal(-12)))
          CFI (cfiCond18) V7 load(1, XDATA, add(CFA_XSP16, literal(-11)))
          CFI (cfiCond18) V8 load(1, XDATA, add(CFA_XSP16, literal(-10)))
          CFI (cfiCond18) V9 load(1, XDATA, add(CFA_XSP16, literal(-9)))
          CFI (cfiCond18) V10 load(1, XDATA, add(CFA_XSP16, literal(-8)))
          CFI (cfiCond18) V11 load(1, XDATA, add(CFA_XSP16, literal(-7)))
          CFI (cfiCond18) R7 load(1, XDATA, add(CFA_XSP16, literal(-6)))
          CFI (cfiCond18) ?RET_LOW load(1, XDATA, add(CFA_XSP16, literal(-5)))
          CFI (cfiCond18) ?RET_HIGH load(1, XDATA, add(CFA_XSP16, literal(-4)))
          CFI (cfiCond18) ?BRET_EXT load(1, XDATA, add(CFA_XSP16, literal(-3)))
          CFI (cfiCond18) DPL0 load(1, XDATA, add(CFA_XSP16, literal(-2)))
          CFI (cfiCond18) DPH0 load(1, XDATA, add(CFA_XSP16, literal(-1)))
          CFI (cfiCond18) CFA_SP SP+0
          CFI (cfiCond18) CFA_XSP16 add(XSP16, 34)
          CFI Block cfiPicker19 Using cfiCommon1
          CFI (cfiPicker19) NoFunction
          CFI (cfiPicker19) Picker
        MOVX    @DPTR,A
        LCALL   ?Subroutine40 & 0xFFFF
??CrossCallReturnLabel_72:
        ADD     A,#0x17
        LCALL   ?Subroutine42 & 0xFFFF
??CrossCallReturnLabel_134:
        RET
          CFI EndBlock cfiCond17
          CFI EndBlock cfiCond18
          CFI EndBlock cfiPicker19

        RSEG BANKED_CODE:CODE:NOROOT(0)
?Subroutine3:
          CFI Block cfiCond20 Using cfiCommon0
          CFI Function MT_AfExec
          CFI Conditional ??CrossCallReturnLabel_81
          CFI R6 load(1, XDATA, add(CFA_XSP16, literal(-9)))
          CFI VB load(1, XDATA, add(CFA_XSP16, literal(-8)))
          CFI V0 load(1, XDATA, add(CFA_XSP16, literal(-7)))
          CFI R7 load(1, XDATA, add(CFA_XSP16, literal(-6)))
          CFI ?RET_LOW load(1, XDATA, add(CFA_XSP16, literal(-5)))
          CFI ?RET_HIGH load(1, XDATA, add(CFA_XSP16, literal(-4)))
          CFI ?BRET_EXT load(1, XDATA, add(CFA_XSP16, literal(-3)))
          CFI DPL0 load(1, XDATA, add(CFA_XSP16, literal(-2)))
          CFI DPH0 load(1, XDATA, add(CFA_XSP16, literal(-1)))
          CFI CFA_SP SP+0
          CFI CFA_XSP16 add(XSP16, 9)
          CFI Block cfiCond21 Using cfiCommon0
          CFI (cfiCond21) Function MT_AfExec
          CFI (cfiCond21) Conditional ??CrossCallReturnLabel_82
          CFI (cfiCond21) R6 load(1, XDATA, add(CFA_XSP16, literal(-9)))
          CFI (cfiCond21) VB load(1, XDATA, add(CFA_XSP16, literal(-8)))
          CFI (cfiCond21) V0 load(1, XDATA, add(CFA_XSP16, literal(-7)))
          CFI (cfiCond21) R7 load(1, XDATA, add(CFA_XSP16, literal(-6)))
          CFI (cfiCond21) ?RET_LOW load(1, XDATA, add(CFA_XSP16, literal(-5)))
          CFI (cfiCond21) ?RET_HIGH load(1, XDATA, add(CFA_XSP16, literal(-4)))
          CFI (cfiCond21) ?BRET_EXT load(1, XDATA, add(CFA_XSP16, literal(-3)))
          CFI (cfiCond21) DPL0 load(1, XDATA, add(CFA_XSP16, literal(-2)))
          CFI (cfiCond21) DPH0 load(1, XDATA, add(CFA_XSP16, literal(-1)))
          CFI (cfiCond21) CFA_SP SP+0
          CFI (cfiCond21) CFA_XSP16 add(XSP16, 9)
          CFI Block cfiCond22 Using cfiCommon0
          CFI (cfiCond22) Function MT_AfDataRequest
          CFI (cfiCond22) Conditional ??CrossCallReturnLabel_83
          CFI (cfiCond22) R6 load(1, XDATA, add(CFA_XSP16, literal(-20)))
          CFI (cfiCond22) VB load(1, XDATA, add(CFA_XSP16, literal(-19)))
          CFI (cfiCond22) V0 load(1, XDATA, add(CFA_XSP16, literal(-18)))
          CFI (cfiCond22) V1 load(1, XDATA, add(CFA_XSP16, literal(-17)))
          CFI (cfiCond22) V2 load(1, XDATA, add(CFA_XSP16, literal(-16)))
          CFI (cfiCond22) V3 load(1, XDATA, add(CFA_XSP16, literal(-15)))
          CFI (cfiCond22) V4 load(1, XDATA, add(CFA_XSP16, literal(-14)))
          CFI (cfiCond22) V5 load(1, XDATA, add(CFA_XSP16, literal(-13)))
          CFI (cfiCond22) V6 load(1, XDATA, add(CFA_XSP16, literal(-12)))
          CFI (cfiCond22) V7 load(1, XDATA, add(CFA_XSP16, literal(-11)))
          CFI (cfiCond22) V8 load(1, XDATA, add(CFA_XSP16, literal(-10)))
          CFI (cfiCond22) V9 load(1, XDATA, add(CFA_XSP16, literal(-9)))
          CFI (cfiCond22) V10 load(1, XDATA, add(CFA_XSP16, literal(-8)))
          CFI (cfiCond22) V11 load(1, XDATA, add(CFA_XSP16, literal(-7)))
          CFI (cfiCond22) R7 load(1, XDATA, add(CFA_XSP16, literal(-6)))
          CFI (cfiCond22) ?RET_LOW load(1, XDATA, add(CFA_XSP16, literal(-5)))
          CFI (cfiCond22) ?RET_HIGH load(1, XDATA, add(CFA_XSP16, literal(-4)))
          CFI (cfiCond22) ?BRET_EXT load(1, XDATA, add(CFA_XSP16, literal(-3)))
          CFI (cfiCond22) DPL0 load(1, XDATA, add(CFA_XSP16, literal(-2)))
          CFI (cfiCond22) DPH0 load(1, XDATA, add(CFA_XSP16, literal(-1)))
          CFI (cfiCond22) CFA_SP SP+0
          CFI (cfiCond22) CFA_XSP16 add(XSP16, 34)
          CFI Block cfiCond23 Using cfiCommon0
          CFI (cfiCond23) Function MT_AfDataRequest
          CFI (cfiCond23) Conditional ??CrossCallReturnLabel_84
          CFI (cfiCond23) R6 load(1, XDATA, add(CFA_XSP16, literal(-20)))
          CFI (cfiCond23) VB load(1, XDATA, add(CFA_XSP16, literal(-19)))
          CFI (cfiCond23) V0 load(1, XDATA, add(CFA_XSP16, literal(-18)))
          CFI (cfiCond23) V1 load(1, XDATA, add(CFA_XSP16, literal(-17)))
          CFI (cfiCond23) V2 load(1, XDATA, add(CFA_XSP16, literal(-16)))
          CFI (cfiCond23) V3 load(1, XDATA, add(CFA_XSP16, literal(-15)))
          CFI (cfiCond23) V4 load(1, XDATA, add(CFA_XSP16, literal(-14)))
          CFI (cfiCond23) V5 load(1, XDATA, add(CFA_XSP16, literal(-13)))
          CFI (cfiCond23) V6 load(1, XDATA, add(CFA_XSP16, literal(-12)))
          CFI (cfiCond23) V7 load(1, XDATA, add(CFA_XSP16, literal(-11)))
          CFI (cfiCond23) V8 load(1, XDATA, add(CFA_XSP16, literal(-10)))
          CFI (cfiCond23) V9 load(1, XDATA, add(CFA_XSP16, literal(-9)))
          CFI (cfiCond23) V10 load(1, XDATA, add(CFA_XSP16, literal(-8)))
          CFI (cfiCond23) V11 load(1, XDATA, add(CFA_XSP16, literal(-7)))
          CFI (cfiCond23) R7 load(1, XDATA, add(CFA_XSP16, literal(-6)))
          CFI (cfiCond23) ?RET_LOW load(1, XDATA, add(CFA_XSP16, literal(-5)))
          CFI (cfiCond23) ?RET_HIGH load(1, XDATA, add(CFA_XSP16, literal(-4)))
          CFI (cfiCond23) ?BRET_EXT load(1, XDATA, add(CFA_XSP16, literal(-3)))
          CFI (cfiCond23) DPL0 load(1, XDATA, add(CFA_XSP16, literal(-2)))
          CFI (cfiCond23) DPH0 load(1, XDATA, add(CFA_XSP16, literal(-1)))
          CFI (cfiCond23) CFA_SP SP+0
          CFI (cfiCond23) CFA_XSP16 add(XSP16, 34)
          CFI Block cfiCond24 Using cfiCommon0
          CFI (cfiCond24) Function MT_AfDataStore
          CFI (cfiCond24) Conditional ??CrossCallReturnLabel_85
          CFI (cfiCond24) R6 load(1, XDATA, add(CFA_XSP16, literal(-11)))
          CFI (cfiCond24) VB load(1, XDATA, add(CFA_XSP16, literal(-10)))
          CFI (cfiCond24) V0 load(1, XDATA, add(CFA_XSP16, literal(-9)))
          CFI (cfiCond24) V1 load(1, XDATA, add(CFA_XSP16, literal(-8)))
          CFI (cfiCond24) V2 load(1, XDATA, add(CFA_XSP16, literal(-7)))
          CFI (cfiCond24) R7 load(1, XDATA, add(CFA_XSP16, literal(-6)))
          CFI (cfiCond24) ?RET_LOW load(1, XDATA, add(CFA_XSP16, literal(-5)))
          CFI (cfiCond24) ?RET_HIGH load(1, XDATA, add(CFA_XSP16, literal(-4)))
          CFI (cfiCond24) ?BRET_EXT load(1, XDATA, add(CFA_XSP16, literal(-3)))
          CFI (cfiCond24) DPL0 load(1, XDATA, add(CFA_XSP16, literal(-2)))
          CFI (cfiCond24) DPH0 load(1, XDATA, add(CFA_XSP16, literal(-1)))
          CFI (cfiCond24) CFA_SP SP+0
          CFI (cfiCond24) CFA_XSP16 add(XSP16, 12)
          CFI Block cfiPicker25 Using cfiCommon1
          CFI (cfiPicker25) NoFunction
          CFI (cfiPicker25) Picker
        MOV     DPTR,#pMtAfDataReq
          CFI EndBlock cfiCond20
          CFI EndBlock cfiCond21
          CFI EndBlock cfiCond22
          CFI EndBlock cfiCond23
          CFI EndBlock cfiCond24
          CFI EndBlock cfiPicker25
        REQUIRE ??Subroutine45_0
        ; // Fall through to label ??Subroutine45_0

        RSEG BANKED_CODE:CODE:NOROOT(0)
??Subroutine45_0:
          CFI Block cfiCond26 Using cfiCommon0
          CFI Function MT_AfExec
          CFI Conditional ??CrossCallReturnLabel_80
          CFI R6 load(1, XDATA, add(CFA_XSP16, literal(-9)))
          CFI VB load(1, XDATA, add(CFA_XSP16, literal(-8)))
          CFI V0 load(1, XDATA, add(CFA_XSP16, literal(-7)))
          CFI R7 load(1, XDATA, add(CFA_XSP16, literal(-6)))
          CFI ?RET_LOW load(1, XDATA, add(CFA_XSP16, literal(-5)))
          CFI ?RET_HIGH load(1, XDATA, add(CFA_XSP16, literal(-4)))
          CFI ?BRET_EXT load(1, XDATA, add(CFA_XSP16, literal(-3)))
          CFI DPL0 load(1, XDATA, add(CFA_XSP16, literal(-2)))
          CFI DPH0 load(1, XDATA, add(CFA_XSP16, literal(-1)))
          CFI CFA_SP SP+0
          CFI CFA_XSP16 add(XSP16, 9)
          CFI Block cfiCond27 Using cfiCommon0
          CFI (cfiCond27) Function MT_AfExec
          CFI (cfiCond27) Conditional ??CrossCallReturnLabel_81
          CFI (cfiCond27) R6 load(1, XDATA, add(CFA_XSP16, literal(-9)))
          CFI (cfiCond27) VB load(1, XDATA, add(CFA_XSP16, literal(-8)))
          CFI (cfiCond27) V0 load(1, XDATA, add(CFA_XSP16, literal(-7)))
          CFI (cfiCond27) R7 load(1, XDATA, add(CFA_XSP16, literal(-6)))
          CFI (cfiCond27) ?RET_LOW load(1, XDATA, add(CFA_XSP16, literal(-5)))
          CFI (cfiCond27) ?RET_HIGH load(1, XDATA, add(CFA_XSP16, literal(-4)))
          CFI (cfiCond27) ?BRET_EXT load(1, XDATA, add(CFA_XSP16, literal(-3)))
          CFI (cfiCond27) DPL0 load(1, XDATA, add(CFA_XSP16, literal(-2)))
          CFI (cfiCond27) DPH0 load(1, XDATA, add(CFA_XSP16, literal(-1)))
          CFI (cfiCond27) CFA_SP SP+0
          CFI (cfiCond27) CFA_XSP16 add(XSP16, 9)
          CFI Block cfiCond28 Using cfiCommon0
          CFI (cfiCond28) Function MT_AfExec
          CFI (cfiCond28) Conditional ??CrossCallReturnLabel_82
          CFI (cfiCond28) R6 load(1, XDATA, add(CFA_XSP16, literal(-9)))
          CFI (cfiCond28) VB load(1, XDATA, add(CFA_XSP16, literal(-8)))
          CFI (cfiCond28) V0 load(1, XDATA, add(CFA_XSP16, literal(-7)))
          CFI (cfiCond28) R7 load(1, XDATA, add(CFA_XSP16, literal(-6)))
          CFI (cfiCond28) ?RET_LOW load(1, XDATA, add(CFA_XSP16, literal(-5)))
          CFI (cfiCond28) ?RET_HIGH load(1, XDATA, add(CFA_XSP16, literal(-4)))
          CFI (cfiCond28) ?BRET_EXT load(1, XDATA, add(CFA_XSP16, literal(-3)))
          CFI (cfiCond28) DPL0 load(1, XDATA, add(CFA_XSP16, literal(-2)))
          CFI (cfiCond28) DPH0 load(1, XDATA, add(CFA_XSP16, literal(-1)))
          CFI (cfiCond28) CFA_SP SP+0
          CFI (cfiCond28) CFA_XSP16 add(XSP16, 9)
          CFI Block cfiCond29 Using cfiCommon0
          CFI (cfiCond29) Function MT_AfDataRequest
          CFI (cfiCond29) Conditional ??CrossCallReturnLabel_83
          CFI (cfiCond29) R6 load(1, XDATA, add(CFA_XSP16, literal(-20)))
          CFI (cfiCond29) VB load(1, XDATA, add(CFA_XSP16, literal(-19)))
          CFI (cfiCond29) V0 load(1, XDATA, add(CFA_XSP16, literal(-18)))
          CFI (cfiCond29) V1 load(1, XDATA, add(CFA_XSP16, literal(-17)))
          CFI (cfiCond29) V2 load(1, XDATA, add(CFA_XSP16, literal(-16)))
          CFI (cfiCond29) V3 load(1, XDATA, add(CFA_XSP16, literal(-15)))
          CFI (cfiCond29) V4 load(1, XDATA, add(CFA_XSP16, literal(-14)))
          CFI (cfiCond29) V5 load(1, XDATA, add(CFA_XSP16, literal(-13)))
          CFI (cfiCond29) V6 load(1, XDATA, add(CFA_XSP16, literal(-12)))
          CFI (cfiCond29) V7 load(1, XDATA, add(CFA_XSP16, literal(-11)))
          CFI (cfiCond29) V8 load(1, XDATA, add(CFA_XSP16, literal(-10)))
          CFI (cfiCond29) V9 load(1, XDATA, add(CFA_XSP16, literal(-9)))
          CFI (cfiCond29) V10 load(1, XDATA, add(CFA_XSP16, literal(-8)))
          CFI (cfiCond29) V11 load(1, XDATA, add(CFA_XSP16, literal(-7)))
          CFI (cfiCond29) R7 load(1, XDATA, add(CFA_XSP16, literal(-6)))
          CFI (cfiCond29) ?RET_LOW load(1, XDATA, add(CFA_XSP16, literal(-5)))
          CFI (cfiCond29) ?RET_HIGH load(1, XDATA, add(CFA_XSP16, literal(-4)))
          CFI (cfiCond29) ?BRET_EXT load(1, XDATA, add(CFA_XSP16, literal(-3)))
          CFI (cfiCond29) DPL0 load(1, XDATA, add(CFA_XSP16, literal(-2)))
          CFI (cfiCond29) DPH0 load(1, XDATA, add(CFA_XSP16, literal(-1)))
          CFI (cfiCond29) CFA_SP SP+0
          CFI (cfiCond29) CFA_XSP16 add(XSP16, 34)
          CFI Block cfiCond30 Using cfiCommon0
          CFI (cfiCond30) Function MT_AfDataRequest
          CFI (cfiCond30) Conditional ??CrossCallReturnLabel_84
          CFI (cfiCond30) R6 load(1, XDATA, add(CFA_XSP16, literal(-20)))
          CFI (cfiCond30) VB load(1, XDATA, add(CFA_XSP16, literal(-19)))
          CFI (cfiCond30) V0 load(1, XDATA, add(CFA_XSP16, literal(-18)))
          CFI (cfiCond30) V1 load(1, XDATA, add(CFA_XSP16, literal(-17)))
          CFI (cfiCond30) V2 load(1, XDATA, add(CFA_XSP16, literal(-16)))
          CFI (cfiCond30) V3 load(1, XDATA, add(CFA_XSP16, literal(-15)))
          CFI (cfiCond30) V4 load(1, XDATA, add(CFA_XSP16, literal(-14)))
          CFI (cfiCond30) V5 load(1, XDATA, add(CFA_XSP16, literal(-13)))
          CFI (cfiCond30) V6 load(1, XDATA, add(CFA_XSP16, literal(-12)))
          CFI (cfiCond30) V7 load(1, XDATA, add(CFA_XSP16, literal(-11)))
          CFI (cfiCond30) V8 load(1, XDATA, add(CFA_XSP16, literal(-10)))
          CFI (cfiCond30) V9 load(1, XDATA, add(CFA_XSP16, literal(-9)))
          CFI (cfiCond30) V10 load(1, XDATA, add(CFA_XSP16, literal(-8)))
          CFI (cfiCond30) V11 load(1, XDATA, add(CFA_XSP16, literal(-7)))
          CFI (cfiCond30) R7 load(1, XDATA, add(CFA_XSP16, literal(-6)))
          CFI (cfiCond30) ?RET_LOW load(1, XDATA, add(CFA_XSP16, literal(-5)))
          CFI (cfiCond30) ?RET_HIGH load(1, XDATA, add(CFA_XSP16, literal(-4)))
          CFI (cfiCond30) ?BRET_EXT load(1, XDATA, add(CFA_XSP16, literal(-3)))
          CFI (cfiCond30) DPL0 load(1, XDATA, add(CFA_XSP16, literal(-2)))
          CFI (cfiCond30) DPH0 load(1, XDATA, add(CFA_XSP16, literal(-1)))
          CFI (cfiCond30) CFA_SP SP+0
          CFI (cfiCond30) CFA_XSP16 add(XSP16, 34)
          CFI Block cfiCond31 Using cfiCommon0
          CFI (cfiCond31) Function MT_AfDataStore
          CFI (cfiCond31) Conditional ??CrossCallReturnLabel_85
          CFI (cfiCond31) R6 load(1, XDATA, add(CFA_XSP16, literal(-11)))
          CFI (cfiCond31) VB load(1, XDATA, add(CFA_XSP16, literal(-10)))
          CFI (cfiCond31) V0 load(1, XDATA, add(CFA_XSP16, literal(-9)))
          CFI (cfiCond31) V1 load(1, XDATA, add(CFA_XSP16, literal(-8)))
          CFI (cfiCond31) V2 load(1, XDATA, add(CFA_XSP16, literal(-7)))
          CFI (cfiCond31) R7 load(1, XDATA, add(CFA_XSP16, literal(-6)))
          CFI (cfiCond31) ?RET_LOW load(1, XDATA, add(CFA_XSP16, literal(-5)))
          CFI (cfiCond31) ?RET_HIGH load(1, XDATA, add(CFA_XSP16, literal(-4)))
          CFI (cfiCond31) ?BRET_EXT load(1, XDATA, add(CFA_XSP16, literal(-3)))
          CFI (cfiCond31) DPL0 load(1, XDATA, add(CFA_XSP16, literal(-2)))
          CFI (cfiCond31) DPH0 load(1, XDATA, add(CFA_XSP16, literal(-1)))
          CFI (cfiCond31) CFA_SP SP+0
          CFI (cfiCond31) CFA_XSP16 add(XSP16, 12)
          CFI Block cfiPicker32 Using cfiCommon1
          CFI (cfiPicker32) NoFunction
          CFI (cfiPicker32) Picker
        MOVX    A,@DPTR
        MOV     R0,A
        INC     DPTR
        MOVX    A,@DPTR
        MOV     R1,A
        MOV     A,R0
        ORL     A,R1
        RET
          CFI EndBlock cfiCond26
          CFI EndBlock cfiCond27
          CFI EndBlock cfiCond28
          CFI EndBlock cfiCond29
          CFI EndBlock cfiCond30
          CFI EndBlock cfiCond31
          CFI EndBlock cfiPicker32
//  423 
//  424 #if defined ( ZIGBEE_SOURCE_ROUTING )
//  425 
//  426 /***************************************************************************************************
//  427  * @fn      MT_AfDataRequestSrcRtg
//  428  *
//  429  * @brief   Process AF Register command
//  430  *
//  431  * @param   pBuf - pointer to the received buffer
//  432  *
//  433  * @return  none
//  434  ***************************************************************************************************/

        RSEG BANKED_CODE:CODE:NOROOT(0)
//  435 void MT_AfDataRequestSrcRtg(uint8 *pBuf)
MT_AfDataRequestSrcRtg:
          CFI Block cfiBlock33 Using cfiCommon0
          CFI Function MT_AfDataRequestSrcRtg
        CODE
//  436 {
        FUNCALL MT_AfDataRequestSrcRtg, osal_memset
        LOCFRAME ISTACK, 0, STACK
        LOCFRAME PSTACK, 0, STACK
        LOCFRAME XSTACK, 34, STACK
        LOCFRAME IOVERLAY, 0, STATIC
        LOCFRAME DOVERLAY, 0, STATIC
        ARGFRAME ISTACK, 0, STACK
        ARGFRAME PSTACK, 0, STACK
        ARGFRAME XSTACK, 34, STACK
        ARGFRAME IOVERLAY, 0, STATIC
        ARGFRAME DOVERLAY, 0, STATIC
        FUNCALL MT_AfDataRequestSrcRtg, afFindEndPointDesc
        LOCFRAME ISTACK, 0, STACK
        LOCFRAME PSTACK, 0, STACK
        LOCFRAME XSTACK, 34, STACK
        LOCFRAME IOVERLAY, 0, STATIC
        LOCFRAME DOVERLAY, 0, STATIC
        ARGFRAME ISTACK, 0, STACK
        ARGFRAME PSTACK, 0, STACK
        ARGFRAME XSTACK, 34, STACK
        ARGFRAME IOVERLAY, 0, STATIC
        ARGFRAME DOVERLAY, 0, STATIC
        FUNCALL MT_AfDataRequestSrcRtg, osal_mem_alloc
        LOCFRAME ISTACK, 0, STACK
        LOCFRAME PSTACK, 0, STACK
        LOCFRAME XSTACK, 34, STACK
        LOCFRAME IOVERLAY, 0, STATIC
        LOCFRAME DOVERLAY, 0, STATIC
        ARGFRAME ISTACK, 0, STACK
        ARGFRAME PSTACK, 0, STACK
        ARGFRAME XSTACK, 34, STACK
        ARGFRAME IOVERLAY, 0, STATIC
        ARGFRAME DOVERLAY, 0, STATIC
        FUNCALL MT_AfDataRequestSrcRtg, AF_DataRequestSrcRtg
        LOCFRAME ISTACK, 0, STACK
        LOCFRAME PSTACK, 0, STACK
        LOCFRAME XSTACK, 46, STACK
        LOCFRAME IOVERLAY, 0, STATIC
        LOCFRAME DOVERLAY, 0, STATIC
        ARGFRAME ISTACK, 0, STACK
        ARGFRAME PSTACK, 0, STACK
        ARGFRAME XSTACK, 46, STACK
        ARGFRAME IOVERLAY, 0, STATIC
        ARGFRAME DOVERLAY, 0, STATIC
        FUNCALL MT_AfDataRequestSrcRtg, osal_mem_free
        LOCFRAME ISTACK, 0, STACK
        LOCFRAME PSTACK, 0, STACK
        LOCFRAME XSTACK, 34, STACK
        LOCFRAME IOVERLAY, 0, STATIC
        LOCFRAME DOVERLAY, 0, STATIC
        ARGFRAME ISTACK, 0, STACK
        ARGFRAME PSTACK, 0, STACK
        ARGFRAME XSTACK, 34, STACK
        ARGFRAME IOVERLAY, 0, STATIC
        ARGFRAME DOVERLAY, 0, STATIC
        FUNCALL MT_AfDataRequestSrcRtg, MT_BuildAndSendZToolResponse
        LOCFRAME ISTACK, 0, STACK
        LOCFRAME PSTACK, 0, STACK
        LOCFRAME XSTACK, 34, STACK
        LOCFRAME IOVERLAY, 0, STATIC
        LOCFRAME DOVERLAY, 0, STATIC
        ARGFRAME ISTACK, 0, STACK
        ARGFRAME PSTACK, 0, STACK
        ARGFRAME XSTACK, 34, STACK
        ARGFRAME IOVERLAY, 0, STATIC
        ARGFRAME DOVERLAY, 0, STATIC
        MOV     A,#-0x14
        LCALL   ?BANKED_ENTER_XDATA
          CFI DPH0 load(1, XDATA, add(CFA_XSP16, literal(-1)))
          CFI DPL0 load(1, XDATA, add(CFA_XSP16, literal(-2)))
          CFI ?BRET_EXT load(1, XDATA, add(CFA_XSP16, literal(-3)))
          CFI ?RET_HIGH load(1, XDATA, add(CFA_XSP16, literal(-4)))
          CFI ?RET_LOW load(1, XDATA, add(CFA_XSP16, literal(-5)))
          CFI R7 load(1, XDATA, add(CFA_XSP16, literal(-6)))
          CFI V11 load(1, XDATA, add(CFA_XSP16, literal(-7)))
          CFI V10 load(1, XDATA, add(CFA_XSP16, literal(-8)))
          CFI V9 load(1, XDATA, add(CFA_XSP16, literal(-9)))
          CFI V8 load(1, XDATA, add(CFA_XSP16, literal(-10)))
          CFI V7 load(1, XDATA, add(CFA_XSP16, literal(-11)))
          CFI V6 load(1, XDATA, add(CFA_XSP16, literal(-12)))
          CFI V5 load(1, XDATA, add(CFA_XSP16, literal(-13)))
          CFI V4 load(1, XDATA, add(CFA_XSP16, literal(-14)))
          CFI V3 load(1, XDATA, add(CFA_XSP16, literal(-15)))
          CFI V2 load(1, XDATA, add(CFA_XSP16, literal(-16)))
          CFI V1 load(1, XDATA, add(CFA_XSP16, literal(-17)))
          CFI V0 load(1, XDATA, add(CFA_XSP16, literal(-18)))
          CFI VB load(1, XDATA, add(CFA_XSP16, literal(-19)))
          CFI R6 load(1, XDATA, add(CFA_XSP16, literal(-20)))
          CFI CFA_SP SP+0
          CFI CFA_XSP16 add(XSP16, 20)
        ; Saved register size: 20
        ; Auto size: 14
        MOV     A,#-0xe
        LCALL   ?ALLOC_XSTACK8
          CFI CFA_XSP16 add(XSP16, 34)
//  437   uint8 cmdId, dataLen = 0;
//  438   uint8 retValue = ZFailure;
        MOV     DPL,?XSP + 0
        MOV     DPH,?XSP + 1
        MOV     A,#0x1
        LCALL   ?Subroutine33 & 0xFFFF
//  439   endPointDesc_t *epDesc;
//  440   byte transId;
//  441   afAddrType_t dstAddr;
//  442   cId_t cId;
//  443   byte txOpts, radius, srcEP, relayCnt;
//  444   uint16 *pRelayList;
//  445   uint8 i;
//  446 
//  447   /* parse header */
//  448   cmdId = pBuf[MT_RPC_POS_CMD1];
//  449   pBuf += MT_RPC_FRAME_HDR_SZ;
??CrossCallReturnLabel_54:
        LCALL   ?Subroutine37 & 0xFFFF
//  450 
//  451   /* Destination address */
//  452   /* Initialize the panID field to zero to avoid inter-pan */
//  453   osal_memset( &dstAddr, 0, sizeof(afAddrType_t) );
??CrossCallReturnLabel_67:
        ; Setup parameters for call to function osal_memset
        MOV     R4,#0xc
        MOV     R5,#0x0
        MOV     R1,#0x0
        MOV     A,#0x2
        LCALL   ?XSTACK_DISP0_8
        MOV     R2,DPL
        MOV     R3,DPH
        LCALL   ??osal_memset?relay
//  454   dstAddr.addrMode = afAddr16Bit;
        MOV     A,#0xa
        LCALL   ?XSTACK_DISP0_8
        LCALL   ?Subroutine5 & 0xFFFF
//  455   dstAddr.addr.shortAddr = BUILD_UINT16(pBuf[0], pBuf[1]);
??CrossCallReturnLabel_92:
        LCALL   ?XSTACK_DISP0_8
        LCALL   ?Subroutine23 & 0xFFFF
//  456   pBuf += 2;
//  457 
//  458   /* Destination endpoint */
//  459   dstAddr.endPoint = *pBuf++;
??CrossCallReturnLabel_87:
        PUSH    A
          CFI CFA_SP SP+-1
        MOV     A,#0xb
        LCALL   ?XSTACK_DISP0_8
        POP     A
          CFI CFA_SP SP+0
        LCALL   ?Subroutine35 & 0xFFFF
//  460 
//  461   /* Source endpoint */
//  462   srcEP = *pBuf++;
??CrossCallReturnLabel_58:
        MOV     R1,A
        INC     DPTR
        MOV     ?V0 + 4,DPL
        MOV     ?V0 + 5,DPH
//  463   epDesc = afFindEndPointDesc( srcEP );
        ; Setup parameters for call to function afFindEndPointDesc
        LCALL   ??afFindEndPointDesc?relay
        MOV     ?V0 + 0,R2
        MOV     ?V0 + 1,R3
        MOV     R6,?V0 + 0
        MOV     R7,?V0 + 1
//  464 
//  465   /* ClusterId */
//  466   cId = BUILD_UINT16(pBuf[0], pBuf[1]);
        MOV     DPL,?V0 + 4
        MOV     DPH,?V0 + 5
        LCALL   ?Subroutine7 & 0xFFFF
//  467   pBuf +=2;
??CrossCallReturnLabel_5:
        LCALL   ??Subroutine46_0 & 0xFFFF
//  468 
//  469   /* TransId */
//  470   transId = *pBuf++;
??CrossCallReturnLabel_89:
        PUSH    A
          CFI CFA_SP SP+-1
        MOV     A,#0x1
        LCALL   ?XSTACK_DISP0_8
        POP     A
          CFI CFA_SP SP+0
        LCALL   ?Subroutine35 & 0xFFFF
//  471 
//  472   /* TxOption */
//  473   txOpts = *pBuf++;
??CrossCallReturnLabel_59:
        MOV     ?V0 + 3,A
        INC     DPTR
//  474 
//  475   /* Radius */
//  476   radius = *pBuf++;
        MOVX    A,@DPTR
        MOV     ?V0 + 0,A
        INC     DPTR
//  477 
//  478   /* Source route relay count */
//  479   relayCnt = *pBuf++;
        MOVX    A,@DPTR
        MOV     ?V0 + 1,A
        INC     DPTR
        MOV     ?V0 + 4,DPL
        MOV     ?V0 + 5,DPH
//  480 
//  481   /* Convert the source route relay list */
//  482   if( (pRelayList = osal_mem_alloc( relayCnt * sizeof( uint16 ))) != NULL )
        ; Setup parameters for call to function osal_mem_alloc
        CLR     C
        RLC     A
        MOV     R2,A
        CLR     A
        RLC     A
        MOV     R3,A
        LCALL   ??osal_mem_alloc?relay
        MOV     ?V0 + 6,R2
        MOV     ?V0 + 7,R3
        MOV     A,R2
        ORL     A,?V0 + 7
        JNZ     $+5
        LJMP    ??MT_AfDataRequestSrcRtg_0 & 0xFFFF
//  483   {
//  484     for( i = 0; i < relayCnt; i++ )
        MOV     R4,#0x0
        SJMP    ??MT_AfDataRequestSrcRtg_1
//  485     {
//  486       pRelayList[i]  = BUILD_UINT16( pBuf[0], pBuf[1] );
??MT_AfDataRequestSrcRtg_2:
        MOV     R2,A
        INC     DPTR
        MOVX    A,@DPTR
        MOV     R1,A
        MOV     A,R2
        ADD     A,#0x0
        CLR     A
        ADDC    A,R1
        MOV     R3,A
        MOV     A,R4
        RLC     A
        MOV     R0,A
        CLR     A
        RLC     A
        MOV     R1,A
        MOV     A,?V0 + 6
        ADD     A,R0
        MOV     DPL,A
        MOV     A,?V0 + 7
        ADDC    A,R1
        MOV     DPH,A
        MOV     A,R2
        MOVX    @DPTR,A
        INC     DPTR
        MOV     A,R3
        LCALL   ?Subroutine31 & 0xFFFF
//  487       pBuf += 2;
//  488     }
??CrossCallReturnLabel_50:
        INC     R4
??MT_AfDataRequestSrcRtg_1:
        MOV     A,R4
        CLR     C
        SUBB    A,?V0 + 1
        MOV     DPL,?V0 + 4
        MOV     DPH,?V0 + 5
        MOVX    A,@DPTR
        JC      ??MT_AfDataRequestSrcRtg_2
//  489 
//  490     /* Data payload Length */
//  491     dataLen = *pBuf++;
        MOV     R1,A
        INC     DPTR
        MOV     ?V0 + 4,DPL
        MOV     ?V0 + 5,DPH
//  492 
//  493     if ( epDesc == NULL )
        MOV     A,R6
        ORL     A,R7
        JNZ     ??MT_AfDataRequestSrcRtg_3
//  494     {
//  495       retValue = afStatus_INVALID_PARAMETER;
        MOV     DPL,?XSP + 0
        MOV     DPH,?XSP + 1
        MOV     A,#0x2
        SJMP    ??MT_AfDataRequestSrcRtg_4
//  496     }
//  497     else
//  498     {
//  499       retValue = AF_DataRequestSrcRtg( &dstAddr, epDesc, cId, dataLen, pBuf,
//  500                                      &transId, txOpts, radius, relayCnt, pRelayList );
??MT_AfDataRequestSrcRtg_3:
        ; Setup parameters for call to function AF_DataRequestSrcRtg
        MOV     R0,#?V0 + 6
        LCALL   ?PUSH_XSTACK_I_TWO
          CFI CFA_XSP16 add(XSP16, 36)
        MOV     R0,#?V0 + 1
        LCALL   ?PUSH_XSTACK_I_ONE
          CFI CFA_XSP16 add(XSP16, 37)
        MOV     R0,#?V0 + 0
        LCALL   ?PUSH_XSTACK_I_ONE
          CFI CFA_XSP16 add(XSP16, 38)
        MOV     A,#0x5
        LCALL   ?XSTACK_DISP0_8
        MOV     ?V0 + 0,DPL
        MOV     ?V0 + 1,DPH
        MOV     R0,#?V0 + 0
        LCALL   ?PUSH_XSTACK_I_TWO
          CFI CFA_XSP16 add(XSP16, 40)
        MOV     R0,#?V0 + 4
        LCALL   ?PUSH_XSTACK_I_TWO
          CFI CFA_XSP16 add(XSP16, 42)
        MOV     ?V0 + 0,R1
        MOV     ?V0 + 1,#0x0
        MOV     R0,#?V0 + 0
        LCALL   ?PUSH_XSTACK_I_TWO
          CFI CFA_XSP16 add(XSP16, 44)
        MOV     R0,#?V0 + 8
        LCALL   ?PUSH_XSTACK_I_TWO
          CFI CFA_XSP16 add(XSP16, 46)
        MOV     R1,?V0 + 3
        MOV     A,R6
        MOV     R4,A
        MOV     A,R7
        MOV     R5,A
        MOV     A,#0xe
        LCALL   ?XSTACK_DISP0_8
        MOV     R2,DPL
        MOV     R3,DPH
        LCALL   ??AF_DataRequestSrcRtg?relay
        MOV     A,#0xc
        LCALL   ?DEALLOC_XSTACK8
          CFI CFA_XSP16 add(XSP16, 34)
        MOV     A,R1
        MOV     DPL,?XSP + 0
        MOV     DPH,?XSP + 1
??MT_AfDataRequestSrcRtg_4:
        MOVX    @DPTR,A
//  501     }
//  502 
//  503     /* Free the memory allocated */
//  504     osal_mem_free( pRelayList );
        ; Setup parameters for call to function osal_mem_free
        MOV     R2,?V0 + 6
        MOV     R3,?V0 + 7
        LCALL   ??osal_mem_free?relay
        SJMP    ??MT_AfDataRequestSrcRtg_5
//  505   }
//  506   else
//  507   {
//  508     retValue = afStatus_MEM_FAIL;
??MT_AfDataRequestSrcRtg_0:
        MOV     DPL,?XSP + 0
        MOV     DPH,?XSP + 1
        MOV     A,#0x10
        MOVX    @DPTR,A
//  509   }
//  510 
//  511 
//  512   /* Build and send back the response */
//  513   MT_BuildAndSendZToolResponse(((uint8)MT_RPC_CMD_SRSP | (uint8)MT_RPC_SYS_AF), cmdId, 1, &retValue);
??MT_AfDataRequestSrcRtg_5:
        ; Setup parameters for call to function MT_BuildAndSendZToolResponse
        MOV     DPL,?XSP + 0
        MOV     DPH,?XSP + 1
        MOV     R4,DPL
        MOV     R5,DPH
        MOV     R3,#0x1
        MOV     R2,?V0 + 2
        MOV     R1,#0x64
        LCALL   ??MT_BuildAndSendZToolResponse?relay
//  514 }
        LJMP    ?Subroutine1 & 0xFFFF
          CFI EndBlock cfiBlock33

        RSEG BANKED_CODE:CODE:NOROOT(0)
?Subroutine37:
          CFI Block cfiCond34 Using cfiCommon0
          CFI Function MT_AfDataRequest
          CFI Conditional ??CrossCallReturnLabel_66
          CFI R6 load(1, XDATA, add(CFA_XSP16, literal(-20)))
          CFI VB load(1, XDATA, add(CFA_XSP16, literal(-19)))
          CFI V0 load(1, XDATA, add(CFA_XSP16, literal(-18)))
          CFI V1 load(1, XDATA, add(CFA_XSP16, literal(-17)))
          CFI V2 load(1, XDATA, add(CFA_XSP16, literal(-16)))
          CFI V3 load(1, XDATA, add(CFA_XSP16, literal(-15)))
          CFI V4 load(1, XDATA, add(CFA_XSP16, literal(-14)))
          CFI V5 load(1, XDATA, add(CFA_XSP16, literal(-13)))
          CFI V6 load(1, XDATA, add(CFA_XSP16, literal(-12)))
          CFI V7 load(1, XDATA, add(CFA_XSP16, literal(-11)))
          CFI V8 load(1, XDATA, add(CFA_XSP16, literal(-10)))
          CFI V9 load(1, XDATA, add(CFA_XSP16, literal(-9)))
          CFI V10 load(1, XDATA, add(CFA_XSP16, literal(-8)))
          CFI V11 load(1, XDATA, add(CFA_XSP16, literal(-7)))
          CFI R7 load(1, XDATA, add(CFA_XSP16, literal(-6)))
          CFI ?RET_LOW load(1, XDATA, add(CFA_XSP16, literal(-5)))
          CFI ?RET_HIGH load(1, XDATA, add(CFA_XSP16, literal(-4)))
          CFI ?BRET_EXT load(1, XDATA, add(CFA_XSP16, literal(-3)))
          CFI DPL0 load(1, XDATA, add(CFA_XSP16, literal(-2)))
          CFI DPH0 load(1, XDATA, add(CFA_XSP16, literal(-1)))
          CFI CFA_SP SP+0
          CFI CFA_XSP16 add(XSP16, 34)
          CFI Block cfiCond35 Using cfiCommon0
          CFI (cfiCond35) Function MT_AfDataRequestSrcRtg
          CFI (cfiCond35) Conditional ??CrossCallReturnLabel_67
          CFI (cfiCond35) R6 load(1, XDATA, add(CFA_XSP16, literal(-20)))
          CFI (cfiCond35) VB load(1, XDATA, add(CFA_XSP16, literal(-19)))
          CFI (cfiCond35) V0 load(1, XDATA, add(CFA_XSP16, literal(-18)))
          CFI (cfiCond35) V1 load(1, XDATA, add(CFA_XSP16, literal(-17)))
          CFI (cfiCond35) V2 load(1, XDATA, add(CFA_XSP16, literal(-16)))
          CFI (cfiCond35) V3 load(1, XDATA, add(CFA_XSP16, literal(-15)))
          CFI (cfiCond35) V4 load(1, XDATA, add(CFA_XSP16, literal(-14)))
          CFI (cfiCond35) V5 load(1, XDATA, add(CFA_XSP16, literal(-13)))
          CFI (cfiCond35) V6 load(1, XDATA, add(CFA_XSP16, literal(-12)))
          CFI (cfiCond35) V7 load(1, XDATA, add(CFA_XSP16, literal(-11)))
          CFI (cfiCond35) V8 load(1, XDATA, add(CFA_XSP16, literal(-10)))
          CFI (cfiCond35) V9 load(1, XDATA, add(CFA_XSP16, literal(-9)))
          CFI (cfiCond35) V10 load(1, XDATA, add(CFA_XSP16, literal(-8)))
          CFI (cfiCond35) V11 load(1, XDATA, add(CFA_XSP16, literal(-7)))
          CFI (cfiCond35) R7 load(1, XDATA, add(CFA_XSP16, literal(-6)))
          CFI (cfiCond35) ?RET_LOW load(1, XDATA, add(CFA_XSP16, literal(-5)))
          CFI (cfiCond35) ?RET_HIGH load(1, XDATA, add(CFA_XSP16, literal(-4)))
          CFI (cfiCond35) ?BRET_EXT load(1, XDATA, add(CFA_XSP16, literal(-3)))
          CFI (cfiCond35) DPL0 load(1, XDATA, add(CFA_XSP16, literal(-2)))
          CFI (cfiCond35) DPH0 load(1, XDATA, add(CFA_XSP16, literal(-1)))
          CFI (cfiCond35) CFA_SP SP+0
          CFI (cfiCond35) CFA_XSP16 add(XSP16, 34)
          CFI Block cfiPicker36 Using cfiCommon1
          CFI (cfiPicker36) NoFunction
          CFI (cfiPicker36) Picker
        MOV     A,R2
        ADD     A,#0x3
        MOV     ?V0 + 4,A
        MOV     A,R3
        ADDC    A,#0x0
        MOV     ?V0 + 5,A
        RET
          CFI EndBlock cfiCond34
          CFI EndBlock cfiCond35
          CFI EndBlock cfiPicker36

        RSEG BANKED_CODE:CODE:NOROOT(0)
?Subroutine35:
          CFI Block cfiCond37 Using cfiCommon0
          CFI Function MT_AfDataRequestSrcRtg
          CFI Conditional ??CrossCallReturnLabel_58
          CFI R6 load(1, XDATA, add(CFA_XSP16, literal(-20)))
          CFI VB load(1, XDATA, add(CFA_XSP16, literal(-19)))
          CFI V0 load(1, XDATA, add(CFA_XSP16, literal(-18)))
          CFI V1 load(1, XDATA, add(CFA_XSP16, literal(-17)))
          CFI V2 load(1, XDATA, add(CFA_XSP16, literal(-16)))
          CFI V3 load(1, XDATA, add(CFA_XSP16, literal(-15)))
          CFI V4 load(1, XDATA, add(CFA_XSP16, literal(-14)))
          CFI V5 load(1, XDATA, add(CFA_XSP16, literal(-13)))
          CFI V6 load(1, XDATA, add(CFA_XSP16, literal(-12)))
          CFI V7 load(1, XDATA, add(CFA_XSP16, literal(-11)))
          CFI V8 load(1, XDATA, add(CFA_XSP16, literal(-10)))
          CFI V9 load(1, XDATA, add(CFA_XSP16, literal(-9)))
          CFI V10 load(1, XDATA, add(CFA_XSP16, literal(-8)))
          CFI V11 load(1, XDATA, add(CFA_XSP16, literal(-7)))
          CFI R7 load(1, XDATA, add(CFA_XSP16, literal(-6)))
          CFI ?RET_LOW load(1, XDATA, add(CFA_XSP16, literal(-5)))
          CFI ?RET_HIGH load(1, XDATA, add(CFA_XSP16, literal(-4)))
          CFI ?BRET_EXT load(1, XDATA, add(CFA_XSP16, literal(-3)))
          CFI DPL0 load(1, XDATA, add(CFA_XSP16, literal(-2)))
          CFI DPH0 load(1, XDATA, add(CFA_XSP16, literal(-1)))
          CFI CFA_SP SP+0
          CFI CFA_XSP16 add(XSP16, 34)
          CFI Block cfiCond38 Using cfiCommon0
          CFI (cfiCond38) Function MT_AfDataRequestSrcRtg
          CFI (cfiCond38) Conditional ??CrossCallReturnLabel_59
          CFI (cfiCond38) R6 load(1, XDATA, add(CFA_XSP16, literal(-20)))
          CFI (cfiCond38) VB load(1, XDATA, add(CFA_XSP16, literal(-19)))
          CFI (cfiCond38) V0 load(1, XDATA, add(CFA_XSP16, literal(-18)))
          CFI (cfiCond38) V1 load(1, XDATA, add(CFA_XSP16, literal(-17)))
          CFI (cfiCond38) V2 load(1, XDATA, add(CFA_XSP16, literal(-16)))
          CFI (cfiCond38) V3 load(1, XDATA, add(CFA_XSP16, literal(-15)))
          CFI (cfiCond38) V4 load(1, XDATA, add(CFA_XSP16, literal(-14)))
          CFI (cfiCond38) V5 load(1, XDATA, add(CFA_XSP16, literal(-13)))
          CFI (cfiCond38) V6 load(1, XDATA, add(CFA_XSP16, literal(-12)))
          CFI (cfiCond38) V7 load(1, XDATA, add(CFA_XSP16, literal(-11)))
          CFI (cfiCond38) V8 load(1, XDATA, add(CFA_XSP16, literal(-10)))
          CFI (cfiCond38) V9 load(1, XDATA, add(CFA_XSP16, literal(-9)))
          CFI (cfiCond38) V10 load(1, XDATA, add(CFA_XSP16, literal(-8)))
          CFI (cfiCond38) V11 load(1, XDATA, add(CFA_XSP16, literal(-7)))
          CFI (cfiCond38) R7 load(1, XDATA, add(CFA_XSP16, literal(-6)))
          CFI (cfiCond38) ?RET_LOW load(1, XDATA, add(CFA_XSP16, literal(-5)))
          CFI (cfiCond38) ?RET_HIGH load(1, XDATA, add(CFA_XSP16, literal(-4)))
          CFI (cfiCond38) ?BRET_EXT load(1, XDATA, add(CFA_XSP16, literal(-3)))
          CFI (cfiCond38) DPL0 load(1, XDATA, add(CFA_XSP16, literal(-2)))
          CFI (cfiCond38) DPH0 load(1, XDATA, add(CFA_XSP16, literal(-1)))
          CFI (cfiCond38) CFA_SP SP+0
          CFI (cfiCond38) CFA_XSP16 add(XSP16, 34)
          CFI Block cfiPicker39 Using cfiCommon1
          CFI (cfiPicker39) NoFunction
          CFI (cfiPicker39) Picker
        LCALL   ?Subroutine39 & 0xFFFF
??CrossCallReturnLabel_70:
        MOVX    A,@DPTR
        RET
          CFI EndBlock cfiCond37
          CFI EndBlock cfiCond38
          CFI EndBlock cfiPicker39

        RSEG BANKED_CODE:CODE:NOROOT(0)
?Subroutine33:
          CFI Block cfiCond40 Using cfiCommon0
          CFI Function MT_AfRegister
          CFI Conditional ??CrossCallReturnLabel_53
          CFI R6 load(1, XDATA, add(CFA_XSP16, literal(-14)))
          CFI VB load(1, XDATA, add(CFA_XSP16, literal(-13)))
          CFI V0 load(1, XDATA, add(CFA_XSP16, literal(-12)))
          CFI V1 load(1, XDATA, add(CFA_XSP16, literal(-11)))
          CFI V2 load(1, XDATA, add(CFA_XSP16, literal(-10)))
          CFI V3 load(1, XDATA, add(CFA_XSP16, literal(-9)))
          CFI V4 load(1, XDATA, add(CFA_XSP16, literal(-8)))
          CFI V5 load(1, XDATA, add(CFA_XSP16, literal(-7)))
          CFI R7 load(1, XDATA, add(CFA_XSP16, literal(-6)))
          CFI ?RET_LOW load(1, XDATA, add(CFA_XSP16, literal(-5)))
          CFI ?RET_HIGH load(1, XDATA, add(CFA_XSP16, literal(-4)))
          CFI ?BRET_EXT load(1, XDATA, add(CFA_XSP16, literal(-3)))
          CFI DPL0 load(1, XDATA, add(CFA_XSP16, literal(-2)))
          CFI DPH0 load(1, XDATA, add(CFA_XSP16, literal(-1)))
          CFI CFA_SP SP+0
          CFI CFA_XSP16 add(XSP16, 15)
          CFI Block cfiCond41 Using cfiCommon0
          CFI (cfiCond41) Function MT_AfDataRequestSrcRtg
          CFI (cfiCond41) Conditional ??CrossCallReturnLabel_54
          CFI (cfiCond41) R6 load(1, XDATA, add(CFA_XSP16, literal(-20)))
          CFI (cfiCond41) VB load(1, XDATA, add(CFA_XSP16, literal(-19)))
          CFI (cfiCond41) V0 load(1, XDATA, add(CFA_XSP16, literal(-18)))
          CFI (cfiCond41) V1 load(1, XDATA, add(CFA_XSP16, literal(-17)))
          CFI (cfiCond41) V2 load(1, XDATA, add(CFA_XSP16, literal(-16)))
          CFI (cfiCond41) V3 load(1, XDATA, add(CFA_XSP16, literal(-15)))
          CFI (cfiCond41) V4 load(1, XDATA, add(CFA_XSP16, literal(-14)))
          CFI (cfiCond41) V5 load(1, XDATA, add(CFA_XSP16, literal(-13)))
          CFI (cfiCond41) V6 load(1, XDATA, add(CFA_XSP16, literal(-12)))
          CFI (cfiCond41) V7 load(1, XDATA, add(CFA_XSP16, literal(-11)))
          CFI (cfiCond41) V8 load(1, XDATA, add(CFA_XSP16, literal(-10)))
          CFI (cfiCond41) V9 load(1, XDATA, add(CFA_XSP16, literal(-9)))
          CFI (cfiCond41) V10 load(1, XDATA, add(CFA_XSP16, literal(-8)))
          CFI (cfiCond41) V11 load(1, XDATA, add(CFA_XSP16, literal(-7)))
          CFI (cfiCond41) R7 load(1, XDATA, add(CFA_XSP16, literal(-6)))
          CFI (cfiCond41) ?RET_LOW load(1, XDATA, add(CFA_XSP16, literal(-5)))
          CFI (cfiCond41) ?RET_HIGH load(1, XDATA, add(CFA_XSP16, literal(-4)))
          CFI (cfiCond41) ?BRET_EXT load(1, XDATA, add(CFA_XSP16, literal(-3)))
          CFI (cfiCond41) DPL0 load(1, XDATA, add(CFA_XSP16, literal(-2)))
          CFI (cfiCond41) DPH0 load(1, XDATA, add(CFA_XSP16, literal(-1)))
          CFI (cfiCond41) CFA_SP SP+0
          CFI (cfiCond41) CFA_XSP16 add(XSP16, 34)
          CFI Block cfiPicker42 Using cfiCommon1
          CFI (cfiPicker42) NoFunction
          CFI (cfiPicker42) Picker
        MOVX    @DPTR,A
        MOV     DPL,R2
        MOV     DPH,R3
        INC     DPTR
        INC     DPTR
        MOVX    A,@DPTR
        MOV     ?V0 + 2,A
        RET
          CFI EndBlock cfiCond40
          CFI EndBlock cfiCond41
          CFI EndBlock cfiPicker42

        RSEG BANKED_CODE:CODE:NOROOT(0)
?Subroutine31:
          CFI Block cfiCond43 Using cfiCommon0
          CFI Function MT_AfDataRequest
          CFI Conditional ??CrossCallReturnLabel_49
          CFI R6 load(1, XDATA, add(CFA_XSP16, literal(-20)))
          CFI VB load(1, XDATA, add(CFA_XSP16, literal(-19)))
          CFI V0 load(1, XDATA, add(CFA_XSP16, literal(-18)))
          CFI V1 load(1, XDATA, add(CFA_XSP16, literal(-17)))
          CFI V2 load(1, XDATA, add(CFA_XSP16, literal(-16)))
          CFI V3 load(1, XDATA, add(CFA_XSP16, literal(-15)))
          CFI V4 load(1, XDATA, add(CFA_XSP16, literal(-14)))
          CFI V5 load(1, XDATA, add(CFA_XSP16, literal(-13)))
          CFI V6 load(1, XDATA, add(CFA_XSP16, literal(-12)))
          CFI V7 load(1, XDATA, add(CFA_XSP16, literal(-11)))
          CFI V8 load(1, XDATA, add(CFA_XSP16, literal(-10)))
          CFI V9 load(1, XDATA, add(CFA_XSP16, literal(-9)))
          CFI V10 load(1, XDATA, add(CFA_XSP16, literal(-8)))
          CFI V11 load(1, XDATA, add(CFA_XSP16, literal(-7)))
          CFI R7 load(1, XDATA, add(CFA_XSP16, literal(-6)))
          CFI ?RET_LOW load(1, XDATA, add(CFA_XSP16, literal(-5)))
          CFI ?RET_HIGH load(1, XDATA, add(CFA_XSP16, literal(-4)))
          CFI ?BRET_EXT load(1, XDATA, add(CFA_XSP16, literal(-3)))
          CFI DPL0 load(1, XDATA, add(CFA_XSP16, literal(-2)))
          CFI DPH0 load(1, XDATA, add(CFA_XSP16, literal(-1)))
          CFI CFA_SP SP+0
          CFI CFA_XSP16 add(XSP16, 34)
          CFI Block cfiCond44 Using cfiCommon0
          CFI (cfiCond44) Function MT_AfDataRequestSrcRtg
          CFI (cfiCond44) Conditional ??CrossCallReturnLabel_50
          CFI (cfiCond44) R6 load(1, XDATA, add(CFA_XSP16, literal(-20)))
          CFI (cfiCond44) VB load(1, XDATA, add(CFA_XSP16, literal(-19)))
          CFI (cfiCond44) V0 load(1, XDATA, add(CFA_XSP16, literal(-18)))
          CFI (cfiCond44) V1 load(1, XDATA, add(CFA_XSP16, literal(-17)))
          CFI (cfiCond44) V2 load(1, XDATA, add(CFA_XSP16, literal(-16)))
          CFI (cfiCond44) V3 load(1, XDATA, add(CFA_XSP16, literal(-15)))
          CFI (cfiCond44) V4 load(1, XDATA, add(CFA_XSP16, literal(-14)))
          CFI (cfiCond44) V5 load(1, XDATA, add(CFA_XSP16, literal(-13)))
          CFI (cfiCond44) V6 load(1, XDATA, add(CFA_XSP16, literal(-12)))
          CFI (cfiCond44) V7 load(1, XDATA, add(CFA_XSP16, literal(-11)))
          CFI (cfiCond44) V8 load(1, XDATA, add(CFA_XSP16, literal(-10)))
          CFI (cfiCond44) V9 load(1, XDATA, add(CFA_XSP16, literal(-9)))
          CFI (cfiCond44) V10 load(1, XDATA, add(CFA_XSP16, literal(-8)))
          CFI (cfiCond44) V11 load(1, XDATA, add(CFA_XSP16, literal(-7)))
          CFI (cfiCond44) R7 load(1, XDATA, add(CFA_XSP16, literal(-6)))
          CFI (cfiCond44) ?RET_LOW load(1, XDATA, add(CFA_XSP16, literal(-5)))
          CFI (cfiCond44) ?RET_HIGH load(1, XDATA, add(CFA_XSP16, literal(-4)))
          CFI (cfiCond44) ?BRET_EXT load(1, XDATA, add(CFA_XSP16, literal(-3)))
          CFI (cfiCond44) DPL0 load(1, XDATA, add(CFA_XSP16, literal(-2)))
          CFI (cfiCond44) DPH0 load(1, XDATA, add(CFA_XSP16, literal(-1)))
          CFI (cfiCond44) CFA_SP SP+0
          CFI (cfiCond44) CFA_XSP16 add(XSP16, 34)
          CFI Block cfiPicker45 Using cfiCommon1
          CFI (cfiPicker45) NoFunction
          CFI (cfiPicker45) Picker
        MOVX    @DPTR,A
        LCALL   ?Subroutine43 & 0xFFFF
??CrossCallReturnLabel_79:
        RET
          CFI EndBlock cfiCond43
          CFI EndBlock cfiCond44
          CFI EndBlock cfiPicker45

        RSEG BANKED_CODE:CODE:NOROOT(0)
?Subroutine43:
          CFI Block cfiCond46 Using cfiCommon0
          CFI Function MT_AfDataRequest
          CFI Conditional ??CrossCallReturnLabel_78
          CFI R6 load(1, XDATA, add(CFA_XSP16, literal(-20)))
          CFI VB load(1, XDATA, add(CFA_XSP16, literal(-19)))
          CFI V0 load(1, XDATA, add(CFA_XSP16, literal(-18)))
          CFI V1 load(1, XDATA, add(CFA_XSP16, literal(-17)))
          CFI V2 load(1, XDATA, add(CFA_XSP16, literal(-16)))
          CFI V3 load(1, XDATA, add(CFA_XSP16, literal(-15)))
          CFI V4 load(1, XDATA, add(CFA_XSP16, literal(-14)))
          CFI V5 load(1, XDATA, add(CFA_XSP16, literal(-13)))
          CFI V6 load(1, XDATA, add(CFA_XSP16, literal(-12)))
          CFI V7 load(1, XDATA, add(CFA_XSP16, literal(-11)))
          CFI V8 load(1, XDATA, add(CFA_XSP16, literal(-10)))
          CFI V9 load(1, XDATA, add(CFA_XSP16, literal(-9)))
          CFI V10 load(1, XDATA, add(CFA_XSP16, literal(-8)))
          CFI V11 load(1, XDATA, add(CFA_XSP16, literal(-7)))
          CFI R7 load(1, XDATA, add(CFA_XSP16, literal(-6)))
          CFI ?RET_LOW load(1, XDATA, add(CFA_XSP16, literal(-5)))
          CFI ?RET_HIGH load(1, XDATA, add(CFA_XSP16, literal(-4)))
          CFI ?BRET_EXT load(1, XDATA, add(CFA_XSP16, literal(-3)))
          CFI DPL0 load(1, XDATA, add(CFA_XSP16, literal(-2)))
          CFI DPH0 load(1, XDATA, add(CFA_XSP16, literal(-1)))
          CFI CFA_SP SP+0
          CFI CFA_XSP16 add(XSP16, 34)
          CFI Block cfiCond47 Using cfiCommon0
          CFI (cfiCond47) Function MT_AfDataRequest
          CFI (cfiCond47) Conditional ??CrossCallReturnLabel_79, ??CrossCallReturnLabel_49
          CFI (cfiCond47) R6 load(1, XDATA, add(CFA_XSP16, literal(-20)))
          CFI (cfiCond47) VB load(1, XDATA, add(CFA_XSP16, literal(-19)))
          CFI (cfiCond47) V0 load(1, XDATA, add(CFA_XSP16, literal(-18)))
          CFI (cfiCond47) V1 load(1, XDATA, add(CFA_XSP16, literal(-17)))
          CFI (cfiCond47) V2 load(1, XDATA, add(CFA_XSP16, literal(-16)))
          CFI (cfiCond47) V3 load(1, XDATA, add(CFA_XSP16, literal(-15)))
          CFI (cfiCond47) V4 load(1, XDATA, add(CFA_XSP16, literal(-14)))
          CFI (cfiCond47) V5 load(1, XDATA, add(CFA_XSP16, literal(-13)))
          CFI (cfiCond47) V6 load(1, XDATA, add(CFA_XSP16, literal(-12)))
          CFI (cfiCond47) V7 load(1, XDATA, add(CFA_XSP16, literal(-11)))
          CFI (cfiCond47) V8 load(1, XDATA, add(CFA_XSP16, literal(-10)))
          CFI (cfiCond47) V9 load(1, XDATA, add(CFA_XSP16, literal(-9)))
          CFI (cfiCond47) V10 load(1, XDATA, add(CFA_XSP16, literal(-8)))
          CFI (cfiCond47) V11 load(1, XDATA, add(CFA_XSP16, literal(-7)))
          CFI (cfiCond47) R7 load(1, XDATA, add(CFA_XSP16, literal(-6)))
          CFI (cfiCond47) ?RET_LOW load(1, XDATA, add(CFA_XSP16, literal(-5)))
          CFI (cfiCond47) ?RET_HIGH load(1, XDATA, add(CFA_XSP16, literal(-4)))
          CFI (cfiCond47) ?BRET_EXT load(1, XDATA, add(CFA_XSP16, literal(-3)))
          CFI (cfiCond47) DPL0 load(1, XDATA, add(CFA_XSP16, literal(-2)))
          CFI (cfiCond47) DPH0 load(1, XDATA, add(CFA_XSP16, literal(-1)))
          CFI (cfiCond47) CFA_SP SP+0
          CFI (cfiCond47) CFA_XSP16 add(XSP16, 34)
          CFI Block cfiCond48 Using cfiCommon0
          CFI (cfiCond48) Function MT_AfDataRequestSrcRtg
          CFI (cfiCond48) Conditional ??CrossCallReturnLabel_79, ??CrossCallReturnLabel_50
          CFI (cfiCond48) R6 load(1, XDATA, add(CFA_XSP16, literal(-20)))
          CFI (cfiCond48) VB load(1, XDATA, add(CFA_XSP16, literal(-19)))
          CFI (cfiCond48) V0 load(1, XDATA, add(CFA_XSP16, literal(-18)))
          CFI (cfiCond48) V1 load(1, XDATA, add(CFA_XSP16, literal(-17)))
          CFI (cfiCond48) V2 load(1, XDATA, add(CFA_XSP16, literal(-16)))
          CFI (cfiCond48) V3 load(1, XDATA, add(CFA_XSP16, literal(-15)))
          CFI (cfiCond48) V4 load(1, XDATA, add(CFA_XSP16, literal(-14)))
          CFI (cfiCond48) V5 load(1, XDATA, add(CFA_XSP16, literal(-13)))
          CFI (cfiCond48) V6 load(1, XDATA, add(CFA_XSP16, literal(-12)))
          CFI (cfiCond48) V7 load(1, XDATA, add(CFA_XSP16, literal(-11)))
          CFI (cfiCond48) V8 load(1, XDATA, add(CFA_XSP16, literal(-10)))
          CFI (cfiCond48) V9 load(1, XDATA, add(CFA_XSP16, literal(-9)))
          CFI (cfiCond48) V10 load(1, XDATA, add(CFA_XSP16, literal(-8)))
          CFI (cfiCond48) V11 load(1, XDATA, add(CFA_XSP16, literal(-7)))
          CFI (cfiCond48) R7 load(1, XDATA, add(CFA_XSP16, literal(-6)))
          CFI (cfiCond48) ?RET_LOW load(1, XDATA, add(CFA_XSP16, literal(-5)))
          CFI (cfiCond48) ?RET_HIGH load(1, XDATA, add(CFA_XSP16, literal(-4)))
          CFI (cfiCond48) ?BRET_EXT load(1, XDATA, add(CFA_XSP16, literal(-3)))
          CFI (cfiCond48) DPL0 load(1, XDATA, add(CFA_XSP16, literal(-2)))
          CFI (cfiCond48) DPH0 load(1, XDATA, add(CFA_XSP16, literal(-1)))
          CFI (cfiCond48) CFA_SP SP+0
          CFI (cfiCond48) CFA_XSP16 add(XSP16, 34)
          CFI Block cfiPicker49 Using cfiCommon1
          CFI (cfiPicker49) NoFunction
          CFI (cfiPicker49) Picker
        MOV     A,?V0 + 4
        ADD     A,#0x2
        MOV     ?V0 + 4,A
        MOV     A,?V0 + 5
        ADDC    A,#0x0
        MOV     ?V0 + 5,A
        RET
          CFI EndBlock cfiCond46
          CFI EndBlock cfiCond47
          CFI EndBlock cfiCond48
          CFI EndBlock cfiPicker49

        RSEG BANKED_CODE:CODE:NOROOT(0)
?Subroutine23:
          CFI Block cfiCond50 Using cfiCommon0
          CFI Function MT_AfDataRequest
          CFI Conditional ??CrossCallReturnLabel_86
          CFI R6 load(1, XDATA, add(CFA_XSP16, literal(-20)))
          CFI VB load(1, XDATA, add(CFA_XSP16, literal(-19)))
          CFI V0 load(1, XDATA, add(CFA_XSP16, literal(-18)))
          CFI V1 load(1, XDATA, add(CFA_XSP16, literal(-17)))
          CFI V2 load(1, XDATA, add(CFA_XSP16, literal(-16)))
          CFI V3 load(1, XDATA, add(CFA_XSP16, literal(-15)))
          CFI V4 load(1, XDATA, add(CFA_XSP16, literal(-14)))
          CFI V5 load(1, XDATA, add(CFA_XSP16, literal(-13)))
          CFI V6 load(1, XDATA, add(CFA_XSP16, literal(-12)))
          CFI V7 load(1, XDATA, add(CFA_XSP16, literal(-11)))
          CFI V8 load(1, XDATA, add(CFA_XSP16, literal(-10)))
          CFI V9 load(1, XDATA, add(CFA_XSP16, literal(-9)))
          CFI V10 load(1, XDATA, add(CFA_XSP16, literal(-8)))
          CFI V11 load(1, XDATA, add(CFA_XSP16, literal(-7)))
          CFI R7 load(1, XDATA, add(CFA_XSP16, literal(-6)))
          CFI ?RET_LOW load(1, XDATA, add(CFA_XSP16, literal(-5)))
          CFI ?RET_HIGH load(1, XDATA, add(CFA_XSP16, literal(-4)))
          CFI ?BRET_EXT load(1, XDATA, add(CFA_XSP16, literal(-3)))
          CFI DPL0 load(1, XDATA, add(CFA_XSP16, literal(-2)))
          CFI DPH0 load(1, XDATA, add(CFA_XSP16, literal(-1)))
          CFI CFA_SP SP+0
          CFI CFA_XSP16 add(XSP16, 34)
          CFI Block cfiCond51 Using cfiCommon0
          CFI (cfiCond51) Function MT_AfDataRequestSrcRtg
          CFI (cfiCond51) Conditional ??CrossCallReturnLabel_87
          CFI (cfiCond51) R6 load(1, XDATA, add(CFA_XSP16, literal(-20)))
          CFI (cfiCond51) VB load(1, XDATA, add(CFA_XSP16, literal(-19)))
          CFI (cfiCond51) V0 load(1, XDATA, add(CFA_XSP16, literal(-18)))
          CFI (cfiCond51) V1 load(1, XDATA, add(CFA_XSP16, literal(-17)))
          CFI (cfiCond51) V2 load(1, XDATA, add(CFA_XSP16, literal(-16)))
          CFI (cfiCond51) V3 load(1, XDATA, add(CFA_XSP16, literal(-15)))
          CFI (cfiCond51) V4 load(1, XDATA, add(CFA_XSP16, literal(-14)))
          CFI (cfiCond51) V5 load(1, XDATA, add(CFA_XSP16, literal(-13)))
          CFI (cfiCond51) V6 load(1, XDATA, add(CFA_XSP16, literal(-12)))
          CFI (cfiCond51) V7 load(1, XDATA, add(CFA_XSP16, literal(-11)))
          CFI (cfiCond51) V8 load(1, XDATA, add(CFA_XSP16, literal(-10)))
          CFI (cfiCond51) V9 load(1, XDATA, add(CFA_XSP16, literal(-9)))
          CFI (cfiCond51) V10 load(1, XDATA, add(CFA_XSP16, literal(-8)))
          CFI (cfiCond51) V11 load(1, XDATA, add(CFA_XSP16, literal(-7)))
          CFI (cfiCond51) R7 load(1, XDATA, add(CFA_XSP16, literal(-6)))
          CFI (cfiCond51) ?RET_LOW load(1, XDATA, add(CFA_XSP16, literal(-5)))
          CFI (cfiCond51) ?RET_HIGH load(1, XDATA, add(CFA_XSP16, literal(-4)))
          CFI (cfiCond51) ?BRET_EXT load(1, XDATA, add(CFA_XSP16, literal(-3)))
          CFI (cfiCond51) DPL0 load(1, XDATA, add(CFA_XSP16, literal(-2)))
          CFI (cfiCond51) DPH0 load(1, XDATA, add(CFA_XSP16, literal(-1)))
          CFI (cfiCond51) CFA_SP SP+0
          CFI (cfiCond51) CFA_XSP16 add(XSP16, 34)
          CFI Block cfiPicker52 Using cfiCommon1
          CFI (cfiPicker52) NoFunction
          CFI (cfiPicker52) Picker
        MOV     A,R0
        MOVX    @DPTR,A
        INC     DPTR
        MOV     A,R1
        MOVX    @DPTR,A
          CFI EndBlock cfiCond50
          CFI EndBlock cfiCond51
          CFI EndBlock cfiPicker52
        REQUIRE ??Subroutine46_0
        ; // Fall through to label ??Subroutine46_0

        RSEG BANKED_CODE:CODE:NOROOT(0)
??Subroutine46_0:
          CFI Block cfiCond53 Using cfiCommon0
          CFI Function MT_AfDataRequest
          CFI Conditional ??CrossCallReturnLabel_88
          CFI R6 load(1, XDATA, add(CFA_XSP16, literal(-20)))
          CFI VB load(1, XDATA, add(CFA_XSP16, literal(-19)))
          CFI V0 load(1, XDATA, add(CFA_XSP16, literal(-18)))
          CFI V1 load(1, XDATA, add(CFA_XSP16, literal(-17)))
          CFI V2 load(1, XDATA, add(CFA_XSP16, literal(-16)))
          CFI V3 load(1, XDATA, add(CFA_XSP16, literal(-15)))
          CFI V4 load(1, XDATA, add(CFA_XSP16, literal(-14)))
          CFI V5 load(1, XDATA, add(CFA_XSP16, literal(-13)))
          CFI V6 load(1, XDATA, add(CFA_XSP16, literal(-12)))
          CFI V7 load(1, XDATA, add(CFA_XSP16, literal(-11)))
          CFI V8 load(1, XDATA, add(CFA_XSP16, literal(-10)))
          CFI V9 load(1, XDATA, add(CFA_XSP16, literal(-9)))
          CFI V10 load(1, XDATA, add(CFA_XSP16, literal(-8)))
          CFI V11 load(1, XDATA, add(CFA_XSP16, literal(-7)))
          CFI R7 load(1, XDATA, add(CFA_XSP16, literal(-6)))
          CFI ?RET_LOW load(1, XDATA, add(CFA_XSP16, literal(-5)))
          CFI ?RET_HIGH load(1, XDATA, add(CFA_XSP16, literal(-4)))
          CFI ?BRET_EXT load(1, XDATA, add(CFA_XSP16, literal(-3)))
          CFI DPL0 load(1, XDATA, add(CFA_XSP16, literal(-2)))
          CFI DPH0 load(1, XDATA, add(CFA_XSP16, literal(-1)))
          CFI CFA_SP SP+0
          CFI CFA_XSP16 add(XSP16, 34)
          CFI Block cfiCond54 Using cfiCommon0
          CFI (cfiCond54) Function MT_AfDataRequestSrcRtg
          CFI (cfiCond54) Conditional ??CrossCallReturnLabel_89
          CFI (cfiCond54) R6 load(1, XDATA, add(CFA_XSP16, literal(-20)))
          CFI (cfiCond54) VB load(1, XDATA, add(CFA_XSP16, literal(-19)))
          CFI (cfiCond54) V0 load(1, XDATA, add(CFA_XSP16, literal(-18)))
          CFI (cfiCond54) V1 load(1, XDATA, add(CFA_XSP16, literal(-17)))
          CFI (cfiCond54) V2 load(1, XDATA, add(CFA_XSP16, literal(-16)))
          CFI (cfiCond54) V3 load(1, XDATA, add(CFA_XSP16, literal(-15)))
          CFI (cfiCond54) V4 load(1, XDATA, add(CFA_XSP16, literal(-14)))
          CFI (cfiCond54) V5 load(1, XDATA, add(CFA_XSP16, literal(-13)))
          CFI (cfiCond54) V6 load(1, XDATA, add(CFA_XSP16, literal(-12)))
          CFI (cfiCond54) V7 load(1, XDATA, add(CFA_XSP16, literal(-11)))
          CFI (cfiCond54) V8 load(1, XDATA, add(CFA_XSP16, literal(-10)))
          CFI (cfiCond54) V9 load(1, XDATA, add(CFA_XSP16, literal(-9)))
          CFI (cfiCond54) V10 load(1, XDATA, add(CFA_XSP16, literal(-8)))
          CFI (cfiCond54) V11 load(1, XDATA, add(CFA_XSP16, literal(-7)))
          CFI (cfiCond54) R7 load(1, XDATA, add(CFA_XSP16, literal(-6)))
          CFI (cfiCond54) ?RET_LOW load(1, XDATA, add(CFA_XSP16, literal(-5)))
          CFI (cfiCond54) ?RET_HIGH load(1, XDATA, add(CFA_XSP16, literal(-4)))
          CFI (cfiCond54) ?BRET_EXT load(1, XDATA, add(CFA_XSP16, literal(-3)))
          CFI (cfiCond54) DPL0 load(1, XDATA, add(CFA_XSP16, literal(-2)))
          CFI (cfiCond54) DPH0 load(1, XDATA, add(CFA_XSP16, literal(-1)))
          CFI (cfiCond54) CFA_SP SP+0
          CFI (cfiCond54) CFA_XSP16 add(XSP16, 34)
          CFI Block cfiCond55 Using cfiCommon0
          CFI (cfiCond55) Function MT_AfDataRequest
          CFI (cfiCond55) Conditional ??CrossCallReturnLabel_86
          CFI (cfiCond55) R6 load(1, XDATA, add(CFA_XSP16, literal(-20)))
          CFI (cfiCond55) VB load(1, XDATA, add(CFA_XSP16, literal(-19)))
          CFI (cfiCond55) V0 load(1, XDATA, add(CFA_XSP16, literal(-18)))
          CFI (cfiCond55) V1 load(1, XDATA, add(CFA_XSP16, literal(-17)))
          CFI (cfiCond55) V2 load(1, XDATA, add(CFA_XSP16, literal(-16)))
          CFI (cfiCond55) V3 load(1, XDATA, add(CFA_XSP16, literal(-15)))
          CFI (cfiCond55) V4 load(1, XDATA, add(CFA_XSP16, literal(-14)))
          CFI (cfiCond55) V5 load(1, XDATA, add(CFA_XSP16, literal(-13)))
          CFI (cfiCond55) V6 load(1, XDATA, add(CFA_XSP16, literal(-12)))
          CFI (cfiCond55) V7 load(1, XDATA, add(CFA_XSP16, literal(-11)))
          CFI (cfiCond55) V8 load(1, XDATA, add(CFA_XSP16, literal(-10)))
          CFI (cfiCond55) V9 load(1, XDATA, add(CFA_XSP16, literal(-9)))
          CFI (cfiCond55) V10 load(1, XDATA, add(CFA_XSP16, literal(-8)))
          CFI (cfiCond55) V11 load(1, XDATA, add(CFA_XSP16, literal(-7)))
          CFI (cfiCond55) R7 load(1, XDATA, add(CFA_XSP16, literal(-6)))
          CFI (cfiCond55) ?RET_LOW load(1, XDATA, add(CFA_XSP16, literal(-5)))
          CFI (cfiCond55) ?RET_HIGH load(1, XDATA, add(CFA_XSP16, literal(-4)))
          CFI (cfiCond55) ?BRET_EXT load(1, XDATA, add(CFA_XSP16, literal(-3)))
          CFI (cfiCond55) DPL0 load(1, XDATA, add(CFA_XSP16, literal(-2)))
          CFI (cfiCond55) DPH0 load(1, XDATA, add(CFA_XSP16, literal(-1)))
          CFI (cfiCond55) CFA_SP SP+0
          CFI (cfiCond55) CFA_XSP16 add(XSP16, 34)
          CFI Block cfiCond56 Using cfiCommon0
          CFI (cfiCond56) Function MT_AfDataRequestSrcRtg
          CFI (cfiCond56) Conditional ??CrossCallReturnLabel_87
          CFI (cfiCond56) R6 load(1, XDATA, add(CFA_XSP16, literal(-20)))
          CFI (cfiCond56) VB load(1, XDATA, add(CFA_XSP16, literal(-19)))
          CFI (cfiCond56) V0 load(1, XDATA, add(CFA_XSP16, literal(-18)))
          CFI (cfiCond56) V1 load(1, XDATA, add(CFA_XSP16, literal(-17)))
          CFI (cfiCond56) V2 load(1, XDATA, add(CFA_XSP16, literal(-16)))
          CFI (cfiCond56) V3 load(1, XDATA, add(CFA_XSP16, literal(-15)))
          CFI (cfiCond56) V4 load(1, XDATA, add(CFA_XSP16, literal(-14)))
          CFI (cfiCond56) V5 load(1, XDATA, add(CFA_XSP16, literal(-13)))
          CFI (cfiCond56) V6 load(1, XDATA, add(CFA_XSP16, literal(-12)))
          CFI (cfiCond56) V7 load(1, XDATA, add(CFA_XSP16, literal(-11)))
          CFI (cfiCond56) V8 load(1, XDATA, add(CFA_XSP16, literal(-10)))
          CFI (cfiCond56) V9 load(1, XDATA, add(CFA_XSP16, literal(-9)))
          CFI (cfiCond56) V10 load(1, XDATA, add(CFA_XSP16, literal(-8)))
          CFI (cfiCond56) V11 load(1, XDATA, add(CFA_XSP16, literal(-7)))
          CFI (cfiCond56) R7 load(1, XDATA, add(CFA_XSP16, literal(-6)))
          CFI (cfiCond56) ?RET_LOW load(1, XDATA, add(CFA_XSP16, literal(-5)))
          CFI (cfiCond56) ?RET_HIGH load(1, XDATA, add(CFA_XSP16, literal(-4)))
          CFI (cfiCond56) ?BRET_EXT load(1, XDATA, add(CFA_XSP16, literal(-3)))
          CFI (cfiCond56) DPL0 load(1, XDATA, add(CFA_XSP16, literal(-2)))
          CFI (cfiCond56) DPH0 load(1, XDATA, add(CFA_XSP16, literal(-1)))
          CFI (cfiCond56) CFA_SP SP+0
          CFI (cfiCond56) CFA_XSP16 add(XSP16, 34)
          CFI Block cfiPicker57 Using cfiCommon1
          CFI (cfiPicker57) NoFunction
          CFI (cfiPicker57) Picker
        MOV     A,?V0 + 4
        ADD     A,#0x2
          CFI EndBlock cfiCond53
          CFI EndBlock cfiCond54
          CFI EndBlock cfiCond55
          CFI EndBlock cfiCond56
          CFI EndBlock cfiPicker57
        REQUIRE ??Subroutine47_0
        ; // Fall through to label ??Subroutine47_0

        RSEG BANKED_CODE:CODE:NOROOT(0)
??Subroutine47_0:
          CFI Block cfiCond58 Using cfiCommon0
          CFI Function MT_AfDataRequest
          CFI Conditional ??CrossCallReturnLabel_90
          CFI R6 load(1, XDATA, add(CFA_XSP16, literal(-20)))
          CFI VB load(1, XDATA, add(CFA_XSP16, literal(-19)))
          CFI V0 load(1, XDATA, add(CFA_XSP16, literal(-18)))
          CFI V1 load(1, XDATA, add(CFA_XSP16, literal(-17)))
          CFI V2 load(1, XDATA, add(CFA_XSP16, literal(-16)))
          CFI V3 load(1, XDATA, add(CFA_XSP16, literal(-15)))
          CFI V4 load(1, XDATA, add(CFA_XSP16, literal(-14)))
          CFI V5 load(1, XDATA, add(CFA_XSP16, literal(-13)))
          CFI V6 load(1, XDATA, add(CFA_XSP16, literal(-12)))
          CFI V7 load(1, XDATA, add(CFA_XSP16, literal(-11)))
          CFI V8 load(1, XDATA, add(CFA_XSP16, literal(-10)))
          CFI V9 load(1, XDATA, add(CFA_XSP16, literal(-9)))
          CFI V10 load(1, XDATA, add(CFA_XSP16, literal(-8)))
          CFI V11 load(1, XDATA, add(CFA_XSP16, literal(-7)))
          CFI R7 load(1, XDATA, add(CFA_XSP16, literal(-6)))
          CFI ?RET_LOW load(1, XDATA, add(CFA_XSP16, literal(-5)))
          CFI ?RET_HIGH load(1, XDATA, add(CFA_XSP16, literal(-4)))
          CFI ?BRET_EXT load(1, XDATA, add(CFA_XSP16, literal(-3)))
          CFI DPL0 load(1, XDATA, add(CFA_XSP16, literal(-2)))
          CFI DPH0 load(1, XDATA, add(CFA_XSP16, literal(-1)))
          CFI CFA_SP SP+0
          CFI CFA_XSP16 add(XSP16, 34)
          CFI Block cfiCond59 Using cfiCommon0
          CFI (cfiCond59) Function MT_AfDataRequest
          CFI (cfiCond59) Conditional ??CrossCallReturnLabel_88
          CFI (cfiCond59) R6 load(1, XDATA, add(CFA_XSP16, literal(-20)))
          CFI (cfiCond59) VB load(1, XDATA, add(CFA_XSP16, literal(-19)))
          CFI (cfiCond59) V0 load(1, XDATA, add(CFA_XSP16, literal(-18)))
          CFI (cfiCond59) V1 load(1, XDATA, add(CFA_XSP16, literal(-17)))
          CFI (cfiCond59) V2 load(1, XDATA, add(CFA_XSP16, literal(-16)))
          CFI (cfiCond59) V3 load(1, XDATA, add(CFA_XSP16, literal(-15)))
          CFI (cfiCond59) V4 load(1, XDATA, add(CFA_XSP16, literal(-14)))
          CFI (cfiCond59) V5 load(1, XDATA, add(CFA_XSP16, literal(-13)))
          CFI (cfiCond59) V6 load(1, XDATA, add(CFA_XSP16, literal(-12)))
          CFI (cfiCond59) V7 load(1, XDATA, add(CFA_XSP16, literal(-11)))
          CFI (cfiCond59) V8 load(1, XDATA, add(CFA_XSP16, literal(-10)))
          CFI (cfiCond59) V9 load(1, XDATA, add(CFA_XSP16, literal(-9)))
          CFI (cfiCond59) V10 load(1, XDATA, add(CFA_XSP16, literal(-8)))
          CFI (cfiCond59) V11 load(1, XDATA, add(CFA_XSP16, literal(-7)))
          CFI (cfiCond59) R7 load(1, XDATA, add(CFA_XSP16, literal(-6)))
          CFI (cfiCond59) ?RET_LOW load(1, XDATA, add(CFA_XSP16, literal(-5)))
          CFI (cfiCond59) ?RET_HIGH load(1, XDATA, add(CFA_XSP16, literal(-4)))
          CFI (cfiCond59) ?BRET_EXT load(1, XDATA, add(CFA_XSP16, literal(-3)))
          CFI (cfiCond59) DPL0 load(1, XDATA, add(CFA_XSP16, literal(-2)))
          CFI (cfiCond59) DPH0 load(1, XDATA, add(CFA_XSP16, literal(-1)))
          CFI (cfiCond59) CFA_SP SP+0
          CFI (cfiCond59) CFA_XSP16 add(XSP16, 34)
          CFI Block cfiCond60 Using cfiCommon0
          CFI (cfiCond60) Function MT_AfDataRequestSrcRtg
          CFI (cfiCond60) Conditional ??CrossCallReturnLabel_89
          CFI (cfiCond60) R6 load(1, XDATA, add(CFA_XSP16, literal(-20)))
          CFI (cfiCond60) VB load(1, XDATA, add(CFA_XSP16, literal(-19)))
          CFI (cfiCond60) V0 load(1, XDATA, add(CFA_XSP16, literal(-18)))
          CFI (cfiCond60) V1 load(1, XDATA, add(CFA_XSP16, literal(-17)))
          CFI (cfiCond60) V2 load(1, XDATA, add(CFA_XSP16, literal(-16)))
          CFI (cfiCond60) V3 load(1, XDATA, add(CFA_XSP16, literal(-15)))
          CFI (cfiCond60) V4 load(1, XDATA, add(CFA_XSP16, literal(-14)))
          CFI (cfiCond60) V5 load(1, XDATA, add(CFA_XSP16, literal(-13)))
          CFI (cfiCond60) V6 load(1, XDATA, add(CFA_XSP16, literal(-12)))
          CFI (cfiCond60) V7 load(1, XDATA, add(CFA_XSP16, literal(-11)))
          CFI (cfiCond60) V8 load(1, XDATA, add(CFA_XSP16, literal(-10)))
          CFI (cfiCond60) V9 load(1, XDATA, add(CFA_XSP16, literal(-9)))
          CFI (cfiCond60) V10 load(1, XDATA, add(CFA_XSP16, literal(-8)))
          CFI (cfiCond60) V11 load(1, XDATA, add(CFA_XSP16, literal(-7)))
          CFI (cfiCond60) R7 load(1, XDATA, add(CFA_XSP16, literal(-6)))
          CFI (cfiCond60) ?RET_LOW load(1, XDATA, add(CFA_XSP16, literal(-5)))
          CFI (cfiCond60) ?RET_HIGH load(1, XDATA, add(CFA_XSP16, literal(-4)))
          CFI (cfiCond60) ?BRET_EXT load(1, XDATA, add(CFA_XSP16, literal(-3)))
          CFI (cfiCond60) DPL0 load(1, XDATA, add(CFA_XSP16, literal(-2)))
          CFI (cfiCond60) DPH0 load(1, XDATA, add(CFA_XSP16, literal(-1)))
          CFI (cfiCond60) CFA_SP SP+0
          CFI (cfiCond60) CFA_XSP16 add(XSP16, 34)
          CFI Block cfiCond61 Using cfiCommon0
          CFI (cfiCond61) Function MT_AfDataRequest
          CFI (cfiCond61) Conditional ??CrossCallReturnLabel_86
          CFI (cfiCond61) R6 load(1, XDATA, add(CFA_XSP16, literal(-20)))
          CFI (cfiCond61) VB load(1, XDATA, add(CFA_XSP16, literal(-19)))
          CFI (cfiCond61) V0 load(1, XDATA, add(CFA_XSP16, literal(-18)))
          CFI (cfiCond61) V1 load(1, XDATA, add(CFA_XSP16, literal(-17)))
          CFI (cfiCond61) V2 load(1, XDATA, add(CFA_XSP16, literal(-16)))
          CFI (cfiCond61) V3 load(1, XDATA, add(CFA_XSP16, literal(-15)))
          CFI (cfiCond61) V4 load(1, XDATA, add(CFA_XSP16, literal(-14)))
          CFI (cfiCond61) V5 load(1, XDATA, add(CFA_XSP16, literal(-13)))
          CFI (cfiCond61) V6 load(1, XDATA, add(CFA_XSP16, literal(-12)))
          CFI (cfiCond61) V7 load(1, XDATA, add(CFA_XSP16, literal(-11)))
          CFI (cfiCond61) V8 load(1, XDATA, add(CFA_XSP16, literal(-10)))
          CFI (cfiCond61) V9 load(1, XDATA, add(CFA_XSP16, literal(-9)))
          CFI (cfiCond61) V10 load(1, XDATA, add(CFA_XSP16, literal(-8)))
          CFI (cfiCond61) V11 load(1, XDATA, add(CFA_XSP16, literal(-7)))
          CFI (cfiCond61) R7 load(1, XDATA, add(CFA_XSP16, literal(-6)))
          CFI (cfiCond61) ?RET_LOW load(1, XDATA, add(CFA_XSP16, literal(-5)))
          CFI (cfiCond61) ?RET_HIGH load(1, XDATA, add(CFA_XSP16, literal(-4)))
          CFI (cfiCond61) ?BRET_EXT load(1, XDATA, add(CFA_XSP16, literal(-3)))
          CFI (cfiCond61) DPL0 load(1, XDATA, add(CFA_XSP16, literal(-2)))
          CFI (cfiCond61) DPH0 load(1, XDATA, add(CFA_XSP16, literal(-1)))
          CFI (cfiCond61) CFA_SP SP+0
          CFI (cfiCond61) CFA_XSP16 add(XSP16, 34)
          CFI Block cfiCond62 Using cfiCommon0
          CFI (cfiCond62) Function MT_AfDataRequestSrcRtg
          CFI (cfiCond62) Conditional ??CrossCallReturnLabel_87
          CFI (cfiCond62) R6 load(1, XDATA, add(CFA_XSP16, literal(-20)))
          CFI (cfiCond62) VB load(1, XDATA, add(CFA_XSP16, literal(-19)))
          CFI (cfiCond62) V0 load(1, XDATA, add(CFA_XSP16, literal(-18)))
          CFI (cfiCond62) V1 load(1, XDATA, add(CFA_XSP16, literal(-17)))
          CFI (cfiCond62) V2 load(1, XDATA, add(CFA_XSP16, literal(-16)))
          CFI (cfiCond62) V3 load(1, XDATA, add(CFA_XSP16, literal(-15)))
          CFI (cfiCond62) V4 load(1, XDATA, add(CFA_XSP16, literal(-14)))
          CFI (cfiCond62) V5 load(1, XDATA, add(CFA_XSP16, literal(-13)))
          CFI (cfiCond62) V6 load(1, XDATA, add(CFA_XSP16, literal(-12)))
          CFI (cfiCond62) V7 load(1, XDATA, add(CFA_XSP16, literal(-11)))
          CFI (cfiCond62) V8 load(1, XDATA, add(CFA_XSP16, literal(-10)))
          CFI (cfiCond62) V9 load(1, XDATA, add(CFA_XSP16, literal(-9)))
          CFI (cfiCond62) V10 load(1, XDATA, add(CFA_XSP16, literal(-8)))
          CFI (cfiCond62) V11 load(1, XDATA, add(CFA_XSP16, literal(-7)))
          CFI (cfiCond62) R7 load(1, XDATA, add(CFA_XSP16, literal(-6)))
          CFI (cfiCond62) ?RET_LOW load(1, XDATA, add(CFA_XSP16, literal(-5)))
          CFI (cfiCond62) ?RET_HIGH load(1, XDATA, add(CFA_XSP16, literal(-4)))
          CFI (cfiCond62) ?BRET_EXT load(1, XDATA, add(CFA_XSP16, literal(-3)))
          CFI (cfiCond62) DPL0 load(1, XDATA, add(CFA_XSP16, literal(-2)))
          CFI (cfiCond62) DPH0 load(1, XDATA, add(CFA_XSP16, literal(-1)))
          CFI (cfiCond62) CFA_SP SP+0
          CFI (cfiCond62) CFA_XSP16 add(XSP16, 34)
          CFI Block cfiPicker63 Using cfiCommon1
          CFI (cfiPicker63) NoFunction
          CFI (cfiPicker63) Picker
        MOV     ?V0 + 4,A
        MOV     A,?V0 + 5
        ADDC    A,#0x0
        MOV     ?V0 + 5,A
        MOV     DPL,?V0 + 4
        MOV     DPH,A
        MOVX    A,@DPTR
        RET
          CFI EndBlock cfiCond58
          CFI EndBlock cfiCond59
          CFI EndBlock cfiCond60
          CFI EndBlock cfiCond61
          CFI EndBlock cfiCond62
          CFI EndBlock cfiPicker63

        RSEG BANKED_CODE:CODE:NOROOT(0)
?Subroutine7:
          CFI Block cfiCond64 Using cfiCommon0
          CFI Function MT_AfDataRequest
          CFI Conditional ??CrossCallReturnLabel_4
          CFI R6 load(1, XDATA, add(CFA_XSP16, literal(-20)))
          CFI VB load(1, XDATA, add(CFA_XSP16, literal(-19)))
          CFI V0 load(1, XDATA, add(CFA_XSP16, literal(-18)))
          CFI V1 load(1, XDATA, add(CFA_XSP16, literal(-17)))
          CFI V2 load(1, XDATA, add(CFA_XSP16, literal(-16)))
          CFI V3 load(1, XDATA, add(CFA_XSP16, literal(-15)))
          CFI V4 load(1, XDATA, add(CFA_XSP16, literal(-14)))
          CFI V5 load(1, XDATA, add(CFA_XSP16, literal(-13)))
          CFI V6 load(1, XDATA, add(CFA_XSP16, literal(-12)))
          CFI V7 load(1, XDATA, add(CFA_XSP16, literal(-11)))
          CFI V8 load(1, XDATA, add(CFA_XSP16, literal(-10)))
          CFI V9 load(1, XDATA, add(CFA_XSP16, literal(-9)))
          CFI V10 load(1, XDATA, add(CFA_XSP16, literal(-8)))
          CFI V11 load(1, XDATA, add(CFA_XSP16, literal(-7)))
          CFI R7 load(1, XDATA, add(CFA_XSP16, literal(-6)))
          CFI ?RET_LOW load(1, XDATA, add(CFA_XSP16, literal(-5)))
          CFI ?RET_HIGH load(1, XDATA, add(CFA_XSP16, literal(-4)))
          CFI ?BRET_EXT load(1, XDATA, add(CFA_XSP16, literal(-3)))
          CFI DPL0 load(1, XDATA, add(CFA_XSP16, literal(-2)))
          CFI DPH0 load(1, XDATA, add(CFA_XSP16, literal(-1)))
          CFI CFA_SP SP+0
          CFI CFA_XSP16 add(XSP16, 34)
          CFI Block cfiCond65 Using cfiCommon0
          CFI (cfiCond65) Function MT_AfDataRequestSrcRtg
          CFI (cfiCond65) Conditional ??CrossCallReturnLabel_5
          CFI (cfiCond65) R6 load(1, XDATA, add(CFA_XSP16, literal(-20)))
          CFI (cfiCond65) VB load(1, XDATA, add(CFA_XSP16, literal(-19)))
          CFI (cfiCond65) V0 load(1, XDATA, add(CFA_XSP16, literal(-18)))
          CFI (cfiCond65) V1 load(1, XDATA, add(CFA_XSP16, literal(-17)))
          CFI (cfiCond65) V2 load(1, XDATA, add(CFA_XSP16, literal(-16)))
          CFI (cfiCond65) V3 load(1, XDATA, add(CFA_XSP16, literal(-15)))
          CFI (cfiCond65) V4 load(1, XDATA, add(CFA_XSP16, literal(-14)))
          CFI (cfiCond65) V5 load(1, XDATA, add(CFA_XSP16, literal(-13)))
          CFI (cfiCond65) V6 load(1, XDATA, add(CFA_XSP16, literal(-12)))
          CFI (cfiCond65) V7 load(1, XDATA, add(CFA_XSP16, literal(-11)))
          CFI (cfiCond65) V8 load(1, XDATA, add(CFA_XSP16, literal(-10)))
          CFI (cfiCond65) V9 load(1, XDATA, add(CFA_XSP16, literal(-9)))
          CFI (cfiCond65) V10 load(1, XDATA, add(CFA_XSP16, literal(-8)))
          CFI (cfiCond65) V11 load(1, XDATA, add(CFA_XSP16, literal(-7)))
          CFI (cfiCond65) R7 load(1, XDATA, add(CFA_XSP16, literal(-6)))
          CFI (cfiCond65) ?RET_LOW load(1, XDATA, add(CFA_XSP16, literal(-5)))
          CFI (cfiCond65) ?RET_HIGH load(1, XDATA, add(CFA_XSP16, literal(-4)))
          CFI (cfiCond65) ?BRET_EXT load(1, XDATA, add(CFA_XSP16, literal(-3)))
          CFI (cfiCond65) DPL0 load(1, XDATA, add(CFA_XSP16, literal(-2)))
          CFI (cfiCond65) DPH0 load(1, XDATA, add(CFA_XSP16, literal(-1)))
          CFI (cfiCond65) CFA_SP SP+0
          CFI (cfiCond65) CFA_XSP16 add(XSP16, 34)
          CFI Block cfiPicker66 Using cfiCommon1
          CFI (cfiPicker66) NoFunction
          CFI (cfiPicker66) Picker
        LCALL   ?Subroutine41 & 0xFFFF
??CrossCallReturnLabel_95:
        ADD     A,#0x0
        MOV     ?V0 + 8,A
        CLR     A
        ADDC    A,R1
        MOV     ?V0 + 9,A
        RET
          CFI EndBlock cfiCond64
          CFI EndBlock cfiCond65
          CFI EndBlock cfiPicker66

        RSEG BANKED_CODE:CODE:NOROOT(0)
?Subroutine41:
          CFI Block cfiCond67 Using cfiCommon0
          CFI Function MT_AfDataRequest
          CFI Conditional ??CrossCallReturnLabel_94
          CFI R6 load(1, XDATA, add(CFA_XSP16, literal(-20)))
          CFI VB load(1, XDATA, add(CFA_XSP16, literal(-19)))
          CFI V0 load(1, XDATA, add(CFA_XSP16, literal(-18)))
          CFI V1 load(1, XDATA, add(CFA_XSP16, literal(-17)))
          CFI V2 load(1, XDATA, add(CFA_XSP16, literal(-16)))
          CFI V3 load(1, XDATA, add(CFA_XSP16, literal(-15)))
          CFI V4 load(1, XDATA, add(CFA_XSP16, literal(-14)))
          CFI V5 load(1, XDATA, add(CFA_XSP16, literal(-13)))
          CFI V6 load(1, XDATA, add(CFA_XSP16, literal(-12)))
          CFI V7 load(1, XDATA, add(CFA_XSP16, literal(-11)))
          CFI V8 load(1, XDATA, add(CFA_XSP16, literal(-10)))
          CFI V9 load(1, XDATA, add(CFA_XSP16, literal(-9)))
          CFI V10 load(1, XDATA, add(CFA_XSP16, literal(-8)))
          CFI V11 load(1, XDATA, add(CFA_XSP16, literal(-7)))
          CFI R7 load(1, XDATA, add(CFA_XSP16, literal(-6)))
          CFI ?RET_LOW load(1, XDATA, add(CFA_XSP16, literal(-5)))
          CFI ?RET_HIGH load(1, XDATA, add(CFA_XSP16, literal(-4)))
          CFI ?BRET_EXT load(1, XDATA, add(CFA_XSP16, literal(-3)))
          CFI DPL0 load(1, XDATA, add(CFA_XSP16, literal(-2)))
          CFI DPH0 load(1, XDATA, add(CFA_XSP16, literal(-1)))
          CFI CFA_SP SP+0
          CFI CFA_XSP16 add(XSP16, 34)
          CFI Block cfiCond68 Using cfiCommon0
          CFI (cfiCond68) Function MT_AfDataRequest
          CFI (cfiCond68) Conditional ??CrossCallReturnLabel_95, ??CrossCallReturnLabel_4
          CFI (cfiCond68) R6 load(1, XDATA, add(CFA_XSP16, literal(-20)))
          CFI (cfiCond68) VB load(1, XDATA, add(CFA_XSP16, literal(-19)))
          CFI (cfiCond68) V0 load(1, XDATA, add(CFA_XSP16, literal(-18)))
          CFI (cfiCond68) V1 load(1, XDATA, add(CFA_XSP16, literal(-17)))
          CFI (cfiCond68) V2 load(1, XDATA, add(CFA_XSP16, literal(-16)))
          CFI (cfiCond68) V3 load(1, XDATA, add(CFA_XSP16, literal(-15)))
          CFI (cfiCond68) V4 load(1, XDATA, add(CFA_XSP16, literal(-14)))
          CFI (cfiCond68) V5 load(1, XDATA, add(CFA_XSP16, literal(-13)))
          CFI (cfiCond68) V6 load(1, XDATA, add(CFA_XSP16, literal(-12)))
          CFI (cfiCond68) V7 load(1, XDATA, add(CFA_XSP16, literal(-11)))
          CFI (cfiCond68) V8 load(1, XDATA, add(CFA_XSP16, literal(-10)))
          CFI (cfiCond68) V9 load(1, XDATA, add(CFA_XSP16, literal(-9)))
          CFI (cfiCond68) V10 load(1, XDATA, add(CFA_XSP16, literal(-8)))
          CFI (cfiCond68) V11 load(1, XDATA, add(CFA_XSP16, literal(-7)))
          CFI (cfiCond68) R7 load(1, XDATA, add(CFA_XSP16, literal(-6)))
          CFI (cfiCond68) ?RET_LOW load(1, XDATA, add(CFA_XSP16, literal(-5)))
          CFI (cfiCond68) ?RET_HIGH load(1, XDATA, add(CFA_XSP16, literal(-4)))
          CFI (cfiCond68) ?BRET_EXT load(1, XDATA, add(CFA_XSP16, literal(-3)))
          CFI (cfiCond68) DPL0 load(1, XDATA, add(CFA_XSP16, literal(-2)))
          CFI (cfiCond68) DPH0 load(1, XDATA, add(CFA_XSP16, literal(-1)))
          CFI (cfiCond68) CFA_SP SP+0
          CFI (cfiCond68) CFA_XSP16 add(XSP16, 34)
          CFI Block cfiCond69 Using cfiCommon0
          CFI (cfiCond69) Function MT_AfDataRequestSrcRtg
          CFI (cfiCond69) Conditional ??CrossCallReturnLabel_95, ??CrossCallReturnLabel_5
          CFI (cfiCond69) R6 load(1, XDATA, add(CFA_XSP16, literal(-20)))
          CFI (cfiCond69) VB load(1, XDATA, add(CFA_XSP16, literal(-19)))
          CFI (cfiCond69) V0 load(1, XDATA, add(CFA_XSP16, literal(-18)))
          CFI (cfiCond69) V1 load(1, XDATA, add(CFA_XSP16, literal(-17)))
          CFI (cfiCond69) V2 load(1, XDATA, add(CFA_XSP16, literal(-16)))
          CFI (cfiCond69) V3 load(1, XDATA, add(CFA_XSP16, literal(-15)))
          CFI (cfiCond69) V4 load(1, XDATA, add(CFA_XSP16, literal(-14)))
          CFI (cfiCond69) V5 load(1, XDATA, add(CFA_XSP16, literal(-13)))
          CFI (cfiCond69) V6 load(1, XDATA, add(CFA_XSP16, literal(-12)))
          CFI (cfiCond69) V7 load(1, XDATA, add(CFA_XSP16, literal(-11)))
          CFI (cfiCond69) V8 load(1, XDATA, add(CFA_XSP16, literal(-10)))
          CFI (cfiCond69) V9 load(1, XDATA, add(CFA_XSP16, literal(-9)))
          CFI (cfiCond69) V10 load(1, XDATA, add(CFA_XSP16, literal(-8)))
          CFI (cfiCond69) V11 load(1, XDATA, add(CFA_XSP16, literal(-7)))
          CFI (cfiCond69) R7 load(1, XDATA, add(CFA_XSP16, literal(-6)))
          CFI (cfiCond69) ?RET_LOW load(1, XDATA, add(CFA_XSP16, literal(-5)))
          CFI (cfiCond69) ?RET_HIGH load(1, XDATA, add(CFA_XSP16, literal(-4)))
          CFI (cfiCond69) ?BRET_EXT load(1, XDATA, add(CFA_XSP16, literal(-3)))
          CFI (cfiCond69) DPL0 load(1, XDATA, add(CFA_XSP16, literal(-2)))
          CFI (cfiCond69) DPH0 load(1, XDATA, add(CFA_XSP16, literal(-1)))
          CFI (cfiCond69) CFA_SP SP+0
          CFI (cfiCond69) CFA_XSP16 add(XSP16, 34)
          CFI Block cfiCond70 Using cfiCommon0
          CFI (cfiCond70) Function MT_AfDataRequest
          CFI (cfiCond70) Conditional ??CrossCallReturnLabel_96, ??CrossCallReturnLabel_91
          CFI (cfiCond70) R6 load(1, XDATA, add(CFA_XSP16, literal(-20)))
          CFI (cfiCond70) VB load(1, XDATA, add(CFA_XSP16, literal(-19)))
          CFI (cfiCond70) V0 load(1, XDATA, add(CFA_XSP16, literal(-18)))
          CFI (cfiCond70) V1 load(1, XDATA, add(CFA_XSP16, literal(-17)))
          CFI (cfiCond70) V2 load(1, XDATA, add(CFA_XSP16, literal(-16)))
          CFI (cfiCond70) V3 load(1, XDATA, add(CFA_XSP16, literal(-15)))
          CFI (cfiCond70) V4 load(1, XDATA, add(CFA_XSP16, literal(-14)))
          CFI (cfiCond70) V5 load(1, XDATA, add(CFA_XSP16, literal(-13)))
          CFI (cfiCond70) V6 load(1, XDATA, add(CFA_XSP16, literal(-12)))
          CFI (cfiCond70) V7 load(1, XDATA, add(CFA_XSP16, literal(-11)))
          CFI (cfiCond70) V8 load(1, XDATA, add(CFA_XSP16, literal(-10)))
          CFI (cfiCond70) V9 load(1, XDATA, add(CFA_XSP16, literal(-9)))
          CFI (cfiCond70) V10 load(1, XDATA, add(CFA_XSP16, literal(-8)))
          CFI (cfiCond70) V11 load(1, XDATA, add(CFA_XSP16, literal(-7)))
          CFI (cfiCond70) R7 load(1, XDATA, add(CFA_XSP16, literal(-6)))
          CFI (cfiCond70) ?RET_LOW load(1, XDATA, add(CFA_XSP16, literal(-5)))
          CFI (cfiCond70) ?RET_HIGH load(1, XDATA, add(CFA_XSP16, literal(-4)))
          CFI (cfiCond70) ?BRET_EXT load(1, XDATA, add(CFA_XSP16, literal(-3)))
          CFI (cfiCond70) DPL0 load(1, XDATA, add(CFA_XSP16, literal(-2)))
          CFI (cfiCond70) DPH0 load(1, XDATA, add(CFA_XSP16, literal(-1)))
          CFI (cfiCond70) CFA_SP SP+0
          CFI (cfiCond70) CFA_XSP16 add(XSP16, 34)
          CFI Block cfiCond71 Using cfiCommon0
          CFI (cfiCond71) Function MT_AfDataRequestSrcRtg
          CFI (cfiCond71) Conditional ??CrossCallReturnLabel_96, ??CrossCallReturnLabel_92
          CFI (cfiCond71) R6 load(1, XDATA, add(CFA_XSP16, literal(-20)))
          CFI (cfiCond71) VB load(1, XDATA, add(CFA_XSP16, literal(-19)))
          CFI (cfiCond71) V0 load(1, XDATA, add(CFA_XSP16, literal(-18)))
          CFI (cfiCond71) V1 load(1, XDATA, add(CFA_XSP16, literal(-17)))
          CFI (cfiCond71) V2 load(1, XDATA, add(CFA_XSP16, literal(-16)))
          CFI (cfiCond71) V3 load(1, XDATA, add(CFA_XSP16, literal(-15)))
          CFI (cfiCond71) V4 load(1, XDATA, add(CFA_XSP16, literal(-14)))
          CFI (cfiCond71) V5 load(1, XDATA, add(CFA_XSP16, literal(-13)))
          CFI (cfiCond71) V6 load(1, XDATA, add(CFA_XSP16, literal(-12)))
          CFI (cfiCond71) V7 load(1, XDATA, add(CFA_XSP16, literal(-11)))
          CFI (cfiCond71) V8 load(1, XDATA, add(CFA_XSP16, literal(-10)))
          CFI (cfiCond71) V9 load(1, XDATA, add(CFA_XSP16, literal(-9)))
          CFI (cfiCond71) V10 load(1, XDATA, add(CFA_XSP16, literal(-8)))
          CFI (cfiCond71) V11 load(1, XDATA, add(CFA_XSP16, literal(-7)))
          CFI (cfiCond71) R7 load(1, XDATA, add(CFA_XSP16, literal(-6)))
          CFI (cfiCond71) ?RET_LOW load(1, XDATA, add(CFA_XSP16, literal(-5)))
          CFI (cfiCond71) ?RET_HIGH load(1, XDATA, add(CFA_XSP16, literal(-4)))
          CFI (cfiCond71) ?BRET_EXT load(1, XDATA, add(CFA_XSP16, literal(-3)))
          CFI (cfiCond71) DPL0 load(1, XDATA, add(CFA_XSP16, literal(-2)))
          CFI (cfiCond71) DPH0 load(1, XDATA, add(CFA_XSP16, literal(-1)))
          CFI (cfiCond71) CFA_SP SP+0
          CFI (cfiCond71) CFA_XSP16 add(XSP16, 34)
          CFI Block cfiCond72 Using cfiCommon0
          CFI (cfiCond72) Function MT_AfDataRequest
          CFI (cfiCond72) Conditional ??CrossCallReturnLabel_96, ??CrossCallReturnLabel_93
          CFI (cfiCond72) R6 load(1, XDATA, add(CFA_XSP16, literal(-20)))
          CFI (cfiCond72) VB load(1, XDATA, add(CFA_XSP16, literal(-19)))
          CFI (cfiCond72) V0 load(1, XDATA, add(CFA_XSP16, literal(-18)))
          CFI (cfiCond72) V1 load(1, XDATA, add(CFA_XSP16, literal(-17)))
          CFI (cfiCond72) V2 load(1, XDATA, add(CFA_XSP16, literal(-16)))
          CFI (cfiCond72) V3 load(1, XDATA, add(CFA_XSP16, literal(-15)))
          CFI (cfiCond72) V4 load(1, XDATA, add(CFA_XSP16, literal(-14)))
          CFI (cfiCond72) V5 load(1, XDATA, add(CFA_XSP16, literal(-13)))
          CFI (cfiCond72) V6 load(1, XDATA, add(CFA_XSP16, literal(-12)))
          CFI (cfiCond72) V7 load(1, XDATA, add(CFA_XSP16, literal(-11)))
          CFI (cfiCond72) V8 load(1, XDATA, add(CFA_XSP16, literal(-10)))
          CFI (cfiCond72) V9 load(1, XDATA, add(CFA_XSP16, literal(-9)))
          CFI (cfiCond72) V10 load(1, XDATA, add(CFA_XSP16, literal(-8)))
          CFI (cfiCond72) V11 load(1, XDATA, add(CFA_XSP16, literal(-7)))
          CFI (cfiCond72) R7 load(1, XDATA, add(CFA_XSP16, literal(-6)))
          CFI (cfiCond72) ?RET_LOW load(1, XDATA, add(CFA_XSP16, literal(-5)))
          CFI (cfiCond72) ?RET_HIGH load(1, XDATA, add(CFA_XSP16, literal(-4)))
          CFI (cfiCond72) ?BRET_EXT load(1, XDATA, add(CFA_XSP16, literal(-3)))
          CFI (cfiCond72) DPL0 load(1, XDATA, add(CFA_XSP16, literal(-2)))
          CFI (cfiCond72) DPH0 load(1, XDATA, add(CFA_XSP16, literal(-1)))
          CFI (cfiCond72) CFA_SP SP+0
          CFI (cfiCond72) CFA_XSP16 add(XSP16, 34)
          CFI Block cfiPicker73 Using cfiCommon1
          CFI (cfiPicker73) NoFunction
          CFI (cfiPicker73) Picker
        MOVX    A,@DPTR
        MOV     R2,A
        INC     DPTR
        MOVX    A,@DPTR
        MOV     R1,A
        MOV     A,R2
        RET
          CFI EndBlock cfiCond67
          CFI EndBlock cfiCond68
          CFI EndBlock cfiCond69
          CFI EndBlock cfiCond70
          CFI EndBlock cfiCond71
          CFI EndBlock cfiCond72
          CFI EndBlock cfiPicker73

        RSEG BANKED_CODE:CODE:NOROOT(0)
?Subroutine5:
          CFI Block cfiCond74 Using cfiCommon0
          CFI Function MT_AfDataRequest
          CFI Conditional ??CrossCallReturnLabel_91
          CFI R6 load(1, XDATA, add(CFA_XSP16, literal(-20)))
          CFI VB load(1, XDATA, add(CFA_XSP16, literal(-19)))
          CFI V0 load(1, XDATA, add(CFA_XSP16, literal(-18)))
          CFI V1 load(1, XDATA, add(CFA_XSP16, literal(-17)))
          CFI V2 load(1, XDATA, add(CFA_XSP16, literal(-16)))
          CFI V3 load(1, XDATA, add(CFA_XSP16, literal(-15)))
          CFI V4 load(1, XDATA, add(CFA_XSP16, literal(-14)))
          CFI V5 load(1, XDATA, add(CFA_XSP16, literal(-13)))
          CFI V6 load(1, XDATA, add(CFA_XSP16, literal(-12)))
          CFI V7 load(1, XDATA, add(CFA_XSP16, literal(-11)))
          CFI V8 load(1, XDATA, add(CFA_XSP16, literal(-10)))
          CFI V9 load(1, XDATA, add(CFA_XSP16, literal(-9)))
          CFI V10 load(1, XDATA, add(CFA_XSP16, literal(-8)))
          CFI V11 load(1, XDATA, add(CFA_XSP16, literal(-7)))
          CFI R7 load(1, XDATA, add(CFA_XSP16, literal(-6)))
          CFI ?RET_LOW load(1, XDATA, add(CFA_XSP16, literal(-5)))
          CFI ?RET_HIGH load(1, XDATA, add(CFA_XSP16, literal(-4)))
          CFI ?BRET_EXT load(1, XDATA, add(CFA_XSP16, literal(-3)))
          CFI DPL0 load(1, XDATA, add(CFA_XSP16, literal(-2)))
          CFI DPH0 load(1, XDATA, add(CFA_XSP16, literal(-1)))
          CFI CFA_SP SP+0
          CFI CFA_XSP16 add(XSP16, 34)
          CFI Block cfiCond75 Using cfiCommon0
          CFI (cfiCond75) Function MT_AfDataRequestSrcRtg
          CFI (cfiCond75) Conditional ??CrossCallReturnLabel_92
          CFI (cfiCond75) R6 load(1, XDATA, add(CFA_XSP16, literal(-20)))
          CFI (cfiCond75) VB load(1, XDATA, add(CFA_XSP16, literal(-19)))
          CFI (cfiCond75) V0 load(1, XDATA, add(CFA_XSP16, literal(-18)))
          CFI (cfiCond75) V1 load(1, XDATA, add(CFA_XSP16, literal(-17)))
          CFI (cfiCond75) V2 load(1, XDATA, add(CFA_XSP16, literal(-16)))
          CFI (cfiCond75) V3 load(1, XDATA, add(CFA_XSP16, literal(-15)))
          CFI (cfiCond75) V4 load(1, XDATA, add(CFA_XSP16, literal(-14)))
          CFI (cfiCond75) V5 load(1, XDATA, add(CFA_XSP16, literal(-13)))
          CFI (cfiCond75) V6 load(1, XDATA, add(CFA_XSP16, literal(-12)))
          CFI (cfiCond75) V7 load(1, XDATA, add(CFA_XSP16, literal(-11)))
          CFI (cfiCond75) V8 load(1, XDATA, add(CFA_XSP16, literal(-10)))
          CFI (cfiCond75) V9 load(1, XDATA, add(CFA_XSP16, literal(-9)))
          CFI (cfiCond75) V10 load(1, XDATA, add(CFA_XSP16, literal(-8)))
          CFI (cfiCond75) V11 load(1, XDATA, add(CFA_XSP16, literal(-7)))
          CFI (cfiCond75) R7 load(1, XDATA, add(CFA_XSP16, literal(-6)))
          CFI (cfiCond75) ?RET_LOW load(1, XDATA, add(CFA_XSP16, literal(-5)))
          CFI (cfiCond75) ?RET_HIGH load(1, XDATA, add(CFA_XSP16, literal(-4)))
          CFI (cfiCond75) ?BRET_EXT load(1, XDATA, add(CFA_XSP16, literal(-3)))
          CFI (cfiCond75) DPL0 load(1, XDATA, add(CFA_XSP16, literal(-2)))
          CFI (cfiCond75) DPH0 load(1, XDATA, add(CFA_XSP16, literal(-1)))
          CFI (cfiCond75) CFA_SP SP+0
          CFI (cfiCond75) CFA_XSP16 add(XSP16, 34)
          CFI Block cfiPicker76 Using cfiCommon1
          CFI (cfiPicker76) NoFunction
          CFI (cfiPicker76) Picker
        MOV     A,#0x2
        MOVX    @DPTR,A
        MOV     DPL,?V0 + 4
        MOV     DPH,?V0 + 5
          CFI EndBlock cfiCond74
          CFI EndBlock cfiCond75
          CFI EndBlock cfiPicker76
        REQUIRE ??Subroutine48_0
        ; // Fall through to label ??Subroutine48_0

        RSEG BANKED_CODE:CODE:NOROOT(0)
??Subroutine48_0:
          CFI Block cfiCond77 Using cfiCommon0
          CFI Function MT_AfDataRequest
          CFI Conditional ??CrossCallReturnLabel_93
          CFI R6 load(1, XDATA, add(CFA_XSP16, literal(-20)))
          CFI VB load(1, XDATA, add(CFA_XSP16, literal(-19)))
          CFI V0 load(1, XDATA, add(CFA_XSP16, literal(-18)))
          CFI V1 load(1, XDATA, add(CFA_XSP16, literal(-17)))
          CFI V2 load(1, XDATA, add(CFA_XSP16, literal(-16)))
          CFI V3 load(1, XDATA, add(CFA_XSP16, literal(-15)))
          CFI V4 load(1, XDATA, add(CFA_XSP16, literal(-14)))
          CFI V5 load(1, XDATA, add(CFA_XSP16, literal(-13)))
          CFI V6 load(1, XDATA, add(CFA_XSP16, literal(-12)))
          CFI V7 load(1, XDATA, add(CFA_XSP16, literal(-11)))
          CFI V8 load(1, XDATA, add(CFA_XSP16, literal(-10)))
          CFI V9 load(1, XDATA, add(CFA_XSP16, literal(-9)))
          CFI V10 load(1, XDATA, add(CFA_XSP16, literal(-8)))
          CFI V11 load(1, XDATA, add(CFA_XSP16, literal(-7)))
          CFI R7 load(1, XDATA, add(CFA_XSP16, literal(-6)))
          CFI ?RET_LOW load(1, XDATA, add(CFA_XSP16, literal(-5)))
          CFI ?RET_HIGH load(1, XDATA, add(CFA_XSP16, literal(-4)))
          CFI ?BRET_EXT load(1, XDATA, add(CFA_XSP16, literal(-3)))
          CFI DPL0 load(1, XDATA, add(CFA_XSP16, literal(-2)))
          CFI DPH0 load(1, XDATA, add(CFA_XSP16, literal(-1)))
          CFI CFA_SP SP+0
          CFI CFA_XSP16 add(XSP16, 34)
          CFI Block cfiCond78 Using cfiCommon0
          CFI (cfiCond78) Function MT_AfDataRequest
          CFI (cfiCond78) Conditional ??CrossCallReturnLabel_91
          CFI (cfiCond78) R6 load(1, XDATA, add(CFA_XSP16, literal(-20)))
          CFI (cfiCond78) VB load(1, XDATA, add(CFA_XSP16, literal(-19)))
          CFI (cfiCond78) V0 load(1, XDATA, add(CFA_XSP16, literal(-18)))
          CFI (cfiCond78) V1 load(1, XDATA, add(CFA_XSP16, literal(-17)))
          CFI (cfiCond78) V2 load(1, XDATA, add(CFA_XSP16, literal(-16)))
          CFI (cfiCond78) V3 load(1, XDATA, add(CFA_XSP16, literal(-15)))
          CFI (cfiCond78) V4 load(1, XDATA, add(CFA_XSP16, literal(-14)))
          CFI (cfiCond78) V5 load(1, XDATA, add(CFA_XSP16, literal(-13)))
          CFI (cfiCond78) V6 load(1, XDATA, add(CFA_XSP16, literal(-12)))
          CFI (cfiCond78) V7 load(1, XDATA, add(CFA_XSP16, literal(-11)))
          CFI (cfiCond78) V8 load(1, XDATA, add(CFA_XSP16, literal(-10)))
          CFI (cfiCond78) V9 load(1, XDATA, add(CFA_XSP16, literal(-9)))
          CFI (cfiCond78) V10 load(1, XDATA, add(CFA_XSP16, literal(-8)))
          CFI (cfiCond78) V11 load(1, XDATA, add(CFA_XSP16, literal(-7)))
          CFI (cfiCond78) R7 load(1, XDATA, add(CFA_XSP16, literal(-6)))
          CFI (cfiCond78) ?RET_LOW load(1, XDATA, add(CFA_XSP16, literal(-5)))
          CFI (cfiCond78) ?RET_HIGH load(1, XDATA, add(CFA_XSP16, literal(-4)))
          CFI (cfiCond78) ?BRET_EXT load(1, XDATA, add(CFA_XSP16, literal(-3)))
          CFI (cfiCond78) DPL0 load(1, XDATA, add(CFA_XSP16, literal(-2)))
          CFI (cfiCond78) DPH0 load(1, XDATA, add(CFA_XSP16, literal(-1)))
          CFI (cfiCond78) CFA_SP SP+0
          CFI (cfiCond78) CFA_XSP16 add(XSP16, 34)
          CFI Block cfiCond79 Using cfiCommon0
          CFI (cfiCond79) Function MT_AfDataRequestSrcRtg
          CFI (cfiCond79) Conditional ??CrossCallReturnLabel_92
          CFI (cfiCond79) R6 load(1, XDATA, add(CFA_XSP16, literal(-20)))
          CFI (cfiCond79) VB load(1, XDATA, add(CFA_XSP16, literal(-19)))
          CFI (cfiCond79) V0 load(1, XDATA, add(CFA_XSP16, literal(-18)))
          CFI (cfiCond79) V1 load(1, XDATA, add(CFA_XSP16, literal(-17)))
          CFI (cfiCond79) V2 load(1, XDATA, add(CFA_XSP16, literal(-16)))
          CFI (cfiCond79) V3 load(1, XDATA, add(CFA_XSP16, literal(-15)))
          CFI (cfiCond79) V4 load(1, XDATA, add(CFA_XSP16, literal(-14)))
          CFI (cfiCond79) V5 load(1, XDATA, add(CFA_XSP16, literal(-13)))
          CFI (cfiCond79) V6 load(1, XDATA, add(CFA_XSP16, literal(-12)))
          CFI (cfiCond79) V7 load(1, XDATA, add(CFA_XSP16, literal(-11)))
          CFI (cfiCond79) V8 load(1, XDATA, add(CFA_XSP16, literal(-10)))
          CFI (cfiCond79) V9 load(1, XDATA, add(CFA_XSP16, literal(-9)))
          CFI (cfiCond79) V10 load(1, XDATA, add(CFA_XSP16, literal(-8)))
          CFI (cfiCond79) V11 load(1, XDATA, add(CFA_XSP16, literal(-7)))
          CFI (cfiCond79) R7 load(1, XDATA, add(CFA_XSP16, literal(-6)))
          CFI (cfiCond79) ?RET_LOW load(1, XDATA, add(CFA_XSP16, literal(-5)))
          CFI (cfiCond79) ?RET_HIGH load(1, XDATA, add(CFA_XSP16, literal(-4)))
          CFI (cfiCond79) ?BRET_EXT load(1, XDATA, add(CFA_XSP16, literal(-3)))
          CFI (cfiCond79) DPL0 load(1, XDATA, add(CFA_XSP16, literal(-2)))
          CFI (cfiCond79) DPH0 load(1, XDATA, add(CFA_XSP16, literal(-1)))
          CFI (cfiCond79) CFA_SP SP+0
          CFI (cfiCond79) CFA_XSP16 add(XSP16, 34)
          CFI Block cfiPicker80 Using cfiCommon1
          CFI (cfiPicker80) NoFunction
          CFI (cfiPicker80) Picker
        LCALL   ?Subroutine41 & 0xFFFF
??CrossCallReturnLabel_96:
        MOV     R0,A
        MOV     A,#0x2
        RET
          CFI EndBlock cfiCond77
          CFI EndBlock cfiCond78
          CFI EndBlock cfiCond79
          CFI EndBlock cfiPicker80
//  515 #endif
//  516 
//  517 #if defined INTER_PAN
//  518 /***************************************************************************************************
//  519  * @fn      MT_AfInterPanCtl
//  520  *
//  521  * @brief   Process the AF Inter Pan control command.
//  522  *
//  523  * @param   pBuf - pointer to the received buffer
//  524  *
//  525  * @return  none
//  526  ***************************************************************************************************/
//  527 static void MT_AfInterPanCtl(uint8 *pBuf)
//  528 {
//  529   uint8 cmd, rtrn;
//  530   uint16 panId;
//  531   endPointDesc_t *pEP;
//  532 
//  533   cmd = pBuf[MT_RPC_POS_CMD1];
//  534   pBuf += MT_RPC_FRAME_HDR_SZ;
//  535 
//  536   switch (*pBuf++)  // Inter-pan request parameter.
//  537   {
//  538   case InterPanClr:
//  539     rtrn = StubAPS_SetIntraPanChannel();           // Switch channel back to the NIB channel.
//  540     break;
//  541 
//  542   case InterPanSet:
//  543     rtrn = StubAPS_SetInterPanChannel(*pBuf);      // Set channel for inter-pan communication.
//  544     break;
//  545 
//  546   case InterPanReg:
//  547     if ((pEP = afFindEndPointDesc(*pBuf)))
//  548     {
//  549       StubAPS_RegisterApp(pEP);
//  550       rtrn = SUCCESS;
//  551     }
//  552     else
//  553     {
//  554       rtrn = FAILURE;
//  555     }
//  556     break;
//  557 
//  558   case InterPanChk:
//  559     panId = BUILD_UINT16(pBuf[0], pBuf[1]);
//  560     rtrn = (StubAPS_InterPan(panId, pBuf[2])) ? ZSuccess : ZFailure;
//  561     break;
//  562 
//  563   default:
//  564     rtrn = afStatus_INVALID_PARAMETER;
//  565     break;
//  566   }
//  567 
//  568   MT_BuildAndSendZToolResponse(((uint8)MT_RPC_CMD_SRSP | (uint8)MT_RPC_SYS_AF), cmd, 1, &rtrn);
//  569 }
//  570 #endif
//  571 
//  572 /***************************************************************************************************
//  573  * @fn      MT_AfDataConfirm
//  574  *
//  575  * @brief   Process
//  576  *
//  577  * @param   pBuf - pointer to the received buffer
//  578  *
//  579  * @return  none
//  580  ***************************************************************************************************/

        RSEG BANKED_CODE:CODE:NOROOT(0)
//  581 void MT_AfDataConfirm(afDataConfirm_t *pMsg)
MT_AfDataConfirm:
          CFI Block cfiBlock81 Using cfiCommon0
          CFI Function MT_AfDataConfirm
        CODE
//  582 {
        FUNCALL MT_AfDataConfirm, MT_BuildAndSendZToolResponse
        LOCFRAME ISTACK, 2, STACK
        LOCFRAME PSTACK, 0, STACK
        LOCFRAME XSTACK, 3, STACK
        LOCFRAME IOVERLAY, 0, STATIC
        LOCFRAME DOVERLAY, 0, STATIC
        ARGFRAME ISTACK, 2, STACK
        ARGFRAME PSTACK, 0, STACK
        ARGFRAME XSTACK, 3, STACK
        ARGFRAME IOVERLAY, 0, STATIC
        ARGFRAME DOVERLAY, 0, STATIC
        PUSH    DPL
          CFI DPL0 Frame(CFA_SP, 4)
          CFI CFA_SP SP+-4
        PUSH    DPH
          CFI DPH0 Frame(CFA_SP, 5)
          CFI CFA_SP SP+-5
        ; Saved register size: 2
        ; Auto size: 3
        MOV     A,#-0x3
        LCALL   ?ALLOC_XSTACK8
          CFI CFA_XSP16 add(XSP16, 3)
//  583   uint8 retArray[3];
//  584 
//  585   retArray[0] = pMsg->hdr.status;
        MOV     DPL,R2
        MOV     DPH,R3
        INC     DPTR
        MOVX    A,@DPTR
        MOV     DPL,?XSP + 0
        MOV     DPH,?XSP + 1
        LCALL   ?Subroutine34 & 0xFFFF
//  586   retArray[1] = pMsg->endpoint;
??CrossCallReturnLabel_56:
        INC     DPTR
        MOVX    A,@DPTR
        PUSH    A
          CFI CFA_SP SP+-6
        MOV     A,#0x1
        LCALL   ?XSTACK_DISP0_8
        POP     A
          CFI CFA_SP SP+-5
        LCALL   ?Subroutine34 & 0xFFFF
//  587   retArray[2] = pMsg->transID;
??CrossCallReturnLabel_57:
        INC     DPTR
        INC     DPTR
        MOVX    A,@DPTR
        PUSH    A
          CFI CFA_SP SP+-6
        MOV     A,#0x2
        LCALL   ?XSTACK_DISP0_8
        POP     A
          CFI CFA_SP SP+-5
        LCALL   ?Subroutine32 & 0xFFFF
//  588 
//  589   /* Build and send back the response */
//  590   MT_BuildAndSendZToolResponse(((uint8)MT_RPC_CMD_AREQ | (uint8)MT_RPC_SYS_AF), MT_AF_DATA_CONFIRM, 3, retArray);
??CrossCallReturnLabel_51:
        MOV     R3,#0x3
        MOV     R2,#-0x80
        MOV     R1,#0x44
        LCALL   ??MT_BuildAndSendZToolResponse?relay
//  591 }
        MOV     A,#0x3
        LCALL   ?DEALLOC_XSTACK8
          CFI CFA_XSP16 XSP16+0
        POP     DPH
          CFI DPH0 SameValue
          CFI CFA_SP SP+-4
        POP     DPL
          CFI DPL0 SameValue
          CFI CFA_SP SP+-3
        LJMP    ?BRET
          CFI EndBlock cfiBlock81

        RSEG BANKED_CODE:CODE:NOROOT(0)
?Subroutine34:
          CFI Block cfiCond82 Using cfiCommon0
          CFI Function MT_AfDataRequest
          CFI Conditional ??CrossCallReturnLabel_55
          CFI R6 load(1, XDATA, add(CFA_XSP16, literal(-20)))
          CFI VB load(1, XDATA, add(CFA_XSP16, literal(-19)))
          CFI V0 load(1, XDATA, add(CFA_XSP16, literal(-18)))
          CFI V1 load(1, XDATA, add(CFA_XSP16, literal(-17)))
          CFI V2 load(1, XDATA, add(CFA_XSP16, literal(-16)))
          CFI V3 load(1, XDATA, add(CFA_XSP16, literal(-15)))
          CFI V4 load(1, XDATA, add(CFA_XSP16, literal(-14)))
          CFI V5 load(1, XDATA, add(CFA_XSP16, literal(-13)))
          CFI V6 load(1, XDATA, add(CFA_XSP16, literal(-12)))
          CFI V7 load(1, XDATA, add(CFA_XSP16, literal(-11)))
          CFI V8 load(1, XDATA, add(CFA_XSP16, literal(-10)))
          CFI V9 load(1, XDATA, add(CFA_XSP16, literal(-9)))
          CFI V10 load(1, XDATA, add(CFA_XSP16, literal(-8)))
          CFI V11 load(1, XDATA, add(CFA_XSP16, literal(-7)))
          CFI R7 load(1, XDATA, add(CFA_XSP16, literal(-6)))
          CFI ?RET_LOW load(1, XDATA, add(CFA_XSP16, literal(-5)))
          CFI ?RET_HIGH load(1, XDATA, add(CFA_XSP16, literal(-4)))
          CFI ?BRET_EXT load(1, XDATA, add(CFA_XSP16, literal(-3)))
          CFI DPL0 load(1, XDATA, add(CFA_XSP16, literal(-2)))
          CFI DPH0 load(1, XDATA, add(CFA_XSP16, literal(-1)))
          CFI CFA_SP SP+0
          CFI CFA_XSP16 add(XSP16, 34)
          CFI Block cfiCond83 Using cfiCommon0
          CFI (cfiCond83) Function MT_AfDataConfirm
          CFI (cfiCond83) Conditional ??CrossCallReturnLabel_56
          CFI (cfiCond83) DPL0 Frame(CFA_SP, 4)
          CFI (cfiCond83) DPH0 Frame(CFA_SP, 5)
          CFI (cfiCond83) CFA_SP SP+-5
          CFI (cfiCond83) CFA_XSP16 add(XSP16, 3)
          CFI Block cfiCond84 Using cfiCommon0
          CFI (cfiCond84) Function MT_AfDataConfirm
          CFI (cfiCond84) Conditional ??CrossCallReturnLabel_57
          CFI (cfiCond84) DPL0 Frame(CFA_SP, 4)
          CFI (cfiCond84) DPH0 Frame(CFA_SP, 5)
          CFI (cfiCond84) CFA_SP SP+-5
          CFI (cfiCond84) CFA_XSP16 add(XSP16, 3)
          CFI Block cfiPicker85 Using cfiCommon1
          CFI (cfiPicker85) NoFunction
          CFI (cfiPicker85) Picker
        MOVX    @DPTR,A
        MOV     DPL,R2
        MOV     DPH,R3
        INC     DPTR
        RET
          CFI EndBlock cfiCond82
          CFI EndBlock cfiCond83
          CFI EndBlock cfiCond84
          CFI EndBlock cfiPicker85
//  592 
//  593 /***************************************************************************************************
//  594  * @fn          MT_AfIncomingMsg
//  595  *
//  596  * @brief       Process the callback subscription for AF Incoming data.
//  597  *
//  598  * @param       pkt - Incoming AF data.
//  599  *
//  600  * @return      none
//  601  ***************************************************************************************************/

        RSEG BANKED_CODE:CODE:NOROOT(0)
//  602 void MT_AfIncomingMsg(afIncomingMSGPacket_t *pMsg)
MT_AfIncomingMsg:
          CFI Block cfiBlock86 Using cfiCommon0
          CFI Function MT_AfIncomingMsg
        CODE
//  603 {
        FUNCALL MT_AfIncomingMsg, osal_mem_alloc
        LOCFRAME ISTACK, 0, STACK
        LOCFRAME PSTACK, 0, STACK
        LOCFRAME XSTACK, 23, STACK
        LOCFRAME IOVERLAY, 0, STATIC
        LOCFRAME DOVERLAY, 0, STATIC
        ARGFRAME ISTACK, 0, STACK
        ARGFRAME PSTACK, 0, STACK
        ARGFRAME XSTACK, 23, STACK
        ARGFRAME IOVERLAY, 0, STATIC
        ARGFRAME DOVERLAY, 0, STATIC
        FUNCALL MT_AfIncomingMsg, osal_mem_alloc
        LOCFRAME ISTACK, 0, STACK
        LOCFRAME PSTACK, 0, STACK
        LOCFRAME XSTACK, 23, STACK
        LOCFRAME IOVERLAY, 0, STATIC
        LOCFRAME DOVERLAY, 0, STATIC
        ARGFRAME ISTACK, 0, STACK
        ARGFRAME PSTACK, 0, STACK
        ARGFRAME XSTACK, 23, STACK
        ARGFRAME IOVERLAY, 0, STATIC
        ARGFRAME DOVERLAY, 0, STATIC
        FUNCALL MT_AfIncomingMsg, osal_mem_free
        LOCFRAME ISTACK, 0, STACK
        LOCFRAME PSTACK, 0, STACK
        LOCFRAME XSTACK, 23, STACK
        LOCFRAME IOVERLAY, 0, STATIC
        LOCFRAME DOVERLAY, 0, STATIC
        ARGFRAME ISTACK, 0, STACK
        ARGFRAME PSTACK, 0, STACK
        ARGFRAME XSTACK, 23, STACK
        ARGFRAME IOVERLAY, 0, STATIC
        ARGFRAME DOVERLAY, 0, STATIC
        FUNCALL MT_AfIncomingMsg, osal_memcpy
        LOCFRAME ISTACK, 0, STACK
        LOCFRAME PSTACK, 0, STACK
        LOCFRAME XSTACK, 26, STACK
        LOCFRAME IOVERLAY, 0, STATIC
        LOCFRAME DOVERLAY, 0, STATIC
        ARGFRAME ISTACK, 0, STACK
        ARGFRAME PSTACK, 0, STACK
        ARGFRAME XSTACK, 26, STACK
        ARGFRAME IOVERLAY, 0, STATIC
        ARGFRAME DOVERLAY, 0, STATIC
        FUNCALL MT_AfIncomingMsg, osal_start_timerEx
        LOCFRAME ISTACK, 0, STACK
        LOCFRAME PSTACK, 0, STACK
        LOCFRAME XSTACK, 23, STACK
        LOCFRAME IOVERLAY, 0, STATIC
        LOCFRAME DOVERLAY, 0, STATIC
        ARGFRAME ISTACK, 0, STACK
        ARGFRAME PSTACK, 0, STACK
        ARGFRAME XSTACK, 23, STACK
        ARGFRAME IOVERLAY, 0, STATIC
        ARGFRAME DOVERLAY, 0, STATIC
        FUNCALL MT_AfIncomingMsg, osal_set_event
        LOCFRAME ISTACK, 0, STACK
        LOCFRAME PSTACK, 0, STACK
        LOCFRAME XSTACK, 23, STACK
        LOCFRAME IOVERLAY, 0, STATIC
        LOCFRAME DOVERLAY, 0, STATIC
        ARGFRAME ISTACK, 0, STACK
        ARGFRAME PSTACK, 0, STACK
        ARGFRAME XSTACK, 23, STACK
        ARGFRAME IOVERLAY, 0, STATIC
        ARGFRAME DOVERLAY, 0, STATIC
        FUNCALL MT_AfIncomingMsg, osal_memcpy
        LOCFRAME ISTACK, 0, STACK
        LOCFRAME PSTACK, 0, STACK
        LOCFRAME XSTACK, 26, STACK
        LOCFRAME IOVERLAY, 0, STATIC
        LOCFRAME DOVERLAY, 0, STATIC
        ARGFRAME ISTACK, 0, STACK
        ARGFRAME PSTACK, 0, STACK
        ARGFRAME XSTACK, 26, STACK
        ARGFRAME IOVERLAY, 0, STATIC
        ARGFRAME DOVERLAY, 0, STATIC
        FUNCALL MT_AfIncomingMsg, osal_memcpy
        LOCFRAME ISTACK, 0, STACK
        LOCFRAME PSTACK, 0, STACK
        LOCFRAME XSTACK, 26, STACK
        LOCFRAME IOVERLAY, 0, STATIC
        LOCFRAME DOVERLAY, 0, STATIC
        ARGFRAME ISTACK, 0, STACK
        ARGFRAME PSTACK, 0, STACK
        ARGFRAME XSTACK, 26, STACK
        ARGFRAME IOVERLAY, 0, STATIC
        ARGFRAME DOVERLAY, 0, STATIC
        FUNCALL MT_AfIncomingMsg, MT_BuildAndSendZToolResponse
        LOCFRAME ISTACK, 0, STACK
        LOCFRAME PSTACK, 0, STACK
        LOCFRAME XSTACK, 23, STACK
        LOCFRAME IOVERLAY, 0, STATIC
        LOCFRAME DOVERLAY, 0, STATIC
        ARGFRAME ISTACK, 0, STACK
        ARGFRAME PSTACK, 0, STACK
        ARGFRAME XSTACK, 23, STACK
        ARGFRAME IOVERLAY, 0, STATIC
        ARGFRAME DOVERLAY, 0, STATIC
        FUNCALL MT_AfIncomingMsg, osal_mem_free
        LOCFRAME ISTACK, 0, STACK
        LOCFRAME PSTACK, 0, STACK
        LOCFRAME XSTACK, 23, STACK
        LOCFRAME IOVERLAY, 0, STATIC
        LOCFRAME DOVERLAY, 0, STATIC
        ARGFRAME ISTACK, 0, STACK
        ARGFRAME PSTACK, 0, STACK
        ARGFRAME XSTACK, 23, STACK
        ARGFRAME IOVERLAY, 0, STATIC
        ARGFRAME DOVERLAY, 0, STATIC
        MOV     A,#-0x17
        LCALL   ?BANKED_ENTER_XDATA
          CFI DPH0 load(1, XDATA, add(CFA_XSP16, literal(-1)))
          CFI DPL0 load(1, XDATA, add(CFA_XSP16, literal(-2)))
          CFI ?BRET_EXT load(1, XDATA, add(CFA_XSP16, literal(-3)))
          CFI ?RET_HIGH load(1, XDATA, add(CFA_XSP16, literal(-4)))
          CFI ?RET_LOW load(1, XDATA, add(CFA_XSP16, literal(-5)))
          CFI R7 load(1, XDATA, add(CFA_XSP16, literal(-6)))
          CFI V14 load(1, XDATA, add(CFA_XSP16, literal(-7)))
          CFI V13 load(1, XDATA, add(CFA_XSP16, literal(-8)))
          CFI V12 load(1, XDATA, add(CFA_XSP16, literal(-9)))
          CFI V11 load(1, XDATA, add(CFA_XSP16, literal(-10)))
          CFI V10 load(1, XDATA, add(CFA_XSP16, literal(-11)))
          CFI V9 load(1, XDATA, add(CFA_XSP16, literal(-12)))
          CFI V8 load(1, XDATA, add(CFA_XSP16, literal(-13)))
          CFI V7 load(1, XDATA, add(CFA_XSP16, literal(-14)))
          CFI V6 load(1, XDATA, add(CFA_XSP16, literal(-15)))
          CFI V5 load(1, XDATA, add(CFA_XSP16, literal(-16)))
          CFI V4 load(1, XDATA, add(CFA_XSP16, literal(-17)))
          CFI V3 load(1, XDATA, add(CFA_XSP16, literal(-18)))
          CFI V2 load(1, XDATA, add(CFA_XSP16, literal(-19)))
          CFI V1 load(1, XDATA, add(CFA_XSP16, literal(-20)))
          CFI V0 load(1, XDATA, add(CFA_XSP16, literal(-21)))
          CFI VB load(1, XDATA, add(CFA_XSP16, literal(-22)))
          CFI R6 load(1, XDATA, add(CFA_XSP16, literal(-23)))
          CFI CFA_SP SP+0
          CFI CFA_XSP16 add(XSP16, 23)
        ; Saved register size: 23
        ; Auto size: 0
        MOV     ?V0 + 2,R2
        MOV     ?V0 + 3,R3
//  604   #define MT_AF_INC_MSG_LEN  17
//  605   #define MT_AF_INC_MSG_EXT  10
//  606 
//  607   uint16 dataLen = pMsg->cmd.DataLength;  // Length of the data section in the response packet.
        MOV     A,R2
        ADD     A,#0x20
        MOV     DPL,A
        MOV     A,R3
        LCALL   ??Subroutine50_0 & 0xFFFF
??CrossCallReturnLabel_102:
        MOV     R6,A
        INC     DPTR
        MOVX    A,@DPTR
        MOV     R7,A
//  608   uint16 respLen = MT_AF_INC_MSG_LEN + dataLen;
        MOV     A,R6
        ADD     A,#0x11
        MOV     ?V0 + 0,A
        MOV     A,R7
        ADDC    A,#0x0
        MOV     ?V0 + 1,A
//  609   uint8 cmd = MT_AF_INCOMING_MSG;
        MOV     ?V0 + 14,#-0x7f
//  610   uint8 *pRsp, *pTmp;
//  611   mtAfInMsgList_t *pItem = NULL;
        MOV     ?V0 + 4,#0x0
        MOV     ?V0 + 5,#0x0
//  612 
//  613 #if defined INTER_PAN
//  614   if (StubAPS_InterPan(pMsg->srcAddr.panId, pMsg->srcAddr.endPoint))
//  615   {
//  616     cmd = MT_AF_INCOMING_MSG_EXT;
//  617   }
//  618   else
//  619 #endif
//  620   if ((pMsg->srcAddr.addrMode == afAddr64Bit) ||
//  621       (respLen > (uint16)(MT_RPC_DATA_MAX - MT_AF_INC_MSG_EXT)))
        MOV     A,R2
        ADD     A,#0xe
        MOV     DPL,A
        MOV     A,R3
        LCALL   ??Subroutine50_0 & 0xFFFF
??CrossCallReturnLabel_103:
        XRL     A,#0x3
        JZ      ??MT_AfIncomingMsg_0
        CLR     C
        MOV     A,?V0 + 0
        SUBB    A,#-0xf
        MOV     A,?V0 + 1
        SUBB    A,#0x0
        JC      ??MT_AfIncomingMsg_1
//  622   {
//  623     cmd = MT_AF_INCOMING_MSG_EXT;
??MT_AfIncomingMsg_0:
        MOV     ?V0 + 14,#-0x7e
//  624   }
//  625 
//  626   if (cmd == MT_AF_INCOMING_MSG_EXT)
//  627   {
//  628     respLen += MT_AF_INC_MSG_EXT;
        MOV     A,?V0 + 0
        ADD     A,#0xa
        MOV     ?V0 + 0,A
        MOV     A,?V0 + 1
        ADDC    A,#0x0
        MOV     ?V0 + 1,A
//  629   }
//  630 
//  631   if (respLen > (uint16)MT_RPC_DATA_MAX)
??MT_AfIncomingMsg_1:
        CLR     C
        MOV     A,?V0 + 0
        SUBB    A,#-0x5
        MOV     A,?V0 + 1
        SUBB    A,#0x0
        JC      ??MT_AfIncomingMsg_2
//  632   {
//  633     if ((pItem = (mtAfInMsgList_t *)osal_mem_alloc(sizeof(mtAfInMsgList_t) + dataLen)) == NULL)
        ; Setup parameters for call to function osal_mem_alloc
        MOV     A,R6
        ADD     A,#0x9
        MOV     R2,A
        MOV     A,R7
        ADDC    A,#0x0
        MOV     R3,A
        LCALL   ??osal_mem_alloc?relay
        MOV     ?V0 + 4,R2
        MOV     ?V0 + 5,R3
        MOV     A,R2
        ORL     A,?V0 + 5
        JNZ     $+5
        LJMP    ??MT_AfIncomingMsg_3 & 0xFFFF
//  634     {
//  635       return;  // If cannot hold a huge message, cannot give indication at all.
//  636     }
//  637 
//  638     pItem->data = (uint8 *)(pItem+1);
        MOV     A,R2
        ADD     A,#0x9
        MOV     R0,A
        MOV     A,R3
        ADDC    A,#0x0
        MOV     R1,A
        MOV     DPL,R2
        MOV     DPH,R3
        INC     DPTR
        INC     DPTR
        LCALL   ?Subroutine36 & 0xFFFF
//  639     respLen -= dataLen;  // Zero data bytes are sent with an over-sized incoming indication.
??CrossCallReturnLabel_63:
        CLR     C
        MOV     A,?V0 + 0
        SUBB    A,R6
        MOV     ?V0 + 0,A
        MOV     A,?V0 + 1
        SUBB    A,R7
        MOV     ?V0 + 1,A
//  640   }
//  641 
//  642   // Attempt to allocate memory for the response packet.
//  643   if ((pRsp = osal_mem_alloc(respLen)) == NULL)
??MT_AfIncomingMsg_2:
        ; Setup parameters for call to function osal_mem_alloc
        MOV     R2,?V0 + 0
        MOV     R3,?V0 + 1
        LCALL   ??osal_mem_alloc?relay
        MOV     ?V0 + 12,R2
        MOV     ?V0 + 13,R3
        MOV     A,R2
        ORL     A,?V0 + 13
        JNZ     ??MT_AfIncomingMsg_4
//  644   {
//  645     if (pItem != NULL)
        MOV     A,?V0 + 4
        ORL     A,?V0 + 5
        JNZ     $+5
        LJMP    ??MT_AfIncomingMsg_3 & 0xFFFF
//  646     {
//  647       (void)osal_mem_free(pItem);
        ; Setup parameters for call to function osal_mem_free
        MOV     R2,?V0 + 4
        MOV     R3,?V0 + 5
        LJMP    ??MT_AfIncomingMsg_5 & 0xFFFF
//  648     }
//  649     return;
//  650   }
//  651   pTmp = pRsp;
//  652 
//  653   /* Group ID */
//  654   *pTmp++ = LO_UINT16(pMsg->groupId);
??MT_AfIncomingMsg_4:
        MOV     A,?V0 + 2
        ADD     A,#0x2
        LCALL   ?Subroutine25 & 0xFFFF
??CrossCallReturnLabel_35:
        MOVX    A,@DPTR
        MOV     DPL,R2
        MOV     DPH,R3
        LCALL   ?Subroutine29 & 0xFFFF
//  655   *pTmp++ = HI_UINT16(pMsg->groupId);
??CrossCallReturnLabel_43:
        MOV     DPL,R0
        MOV     DPH,R1
        INC     DPTR
        LCALL   ??Subroutine53_0 & 0xFFFF
//  656 
//  657   /* Cluster ID */
//  658   *pTmp++ = LO_UINT16(pMsg->clusterId);
??CrossCallReturnLabel_114:
        ADD     A,#0x4
        LCALL   ?Subroutine4 & 0xFFFF
//  659   *pTmp++ = HI_UINT16(pMsg->clusterId);
??CrossCallReturnLabel_0:
        LCALL   ?Subroutine6 & 0xFFFF
//  660 
//  661   if (cmd == MT_AF_INCOMING_MSG_EXT)
??CrossCallReturnLabel_2:
        MOV     A,#-0x7e
        XRL     A,?V0 + 14
        JNZ     ??MT_AfIncomingMsg_6
//  662   {
//  663     *pTmp++ = pMsg->srcAddr.addrMode;
        MOV     A,?V0 + 2
        ADD     A,#0xe
        LCALL   ?Subroutine25 & 0xFFFF
??CrossCallReturnLabel_36:
        LCALL   ?Subroutine6 & 0xFFFF
//  664 
//  665     if (pMsg->srcAddr.addrMode == afAddr64Bit)
??CrossCallReturnLabel_3:
        MOV     DPL,R0
        MOV     DPH,R1
        MOVX    A,@DPTR
        XRL     A,#0x3
        JNZ     ??MT_AfIncomingMsg_7
//  666     {
//  667       (void)osal_memcpy(pTmp, pMsg->srcAddr.addr.extAddr, Z_EXTADDR_LEN);
        ; Setup parameters for call to function osal_memcpy
        MOV     A,?V0 + 2
        ADD     A,#0x6
        MOV     ?V0 + 8,A
        MOV     A,?V0 + 3
        ADDC    A,#0x0
        MOV     ?V0 + 9,A
        MOV     ?V0 + 10,#0x0
        MOV     R0,#?V0 + 8
        LCALL   ?PUSH_XSTACK_I_THREE
          CFI CFA_XSP16 add(XSP16, 26)
        MOV     R4,#0x8
        MOV     R5,#0x0
        MOV     R2,?V0 + 6
        MOV     R3,?V0 + 7
        LCALL   ??osal_memcpy?relay
        MOV     A,#0x3
        LCALL   ?DEALLOC_XSTACK8
          CFI CFA_XSP16 add(XSP16, 23)
        SJMP    ??MT_AfIncomingMsg_8
//  668     }
//  669     else
//  670     {
//  671       pTmp[0] = LO_UINT16(pMsg->srcAddr.addr.shortAddr);
??MT_AfIncomingMsg_7:
        MOV     A,?V0 + 2
        ADD     A,#0x6
        LCALL   ?Subroutine25 & 0xFFFF
??CrossCallReturnLabel_37:
        LCALL   ?Subroutine19 & 0xFFFF
??CrossCallReturnLabel_28:
        MOVX    @DPTR,A
//  672       pTmp[1] = HI_UINT16(pMsg->srcAddr.addr.shortAddr);
        MOV     DPL,R0
        MOV     DPH,R1
        INC     DPTR
        LCALL   ?Subroutine19 & 0xFFFF
//  673     }
??CrossCallReturnLabel_29:
        INC     DPTR
        MOVX    @DPTR,A
//  674     pTmp += Z_EXTADDR_LEN;
??MT_AfIncomingMsg_8:
        MOV     A,?V0 + 6
        ADD     A,#0x8
        MOV     ?V0 + 6,A
        MOV     A,?V0 + 7
        ADDC    A,#0x0
        MOV     ?V0 + 7,A
//  675 
//  676     *pTmp++ = pMsg->srcAddr.endPoint;
        MOV     A,?V0 + 2
        ADD     A,#0xf
        LCALL   ?Subroutine18 & 0xFFFF
//  677 #if defined INTER_PAN
//  678     *pTmp++ = LO_UINT16(pMsg->srcAddr.panId);
//  679     *pTmp++ = HI_UINT16(pMsg->srcAddr.panId);
//  680 #else
//  681     *pTmp++ = 0;
??CrossCallReturnLabel_26:
        CLR     A
        MOVX    @DPTR,A
        INC     DPTR
//  682     *pTmp++ = 0;
        SJMP    ??CrossCallReturnLabel_30
//  683 #endif
//  684   }
//  685   else
//  686   {
//  687     /* Source Address */
//  688     *pTmp++ = LO_UINT16(pMsg->srcAddr.addr.shortAddr);
??MT_AfIncomingMsg_6:
        MOV     A,?V0 + 2
        ADD     A,#0x6
        LCALL   ?Subroutine4 & 0xFFFF
//  689     *pTmp++ = HI_UINT16(pMsg->srcAddr.addr.shortAddr);
//  690 
//  691     /* Source EP */
//  692     *pTmp++ = pMsg->srcAddr.endPoint;
//  693   }
??CrossCallReturnLabel_1:
        LCALL   ??Subroutine53_0 & 0xFFFF
??CrossCallReturnLabel_115:
        ADD     A,#0xf
        MOV     DPL,A
        MOV     A,?V0 + 3
        LCALL   ??Subroutine55_0 & 0xFFFF
??CrossCallReturnLabel_129:
        LCALL   ?Subroutine19 & 0xFFFF
??CrossCallReturnLabel_30:
        LCALL   ?Subroutine29 & 0xFFFF
//  694 
//  695   /* Destination EP */
//  696   *pTmp++ = pMsg->endPoint;
??CrossCallReturnLabel_44:
        MOV     A,?V0 + 2
        ADD     A,#0x14
        LCALL   ?Subroutine2 & 0xFFFF
//  697 
//  698   /* WasBroadCast */
//  699   *pTmp++ = pMsg->wasBroadcast;
??CrossCallReturnLabel_110:
        ADD     A,#0x15
        LCALL   ?Subroutine2 & 0xFFFF
//  700 
//  701   /* LinkQuality */
//  702   *pTmp++ = pMsg->LinkQuality;
??CrossCallReturnLabel_111:
        ADD     A,#0x16
        LCALL   ?Subroutine2 & 0xFFFF
//  703 
//  704   /* SecurityUse */
//  705   *pTmp++ = pMsg->SecurityUse;
??CrossCallReturnLabel_112:
        ADD     A,#0x19
        LCALL   ?Subroutine2 & 0xFFFF
//  706 
//  707   /* Timestamp */
//  708   *pTmp++ = BREAK_UINT32(pMsg->timestamp, 0);
??CrossCallReturnLabel_113:
        ADD     A,#0x1a
        MOV     R0,A
        MOV     A,?V0 + 3
        ADDC    A,#0x0
        MOV     R1,A
        MOV     A,R0
        MOV     R2,A
        MOV     A,R1
        MOV     R3,A
        MOV     DPL,R2
        MOV     DPH,R3
        MOV     R0,#?V0 + 8
        LCALL   ?L_MOV_X
        LCALL   ?Subroutine27 & 0xFFFF
//  709   *pTmp++ = BREAK_UINT32(pMsg->timestamp, 1);
??CrossCallReturnLabel_97:
        LCALL   ?L_MOV_X
        MOV     A,?V0 + 9
        MOV     DPL,?V0 + 6
        MOV     DPH,?V0 + 7
        LCALL   ??Subroutine49_0 & 0xFFFF
//  710   *pTmp++ = BREAK_UINT32(pMsg->timestamp, 2);
??CrossCallReturnLabel_99:
        LCALL   ?L_MOV_X
        MOV     A,#0x10
        MOV     R0,#?V0 + 8
        LCALL   ?UL_SHR
        LCALL   ?Subroutine27 & 0xFFFF
//  711   *pTmp++ = BREAK_UINT32(pMsg->timestamp, 3);
??CrossCallReturnLabel_98:
        LCALL   ?L_MOV_X
        MOV     A,#0x18
        MOV     R0,#?V0 + 8
        LCALL   ?UL_SHR
        MOV     DPL,?V0 + 6
        MOV     DPH,?V0 + 7
        MOV     A,?V0 + 8
        LCALL   ?Subroutine29 & 0xFFFF
//  712 
//  713 
//  714   /* Data Length */
//  715   if (cmd == MT_AF_INCOMING_MSG_EXT)
??CrossCallReturnLabel_45:
        MOV     A,#-0x7e
        XRL     A,?V0 + 14
        JNZ     ??MT_AfIncomingMsg_9
//  716   {
//  717     /* Z-Tool apparently takes the last Byte before the data buffer as the dynamic length and
//  718      * ignores the bigger UInt16 length of an EXT incoming message. But no data bytes will be sent
//  719      * with a huge message, so it's necessary to work-around and fake-out Z-Tool with a zero here.
//  720      */
//  721     *pTmp++ = 0;  // TODO - workaround Z-Tool shortcoming; should be: = pMsg->cmd.TransSeqNumber;
        CLR     A
        MOVX    @DPTR,A
        INC     DPTR
//  722     *pTmp++ = LO_UINT16(dataLen);
        MOV     A,R6
        MOVX    @DPTR,A
        INC     DPTR
//  723     *pTmp++ = HI_UINT16(dataLen);
        MOV     A,R7
        SJMP    ??MT_AfIncomingMsg_10
//  724   }
//  725   else
//  726   {
//  727     *pTmp++ = pMsg->cmd.TransSeqNumber;
??MT_AfIncomingMsg_9:
        MOV     A,?V0 + 2
        ADD     A,#0x1f
        LCALL   ?Subroutine18 & 0xFFFF
//  728     *pTmp++ = dataLen;
??CrossCallReturnLabel_27:
        MOV     A,R6
//  729   }
??MT_AfIncomingMsg_10:
        LCALL   ?Subroutine29 & 0xFFFF
//  730 
//  731   /* Data */
//  732   if (pItem != NULL)
??CrossCallReturnLabel_46:
        MOV     A,?V0 + 4
        ORL     A,?V0 + 5
        JZ      ??MT_AfIncomingMsg_11
//  733   {
//  734     // Enqueue the new huge incoming item.
//  735     pItem->next = pMtAfInMsgList;
        LCALL   ?Subroutine21 & 0xFFFF
??CrossCallReturnLabel_127:
        MOV     DPL,?V0 + 4
        MOV     DPH,?V0 + 5
        LCALL   ?Subroutine36 & 0xFFFF
//  736     pMtAfInMsgList = pItem;
??CrossCallReturnLabel_64:
        MOV     DPTR,#pMtAfInMsgList
        MOV     A,?V0 + 4
        MOVX    @DPTR,A
        INC     DPTR
        MOV     A,?V0 + 5
        MOVX    @DPTR,A
//  737 
//  738     // Setup to time-out the huge incoming item if host does not MT_AF_DATA_RETRIEVE it.
//  739     pItem->tick = MT_AF_EXEC_CNT;
        MOV     DPL,?V0 + 4
        MOV     DPH,A
        INC     DPTR
        INC     DPTR
        INC     DPTR
        INC     DPTR
        INC     DPTR
        INC     DPTR
        INC     DPTR
        INC     DPTR
        LCALL   ?Subroutine30 & 0xFFFF
//  740     if (ZSuccess != osal_start_timerEx(MT_TaskID, MT_AF_EXEC_EVT, MT_AF_EXEC_DLY))
??CrossCallReturnLabel_48:
        LCALL   ??osal_start_timerEx?relay
        MOV     A,R1
        JZ      ??MT_AfIncomingMsg_12
//  741     {
//  742       (void)osal_set_event(MT_TaskID, MT_AF_EXEC_EVT);
        ; Setup parameters for call to function osal_set_event
        MOV     R2,#0x8
        MOV     R3,#0x0
        MOV     DPTR,#MT_TaskID
        MOVX    A,@DPTR
        MOV     R1,A
        LCALL   ??osal_set_event?relay
//  743     }
//  744 
//  745     pItem->timestamp = pMsg->timestamp;
??MT_AfIncomingMsg_12:
        MOV     A,?V0 + 2
        ADD     A,#0x1a
        MOV     DPL,A
        MOV     A,?V0 + 3
        LCALL   ??Subroutine55_0 & 0xFFFF
??CrossCallReturnLabel_130:
        LCALL   ?XLOAD_R2345
        MOV     DPL,?V0 + 4
        MOV     DPH,?V0 + 5
        INC     DPTR
        INC     DPTR
        INC     DPTR
        INC     DPTR
        LCALL   ?XSTORE_R2345
//  746     (void)osal_memcpy(pItem->data, pMsg->cmd.Data, dataLen);
        ; Setup parameters for call to function osal_memcpy
        LCALL   ?Subroutine24 & 0xFFFF
//  747   }
??CrossCallReturnLabel_104:
        MOV     ?V0 + 8,A
        INC     DPTR
        MOVX    A,@DPTR
        MOV     ?V0 + 9,A
        MOV     R0,#?V0 + 8
        LCALL   ?PUSH_XSTACK_I_THREE
          CFI CFA_XSP16 add(XSP16, 26)
        MOV     A,R6
        MOV     R4,A
        MOV     A,R7
        MOV     R5,A
        MOV     DPL,?V0 + 4
        MOV     DPH,?V0 + 5
        INC     DPTR
        INC     DPTR
        LCALL   ??Subroutine51_0 & 0xFFFF
??CrossCallReturnLabel_107:
        SJMP    ??MT_AfIncomingMsg_13
          CFI CFA_XSP16 add(XSP16, 23)
//  748   else
//  749   {
//  750     (void)osal_memcpy(pTmp, pMsg->cmd.Data, dataLen);
??MT_AfIncomingMsg_11:
        ; Setup parameters for call to function osal_memcpy
        LCALL   ?Subroutine24 & 0xFFFF
//  751   }
??CrossCallReturnLabel_105:
        MOV     ?V0 + 4,A
        INC     DPTR
        MOVX    A,@DPTR
        MOV     ?V0 + 8,?V0 + 4
        MOV     ?V0 + 9,A
        MOV     R0,#?V0 + 8
        LCALL   ?PUSH_XSTACK_I_THREE
          CFI CFA_XSP16 add(XSP16, 26)
        MOV     A,R6
        MOV     R4,A
        MOV     A,R7
        MOV     R5,A
        MOV     R2,?V0 + 6
        MOV     R3,?V0 + 7
??MT_AfIncomingMsg_13:
        LCALL   ??osal_memcpy?relay
        MOV     A,#0x3
        LCALL   ?DEALLOC_XSTACK8
          CFI CFA_XSP16 add(XSP16, 23)
//  752 
//  753   /* Build and send back the response */
//  754   MT_BuildAndSendZToolResponse(((uint8)MT_RPC_CMD_AREQ|(uint8)MT_RPC_SYS_AF), cmd, respLen, pRsp);
        ; Setup parameters for call to function MT_BuildAndSendZToolResponse
        MOV     R4,?V0 + 12
        MOV     R5,?V0 + 13
        MOV     R3,?V0 + 0
        MOV     R2,?V0 + 14
        MOV     R1,#0x44
        LCALL   ??MT_BuildAndSendZToolResponse?relay
//  755 
//  756   (void)osal_mem_free(pRsp);
        ; Setup parameters for call to function osal_mem_free
        MOV     R2,?V0 + 12
        MOV     R3,?V0 + 13
??MT_AfIncomingMsg_5:
        LCALL   ??osal_mem_free?relay
//  757 }
??MT_AfIncomingMsg_3:
        MOV     R7,#0xf
        LJMP    ?BANKED_LEAVE_XDATA
          CFI EndBlock cfiBlock86

        RSEG BANKED_CODE:CODE:NOROOT(0)
?Subroutine36:
          CFI Block cfiCond87 Using cfiCommon0
          CFI Function MT_AfExec
          CFI Conditional ??CrossCallReturnLabel_60
          CFI R6 load(1, XDATA, add(CFA_XSP16, literal(-9)))
          CFI VB load(1, XDATA, add(CFA_XSP16, literal(-8)))
          CFI V0 load(1, XDATA, add(CFA_XSP16, literal(-7)))
          CFI R7 load(1, XDATA, add(CFA_XSP16, literal(-6)))
          CFI ?RET_LOW load(1, XDATA, add(CFA_XSP16, literal(-5)))
          CFI ?RET_HIGH load(1, XDATA, add(CFA_XSP16, literal(-4)))
          CFI ?BRET_EXT load(1, XDATA, add(CFA_XSP16, literal(-3)))
          CFI DPL0 load(1, XDATA, add(CFA_XSP16, literal(-2)))
          CFI DPH0 load(1, XDATA, add(CFA_XSP16, literal(-1)))
          CFI CFA_SP SP+0
          CFI CFA_XSP16 add(XSP16, 9)
          CFI Block cfiCond88 Using cfiCommon0
          CFI (cfiCond88) Function MT_AfExec
          CFI (cfiCond88) Conditional ??CrossCallReturnLabel_61
          CFI (cfiCond88) R6 load(1, XDATA, add(CFA_XSP16, literal(-9)))
          CFI (cfiCond88) VB load(1, XDATA, add(CFA_XSP16, literal(-8)))
          CFI (cfiCond88) V0 load(1, XDATA, add(CFA_XSP16, literal(-7)))
          CFI (cfiCond88) R7 load(1, XDATA, add(CFA_XSP16, literal(-6)))
          CFI (cfiCond88) ?RET_LOW load(1, XDATA, add(CFA_XSP16, literal(-5)))
          CFI (cfiCond88) ?RET_HIGH load(1, XDATA, add(CFA_XSP16, literal(-4)))
          CFI (cfiCond88) ?BRET_EXT load(1, XDATA, add(CFA_XSP16, literal(-3)))
          CFI (cfiCond88) DPL0 load(1, XDATA, add(CFA_XSP16, literal(-2)))
          CFI (cfiCond88) DPH0 load(1, XDATA, add(CFA_XSP16, literal(-1)))
          CFI (cfiCond88) CFA_SP SP+0
          CFI (cfiCond88) CFA_XSP16 add(XSP16, 9)
          CFI Block cfiCond89 Using cfiCommon0
          CFI (cfiCond89) Function MT_AfDataRequest
          CFI (cfiCond89) Conditional ??CrossCallReturnLabel_62
          CFI (cfiCond89) R6 load(1, XDATA, add(CFA_XSP16, literal(-20)))
          CFI (cfiCond89) VB load(1, XDATA, add(CFA_XSP16, literal(-19)))
          CFI (cfiCond89) V0 load(1, XDATA, add(CFA_XSP16, literal(-18)))
          CFI (cfiCond89) V1 load(1, XDATA, add(CFA_XSP16, literal(-17)))
          CFI (cfiCond89) V2 load(1, XDATA, add(CFA_XSP16, literal(-16)))
          CFI (cfiCond89) V3 load(1, XDATA, add(CFA_XSP16, literal(-15)))
          CFI (cfiCond89) V4 load(1, XDATA, add(CFA_XSP16, literal(-14)))
          CFI (cfiCond89) V5 load(1, XDATA, add(CFA_XSP16, literal(-13)))
          CFI (cfiCond89) V6 load(1, XDATA, add(CFA_XSP16, literal(-12)))
          CFI (cfiCond89) V7 load(1, XDATA, add(CFA_XSP16, literal(-11)))
          CFI (cfiCond89) V8 load(1, XDATA, add(CFA_XSP16, literal(-10)))
          CFI (cfiCond89) V9 load(1, XDATA, add(CFA_XSP16, literal(-9)))
          CFI (cfiCond89) V10 load(1, XDATA, add(CFA_XSP16, literal(-8)))
          CFI (cfiCond89) V11 load(1, XDATA, add(CFA_XSP16, literal(-7)))
          CFI (cfiCond89) R7 load(1, XDATA, add(CFA_XSP16, literal(-6)))
          CFI (cfiCond89) ?RET_LOW load(1, XDATA, add(CFA_XSP16, literal(-5)))
          CFI (cfiCond89) ?RET_HIGH load(1, XDATA, add(CFA_XSP16, literal(-4)))
          CFI (cfiCond89) ?BRET_EXT load(1, XDATA, add(CFA_XSP16, literal(-3)))
          CFI (cfiCond89) DPL0 load(1, XDATA, add(CFA_XSP16, literal(-2)))
          CFI (cfiCond89) DPH0 load(1, XDATA, add(CFA_XSP16, literal(-1)))
          CFI (cfiCond89) CFA_SP SP+0
          CFI (cfiCond89) CFA_XSP16 add(XSP16, 34)
          CFI Block cfiCond90 Using cfiCommon0
          CFI (cfiCond90) Function MT_AfIncomingMsg
          CFI (cfiCond90) Conditional ??CrossCallReturnLabel_63
          CFI (cfiCond90) R6 load(1, XDATA, add(CFA_XSP16, literal(-23)))
          CFI (cfiCond90) VB load(1, XDATA, add(CFA_XSP16, literal(-22)))
          CFI (cfiCond90) V0 load(1, XDATA, add(CFA_XSP16, literal(-21)))
          CFI (cfiCond90) V1 load(1, XDATA, add(CFA_XSP16, literal(-20)))
          CFI (cfiCond90) V2 load(1, XDATA, add(CFA_XSP16, literal(-19)))
          CFI (cfiCond90) V3 load(1, XDATA, add(CFA_XSP16, literal(-18)))
          CFI (cfiCond90) V4 load(1, XDATA, add(CFA_XSP16, literal(-17)))
          CFI (cfiCond90) V5 load(1, XDATA, add(CFA_XSP16, literal(-16)))
          CFI (cfiCond90) V6 load(1, XDATA, add(CFA_XSP16, literal(-15)))
          CFI (cfiCond90) V7 load(1, XDATA, add(CFA_XSP16, literal(-14)))
          CFI (cfiCond90) V8 load(1, XDATA, add(CFA_XSP16, literal(-13)))
          CFI (cfiCond90) V9 load(1, XDATA, add(CFA_XSP16, literal(-12)))
          CFI (cfiCond90) V10 load(1, XDATA, add(CFA_XSP16, literal(-11)))
          CFI (cfiCond90) V11 load(1, XDATA, add(CFA_XSP16, literal(-10)))
          CFI (cfiCond90) V12 load(1, XDATA, add(CFA_XSP16, literal(-9)))
          CFI (cfiCond90) V13 load(1, XDATA, add(CFA_XSP16, literal(-8)))
          CFI (cfiCond90) V14 load(1, XDATA, add(CFA_XSP16, literal(-7)))
          CFI (cfiCond90) R7 load(1, XDATA, add(CFA_XSP16, literal(-6)))
          CFI (cfiCond90) ?RET_LOW load(1, XDATA, add(CFA_XSP16, literal(-5)))
          CFI (cfiCond90) ?RET_HIGH load(1, XDATA, add(CFA_XSP16, literal(-4)))
          CFI (cfiCond90) ?BRET_EXT load(1, XDATA, add(CFA_XSP16, literal(-3)))
          CFI (cfiCond90) DPL0 load(1, XDATA, add(CFA_XSP16, literal(-2)))
          CFI (cfiCond90) DPH0 load(1, XDATA, add(CFA_XSP16, literal(-1)))
          CFI (cfiCond90) CFA_SP SP+0
          CFI (cfiCond90) CFA_XSP16 add(XSP16, 23)
          CFI Block cfiCond91 Using cfiCommon0
          CFI (cfiCond91) Function MT_AfIncomingMsg
          CFI (cfiCond91) Conditional ??CrossCallReturnLabel_64
          CFI (cfiCond91) R6 load(1, XDATA, add(CFA_XSP16, literal(-23)))
          CFI (cfiCond91) VB load(1, XDATA, add(CFA_XSP16, literal(-22)))
          CFI (cfiCond91) V0 load(1, XDATA, add(CFA_XSP16, literal(-21)))
          CFI (cfiCond91) V1 load(1, XDATA, add(CFA_XSP16, literal(-20)))
          CFI (cfiCond91) V2 load(1, XDATA, add(CFA_XSP16, literal(-19)))
          CFI (cfiCond91) V3 load(1, XDATA, add(CFA_XSP16, literal(-18)))
          CFI (cfiCond91) V4 load(1, XDATA, add(CFA_XSP16, literal(-17)))
          CFI (cfiCond91) V5 load(1, XDATA, add(CFA_XSP16, literal(-16)))
          CFI (cfiCond91) V6 load(1, XDATA, add(CFA_XSP16, literal(-15)))
          CFI (cfiCond91) V7 load(1, XDATA, add(CFA_XSP16, literal(-14)))
          CFI (cfiCond91) V8 load(1, XDATA, add(CFA_XSP16, literal(-13)))
          CFI (cfiCond91) V9 load(1, XDATA, add(CFA_XSP16, literal(-12)))
          CFI (cfiCond91) V10 load(1, XDATA, add(CFA_XSP16, literal(-11)))
          CFI (cfiCond91) V11 load(1, XDATA, add(CFA_XSP16, literal(-10)))
          CFI (cfiCond91) V12 load(1, XDATA, add(CFA_XSP16, literal(-9)))
          CFI (cfiCond91) V13 load(1, XDATA, add(CFA_XSP16, literal(-8)))
          CFI (cfiCond91) V14 load(1, XDATA, add(CFA_XSP16, literal(-7)))
          CFI (cfiCond91) R7 load(1, XDATA, add(CFA_XSP16, literal(-6)))
          CFI (cfiCond91) ?RET_LOW load(1, XDATA, add(CFA_XSP16, literal(-5)))
          CFI (cfiCond91) ?RET_HIGH load(1, XDATA, add(CFA_XSP16, literal(-4)))
          CFI (cfiCond91) ?BRET_EXT load(1, XDATA, add(CFA_XSP16, literal(-3)))
          CFI (cfiCond91) DPL0 load(1, XDATA, add(CFA_XSP16, literal(-2)))
          CFI (cfiCond91) DPH0 load(1, XDATA, add(CFA_XSP16, literal(-1)))
          CFI (cfiCond91) CFA_SP SP+0
          CFI (cfiCond91) CFA_XSP16 add(XSP16, 23)
          CFI Block cfiCond92 Using cfiCommon0
          CFI (cfiCond92) Function MT_AfDataRetrieve
          CFI (cfiCond92) Conditional ??CrossCallReturnLabel_65
          CFI (cfiCond92) R6 load(1, XDATA, add(CFA_XSP16, literal(-24)))
          CFI (cfiCond92) VB load(1, XDATA, add(CFA_XSP16, literal(-23)))
          CFI (cfiCond92) V0 load(1, XDATA, add(CFA_XSP16, literal(-22)))
          CFI (cfiCond92) V1 load(1, XDATA, add(CFA_XSP16, literal(-21)))
          CFI (cfiCond92) V2 load(1, XDATA, add(CFA_XSP16, literal(-20)))
          CFI (cfiCond92) V3 load(1, XDATA, add(CFA_XSP16, literal(-19)))
          CFI (cfiCond92) V4 load(1, XDATA, add(CFA_XSP16, literal(-18)))
          CFI (cfiCond92) V5 load(1, XDATA, add(CFA_XSP16, literal(-17)))
          CFI (cfiCond92) V6 load(1, XDATA, add(CFA_XSP16, literal(-16)))
          CFI (cfiCond92) V7 load(1, XDATA, add(CFA_XSP16, literal(-15)))
          CFI (cfiCond92) V8 load(1, XDATA, add(CFA_XSP16, literal(-14)))
          CFI (cfiCond92) V9 load(1, XDATA, add(CFA_XSP16, literal(-13)))
          CFI (cfiCond92) V10 load(1, XDATA, add(CFA_XSP16, literal(-12)))
          CFI (cfiCond92) V11 load(1, XDATA, add(CFA_XSP16, literal(-11)))
          CFI (cfiCond92) V12 load(1, XDATA, add(CFA_XSP16, literal(-10)))
          CFI (cfiCond92) V13 load(1, XDATA, add(CFA_XSP16, literal(-9)))
          CFI (cfiCond92) V14 load(1, XDATA, add(CFA_XSP16, literal(-8)))
          CFI (cfiCond92) V15 load(1, XDATA, add(CFA_XSP16, literal(-7)))
          CFI (cfiCond92) R7 load(1, XDATA, add(CFA_XSP16, literal(-6)))
          CFI (cfiCond92) ?RET_LOW load(1, XDATA, add(CFA_XSP16, literal(-5)))
          CFI (cfiCond92) ?RET_HIGH load(1, XDATA, add(CFA_XSP16, literal(-4)))
          CFI (cfiCond92) ?BRET_EXT load(1, XDATA, add(CFA_XSP16, literal(-3)))
          CFI (cfiCond92) DPL0 load(1, XDATA, add(CFA_XSP16, literal(-2)))
          CFI (cfiCond92) DPH0 load(1, XDATA, add(CFA_XSP16, literal(-1)))
          CFI (cfiCond92) CFA_SP SP+0
          CFI (cfiCond92) CFA_XSP16 add(XSP16, 24)
          CFI Block cfiPicker93 Using cfiCommon1
          CFI (cfiPicker93) NoFunction
          CFI (cfiPicker93) Picker
        MOV     A,R0
        MOVX    @DPTR,A
        INC     DPTR
        MOV     A,R1
        MOVX    @DPTR,A
        RET
          CFI EndBlock cfiCond87
          CFI EndBlock cfiCond88
          CFI EndBlock cfiCond89
          CFI EndBlock cfiCond90
          CFI EndBlock cfiCond91
          CFI EndBlock cfiCond92
          CFI EndBlock cfiPicker93

        RSEG BANKED_CODE:CODE:NOROOT(0)
?Subroutine30:
          CFI Block cfiCond94 Using cfiCommon0
          CFI Function MT_AfDataRequest
          CFI Conditional ??CrossCallReturnLabel_47
          CFI R6 load(1, XDATA, add(CFA_XSP16, literal(-20)))
          CFI VB load(1, XDATA, add(CFA_XSP16, literal(-19)))
          CFI V0 load(1, XDATA, add(CFA_XSP16, literal(-18)))
          CFI V1 load(1, XDATA, add(CFA_XSP16, literal(-17)))
          CFI V2 load(1, XDATA, add(CFA_XSP16, literal(-16)))
          CFI V3 load(1, XDATA, add(CFA_XSP16, literal(-15)))
          CFI V4 load(1, XDATA, add(CFA_XSP16, literal(-14)))
          CFI V5 load(1, XDATA, add(CFA_XSP16, literal(-13)))
          CFI V6 load(1, XDATA, add(CFA_XSP16, literal(-12)))
          CFI V7 load(1, XDATA, add(CFA_XSP16, literal(-11)))
          CFI V8 load(1, XDATA, add(CFA_XSP16, literal(-10)))
          CFI V9 load(1, XDATA, add(CFA_XSP16, literal(-9)))
          CFI V10 load(1, XDATA, add(CFA_XSP16, literal(-8)))
          CFI V11 load(1, XDATA, add(CFA_XSP16, literal(-7)))
          CFI R7 load(1, XDATA, add(CFA_XSP16, literal(-6)))
          CFI ?RET_LOW load(1, XDATA, add(CFA_XSP16, literal(-5)))
          CFI ?RET_HIGH load(1, XDATA, add(CFA_XSP16, literal(-4)))
          CFI ?BRET_EXT load(1, XDATA, add(CFA_XSP16, literal(-3)))
          CFI DPL0 load(1, XDATA, add(CFA_XSP16, literal(-2)))
          CFI DPH0 load(1, XDATA, add(CFA_XSP16, literal(-1)))
          CFI CFA_SP SP+0
          CFI CFA_XSP16 add(XSP16, 34)
          CFI Block cfiCond95 Using cfiCommon0
          CFI (cfiCond95) Function MT_AfIncomingMsg
          CFI (cfiCond95) Conditional ??CrossCallReturnLabel_48
          CFI (cfiCond95) R6 load(1, XDATA, add(CFA_XSP16, literal(-23)))
          CFI (cfiCond95) VB load(1, XDATA, add(CFA_XSP16, literal(-22)))
          CFI (cfiCond95) V0 load(1, XDATA, add(CFA_XSP16, literal(-21)))
          CFI (cfiCond95) V1 load(1, XDATA, add(CFA_XSP16, literal(-20)))
          CFI (cfiCond95) V2 load(1, XDATA, add(CFA_XSP16, literal(-19)))
          CFI (cfiCond95) V3 load(1, XDATA, add(CFA_XSP16, literal(-18)))
          CFI (cfiCond95) V4 load(1, XDATA, add(CFA_XSP16, literal(-17)))
          CFI (cfiCond95) V5 load(1, XDATA, add(CFA_XSP16, literal(-16)))
          CFI (cfiCond95) V6 load(1, XDATA, add(CFA_XSP16, literal(-15)))
          CFI (cfiCond95) V7 load(1, XDATA, add(CFA_XSP16, literal(-14)))
          CFI (cfiCond95) V8 load(1, XDATA, add(CFA_XSP16, literal(-13)))
          CFI (cfiCond95) V9 load(1, XDATA, add(CFA_XSP16, literal(-12)))
          CFI (cfiCond95) V10 load(1, XDATA, add(CFA_XSP16, literal(-11)))
          CFI (cfiCond95) V11 load(1, XDATA, add(CFA_XSP16, literal(-10)))
          CFI (cfiCond95) V12 load(1, XDATA, add(CFA_XSP16, literal(-9)))
          CFI (cfiCond95) V13 load(1, XDATA, add(CFA_XSP16, literal(-8)))
          CFI (cfiCond95) V14 load(1, XDATA, add(CFA_XSP16, literal(-7)))
          CFI (cfiCond95) R7 load(1, XDATA, add(CFA_XSP16, literal(-6)))
          CFI (cfiCond95) ?RET_LOW load(1, XDATA, add(CFA_XSP16, literal(-5)))
          CFI (cfiCond95) ?RET_HIGH load(1, XDATA, add(CFA_XSP16, literal(-4)))
          CFI (cfiCond95) ?BRET_EXT load(1, XDATA, add(CFA_XSP16, literal(-3)))
          CFI (cfiCond95) DPL0 load(1, XDATA, add(CFA_XSP16, literal(-2)))
          CFI (cfiCond95) DPH0 load(1, XDATA, add(CFA_XSP16, literal(-1)))
          CFI (cfiCond95) CFA_SP SP+0
          CFI (cfiCond95) CFA_XSP16 add(XSP16, 23)
          CFI Block cfiPicker96 Using cfiCommon1
          CFI (cfiPicker96) NoFunction
          CFI (cfiPicker96) Picker
        MOV     A,#0xf
        MOVX    @DPTR,A
        ; Setup parameters for call to function osal_start_timerEx
        ; Setup parameters for call to function osal_start_timerEx
        MOV     R4,#-0x18
        MOV     R5,#0x3
        MOV     R2,#0x8
        MOV     R3,#0x0
        MOV     DPTR,#MT_TaskID
        MOVX    A,@DPTR
        MOV     R1,A
        RET
          CFI EndBlock cfiCond94
          CFI EndBlock cfiCond95
          CFI EndBlock cfiPicker96

        RSEG BANKED_CODE:CODE:NOROOT(0)
?Subroutine29:
          CFI Block cfiCond97 Using cfiCommon0
          CFI Function MT_AfIncomingMsg
          CFI Conditional ??CrossCallReturnLabel_43
          CFI R6 load(1, XDATA, add(CFA_XSP16, literal(-23)))
          CFI VB load(1, XDATA, add(CFA_XSP16, literal(-22)))
          CFI V0 load(1, XDATA, add(CFA_XSP16, literal(-21)))
          CFI V1 load(1, XDATA, add(CFA_XSP16, literal(-20)))
          CFI V2 load(1, XDATA, add(CFA_XSP16, literal(-19)))
          CFI V3 load(1, XDATA, add(CFA_XSP16, literal(-18)))
          CFI V4 load(1, XDATA, add(CFA_XSP16, literal(-17)))
          CFI V5 load(1, XDATA, add(CFA_XSP16, literal(-16)))
          CFI V6 load(1, XDATA, add(CFA_XSP16, literal(-15)))
          CFI V7 load(1, XDATA, add(CFA_XSP16, literal(-14)))
          CFI V8 load(1, XDATA, add(CFA_XSP16, literal(-13)))
          CFI V9 load(1, XDATA, add(CFA_XSP16, literal(-12)))
          CFI V10 load(1, XDATA, add(CFA_XSP16, literal(-11)))
          CFI V11 load(1, XDATA, add(CFA_XSP16, literal(-10)))
          CFI V12 load(1, XDATA, add(CFA_XSP16, literal(-9)))
          CFI V13 load(1, XDATA, add(CFA_XSP16, literal(-8)))
          CFI V14 load(1, XDATA, add(CFA_XSP16, literal(-7)))
          CFI R7 load(1, XDATA, add(CFA_XSP16, literal(-6)))
          CFI ?RET_LOW load(1, XDATA, add(CFA_XSP16, literal(-5)))
          CFI ?RET_HIGH load(1, XDATA, add(CFA_XSP16, literal(-4)))
          CFI ?BRET_EXT load(1, XDATA, add(CFA_XSP16, literal(-3)))
          CFI DPL0 load(1, XDATA, add(CFA_XSP16, literal(-2)))
          CFI DPH0 load(1, XDATA, add(CFA_XSP16, literal(-1)))
          CFI CFA_SP SP+0
          CFI CFA_XSP16 add(XSP16, 23)
          CFI Block cfiCond98 Using cfiCommon0
          CFI (cfiCond98) Function MT_AfIncomingMsg
          CFI (cfiCond98) Conditional ??CrossCallReturnLabel_44
          CFI (cfiCond98) R6 load(1, XDATA, add(CFA_XSP16, literal(-23)))
          CFI (cfiCond98) VB load(1, XDATA, add(CFA_XSP16, literal(-22)))
          CFI (cfiCond98) V0 load(1, XDATA, add(CFA_XSP16, literal(-21)))
          CFI (cfiCond98) V1 load(1, XDATA, add(CFA_XSP16, literal(-20)))
          CFI (cfiCond98) V2 load(1, XDATA, add(CFA_XSP16, literal(-19)))
          CFI (cfiCond98) V3 load(1, XDATA, add(CFA_XSP16, literal(-18)))
          CFI (cfiCond98) V4 load(1, XDATA, add(CFA_XSP16, literal(-17)))
          CFI (cfiCond98) V5 load(1, XDATA, add(CFA_XSP16, literal(-16)))
          CFI (cfiCond98) V6 load(1, XDATA, add(CFA_XSP16, literal(-15)))
          CFI (cfiCond98) V7 load(1, XDATA, add(CFA_XSP16, literal(-14)))
          CFI (cfiCond98) V8 load(1, XDATA, add(CFA_XSP16, literal(-13)))
          CFI (cfiCond98) V9 load(1, XDATA, add(CFA_XSP16, literal(-12)))
          CFI (cfiCond98) V10 load(1, XDATA, add(CFA_XSP16, literal(-11)))
          CFI (cfiCond98) V11 load(1, XDATA, add(CFA_XSP16, literal(-10)))
          CFI (cfiCond98) V12 load(1, XDATA, add(CFA_XSP16, literal(-9)))
          CFI (cfiCond98) V13 load(1, XDATA, add(CFA_XSP16, literal(-8)))
          CFI (cfiCond98) V14 load(1, XDATA, add(CFA_XSP16, literal(-7)))
          CFI (cfiCond98) R7 load(1, XDATA, add(CFA_XSP16, literal(-6)))
          CFI (cfiCond98) ?RET_LOW load(1, XDATA, add(CFA_XSP16, literal(-5)))
          CFI (cfiCond98) ?RET_HIGH load(1, XDATA, add(CFA_XSP16, literal(-4)))
          CFI (cfiCond98) ?BRET_EXT load(1, XDATA, add(CFA_XSP16, literal(-3)))
          CFI (cfiCond98) DPL0 load(1, XDATA, add(CFA_XSP16, literal(-2)))
          CFI (cfiCond98) DPH0 load(1, XDATA, add(CFA_XSP16, literal(-1)))
          CFI (cfiCond98) CFA_SP SP+0
          CFI (cfiCond98) CFA_XSP16 add(XSP16, 23)
          CFI Block cfiCond99 Using cfiCommon0
          CFI (cfiCond99) Function MT_AfIncomingMsg
          CFI (cfiCond99) Conditional ??CrossCallReturnLabel_45
          CFI (cfiCond99) R6 load(1, XDATA, add(CFA_XSP16, literal(-23)))
          CFI (cfiCond99) VB load(1, XDATA, add(CFA_XSP16, literal(-22)))
          CFI (cfiCond99) V0 load(1, XDATA, add(CFA_XSP16, literal(-21)))
          CFI (cfiCond99) V1 load(1, XDATA, add(CFA_XSP16, literal(-20)))
          CFI (cfiCond99) V2 load(1, XDATA, add(CFA_XSP16, literal(-19)))
          CFI (cfiCond99) V3 load(1, XDATA, add(CFA_XSP16, literal(-18)))
          CFI (cfiCond99) V4 load(1, XDATA, add(CFA_XSP16, literal(-17)))
          CFI (cfiCond99) V5 load(1, XDATA, add(CFA_XSP16, literal(-16)))
          CFI (cfiCond99) V6 load(1, XDATA, add(CFA_XSP16, literal(-15)))
          CFI (cfiCond99) V7 load(1, XDATA, add(CFA_XSP16, literal(-14)))
          CFI (cfiCond99) V8 load(1, XDATA, add(CFA_XSP16, literal(-13)))
          CFI (cfiCond99) V9 load(1, XDATA, add(CFA_XSP16, literal(-12)))
          CFI (cfiCond99) V10 load(1, XDATA, add(CFA_XSP16, literal(-11)))
          CFI (cfiCond99) V11 load(1, XDATA, add(CFA_XSP16, literal(-10)))
          CFI (cfiCond99) V12 load(1, XDATA, add(CFA_XSP16, literal(-9)))
          CFI (cfiCond99) V13 load(1, XDATA, add(CFA_XSP16, literal(-8)))
          CFI (cfiCond99) V14 load(1, XDATA, add(CFA_XSP16, literal(-7)))
          CFI (cfiCond99) R7 load(1, XDATA, add(CFA_XSP16, literal(-6)))
          CFI (cfiCond99) ?RET_LOW load(1, XDATA, add(CFA_XSP16, literal(-5)))
          CFI (cfiCond99) ?RET_HIGH load(1, XDATA, add(CFA_XSP16, literal(-4)))
          CFI (cfiCond99) ?BRET_EXT load(1, XDATA, add(CFA_XSP16, literal(-3)))
          CFI (cfiCond99) DPL0 load(1, XDATA, add(CFA_XSP16, literal(-2)))
          CFI (cfiCond99) DPH0 load(1, XDATA, add(CFA_XSP16, literal(-1)))
          CFI (cfiCond99) CFA_SP SP+0
          CFI (cfiCond99) CFA_XSP16 add(XSP16, 23)
          CFI Block cfiCond100 Using cfiCommon0
          CFI (cfiCond100) Function MT_AfIncomingMsg
          CFI (cfiCond100) Conditional ??CrossCallReturnLabel_46
          CFI (cfiCond100) R6 load(1, XDATA, add(CFA_XSP16, literal(-23)))
          CFI (cfiCond100) VB load(1, XDATA, add(CFA_XSP16, literal(-22)))
          CFI (cfiCond100) V0 load(1, XDATA, add(CFA_XSP16, literal(-21)))
          CFI (cfiCond100) V1 load(1, XDATA, add(CFA_XSP16, literal(-20)))
          CFI (cfiCond100) V2 load(1, XDATA, add(CFA_XSP16, literal(-19)))
          CFI (cfiCond100) V3 load(1, XDATA, add(CFA_XSP16, literal(-18)))
          CFI (cfiCond100) V4 load(1, XDATA, add(CFA_XSP16, literal(-17)))
          CFI (cfiCond100) V5 load(1, XDATA, add(CFA_XSP16, literal(-16)))
          CFI (cfiCond100) V6 load(1, XDATA, add(CFA_XSP16, literal(-15)))
          CFI (cfiCond100) V7 load(1, XDATA, add(CFA_XSP16, literal(-14)))
          CFI (cfiCond100) V8 load(1, XDATA, add(CFA_XSP16, literal(-13)))
          CFI (cfiCond100) V9 load(1, XDATA, add(CFA_XSP16, literal(-12)))
          CFI (cfiCond100) V10 load(1, XDATA, add(CFA_XSP16, literal(-11)))
          CFI (cfiCond100) V11 load(1, XDATA, add(CFA_XSP16, literal(-10)))
          CFI (cfiCond100) V12 load(1, XDATA, add(CFA_XSP16, literal(-9)))
          CFI (cfiCond100) V13 load(1, XDATA, add(CFA_XSP16, literal(-8)))
          CFI (cfiCond100) V14 load(1, XDATA, add(CFA_XSP16, literal(-7)))
          CFI (cfiCond100) R7 load(1, XDATA, add(CFA_XSP16, literal(-6)))
          CFI (cfiCond100) ?RET_LOW load(1, XDATA, add(CFA_XSP16, literal(-5)))
          CFI (cfiCond100) ?RET_HIGH load(1, XDATA, add(CFA_XSP16, literal(-4)))
          CFI (cfiCond100) ?BRET_EXT load(1, XDATA, add(CFA_XSP16, literal(-3)))
          CFI (cfiCond100) DPL0 load(1, XDATA, add(CFA_XSP16, literal(-2)))
          CFI (cfiCond100) DPH0 load(1, XDATA, add(CFA_XSP16, literal(-1)))
          CFI (cfiCond100) CFA_SP SP+0
          CFI (cfiCond100) CFA_XSP16 add(XSP16, 23)
          CFI Block cfiPicker101 Using cfiCommon1
          CFI (cfiPicker101) NoFunction
          CFI (cfiPicker101) Picker
        LCALL   ??Subroutine52_0 & 0xFFFF
??CrossCallReturnLabel_119:
        RET
          CFI EndBlock cfiCond97
          CFI EndBlock cfiCond98
          CFI EndBlock cfiCond99
          CFI EndBlock cfiCond100
          CFI EndBlock cfiPicker101

        RSEG BANKED_CODE:CODE:NOROOT(0)
?Subroutine27:
          CFI Block cfiCond102 Using cfiCommon0
          CFI Function MT_AfIncomingMsg
          CFI Conditional ??CrossCallReturnLabel_97
          CFI R6 load(1, XDATA, add(CFA_XSP16, literal(-23)))
          CFI VB load(1, XDATA, add(CFA_XSP16, literal(-22)))
          CFI V0 load(1, XDATA, add(CFA_XSP16, literal(-21)))
          CFI V1 load(1, XDATA, add(CFA_XSP16, literal(-20)))
          CFI V2 load(1, XDATA, add(CFA_XSP16, literal(-19)))
          CFI V3 load(1, XDATA, add(CFA_XSP16, literal(-18)))
          CFI V4 load(1, XDATA, add(CFA_XSP16, literal(-17)))
          CFI V5 load(1, XDATA, add(CFA_XSP16, literal(-16)))
          CFI V6 load(1, XDATA, add(CFA_XSP16, literal(-15)))
          CFI V7 load(1, XDATA, add(CFA_XSP16, literal(-14)))
          CFI V8 load(1, XDATA, add(CFA_XSP16, literal(-13)))
          CFI V9 load(1, XDATA, add(CFA_XSP16, literal(-12)))
          CFI V10 load(1, XDATA, add(CFA_XSP16, literal(-11)))
          CFI V11 load(1, XDATA, add(CFA_XSP16, literal(-10)))
          CFI V12 load(1, XDATA, add(CFA_XSP16, literal(-9)))
          CFI V13 load(1, XDATA, add(CFA_XSP16, literal(-8)))
          CFI V14 load(1, XDATA, add(CFA_XSP16, literal(-7)))
          CFI R7 load(1, XDATA, add(CFA_XSP16, literal(-6)))
          CFI ?RET_LOW load(1, XDATA, add(CFA_XSP16, literal(-5)))
          CFI ?RET_HIGH load(1, XDATA, add(CFA_XSP16, literal(-4)))
          CFI ?BRET_EXT load(1, XDATA, add(CFA_XSP16, literal(-3)))
          CFI DPL0 load(1, XDATA, add(CFA_XSP16, literal(-2)))
          CFI DPH0 load(1, XDATA, add(CFA_XSP16, literal(-1)))
          CFI CFA_SP SP+0
          CFI CFA_XSP16 add(XSP16, 23)
          CFI Block cfiCond103 Using cfiCommon0
          CFI (cfiCond103) Function MT_AfIncomingMsg
          CFI (cfiCond103) Conditional ??CrossCallReturnLabel_98
          CFI (cfiCond103) R6 load(1, XDATA, add(CFA_XSP16, literal(-23)))
          CFI (cfiCond103) VB load(1, XDATA, add(CFA_XSP16, literal(-22)))
          CFI (cfiCond103) V0 load(1, XDATA, add(CFA_XSP16, literal(-21)))
          CFI (cfiCond103) V1 load(1, XDATA, add(CFA_XSP16, literal(-20)))
          CFI (cfiCond103) V2 load(1, XDATA, add(CFA_XSP16, literal(-19)))
          CFI (cfiCond103) V3 load(1, XDATA, add(CFA_XSP16, literal(-18)))
          CFI (cfiCond103) V4 load(1, XDATA, add(CFA_XSP16, literal(-17)))
          CFI (cfiCond103) V5 load(1, XDATA, add(CFA_XSP16, literal(-16)))
          CFI (cfiCond103) V6 load(1, XDATA, add(CFA_XSP16, literal(-15)))
          CFI (cfiCond103) V7 load(1, XDATA, add(CFA_XSP16, literal(-14)))
          CFI (cfiCond103) V8 load(1, XDATA, add(CFA_XSP16, literal(-13)))
          CFI (cfiCond103) V9 load(1, XDATA, add(CFA_XSP16, literal(-12)))
          CFI (cfiCond103) V10 load(1, XDATA, add(CFA_XSP16, literal(-11)))
          CFI (cfiCond103) V11 load(1, XDATA, add(CFA_XSP16, literal(-10)))
          CFI (cfiCond103) V12 load(1, XDATA, add(CFA_XSP16, literal(-9)))
          CFI (cfiCond103) V13 load(1, XDATA, add(CFA_XSP16, literal(-8)))
          CFI (cfiCond103) V14 load(1, XDATA, add(CFA_XSP16, literal(-7)))
          CFI (cfiCond103) R7 load(1, XDATA, add(CFA_XSP16, literal(-6)))
          CFI (cfiCond103) ?RET_LOW load(1, XDATA, add(CFA_XSP16, literal(-5)))
          CFI (cfiCond103) ?RET_HIGH load(1, XDATA, add(CFA_XSP16, literal(-4)))
          CFI (cfiCond103) ?BRET_EXT load(1, XDATA, add(CFA_XSP16, literal(-3)))
          CFI (cfiCond103) DPL0 load(1, XDATA, add(CFA_XSP16, literal(-2)))
          CFI (cfiCond103) DPH0 load(1, XDATA, add(CFA_XSP16, literal(-1)))
          CFI (cfiCond103) CFA_SP SP+0
          CFI (cfiCond103) CFA_XSP16 add(XSP16, 23)
          CFI Block cfiPicker104 Using cfiCommon1
          CFI (cfiPicker104) NoFunction
          CFI (cfiPicker104) Picker
        MOV     DPL,?V0 + 6
        MOV     DPH,?V0 + 7
        MOV     A,?V0 + 8
          CFI EndBlock cfiCond102
          CFI EndBlock cfiCond103
          CFI EndBlock cfiPicker104
        REQUIRE ??Subroutine49_0
        ; // Fall through to label ??Subroutine49_0

        RSEG BANKED_CODE:CODE:NOROOT(0)
??Subroutine49_0:
          CFI Block cfiCond105 Using cfiCommon0
          CFI Function MT_AfIncomingMsg
          CFI Conditional ??CrossCallReturnLabel_99
          CFI R6 load(1, XDATA, add(CFA_XSP16, literal(-23)))
          CFI VB load(1, XDATA, add(CFA_XSP16, literal(-22)))
          CFI V0 load(1, XDATA, add(CFA_XSP16, literal(-21)))
          CFI V1 load(1, XDATA, add(CFA_XSP16, literal(-20)))
          CFI V2 load(1, XDATA, add(CFA_XSP16, literal(-19)))
          CFI V3 load(1, XDATA, add(CFA_XSP16, literal(-18)))
          CFI V4 load(1, XDATA, add(CFA_XSP16, literal(-17)))
          CFI V5 load(1, XDATA, add(CFA_XSP16, literal(-16)))
          CFI V6 load(1, XDATA, add(CFA_XSP16, literal(-15)))
          CFI V7 load(1, XDATA, add(CFA_XSP16, literal(-14)))
          CFI V8 load(1, XDATA, add(CFA_XSP16, literal(-13)))
          CFI V9 load(1, XDATA, add(CFA_XSP16, literal(-12)))
          CFI V10 load(1, XDATA, add(CFA_XSP16, literal(-11)))
          CFI V11 load(1, XDATA, add(CFA_XSP16, literal(-10)))
          CFI V12 load(1, XDATA, add(CFA_XSP16, literal(-9)))
          CFI V13 load(1, XDATA, add(CFA_XSP16, literal(-8)))
          CFI V14 load(1, XDATA, add(CFA_XSP16, literal(-7)))
          CFI R7 load(1, XDATA, add(CFA_XSP16, literal(-6)))
          CFI ?RET_LOW load(1, XDATA, add(CFA_XSP16, literal(-5)))
          CFI ?RET_HIGH load(1, XDATA, add(CFA_XSP16, literal(-4)))
          CFI ?BRET_EXT load(1, XDATA, add(CFA_XSP16, literal(-3)))
          CFI DPL0 load(1, XDATA, add(CFA_XSP16, literal(-2)))
          CFI DPH0 load(1, XDATA, add(CFA_XSP16, literal(-1)))
          CFI CFA_SP SP+0
          CFI CFA_XSP16 add(XSP16, 23)
          CFI Block cfiCond106 Using cfiCommon0
          CFI (cfiCond106) Function MT_AfIncomingMsg
          CFI (cfiCond106) Conditional ??CrossCallReturnLabel_97
          CFI (cfiCond106) R6 load(1, XDATA, add(CFA_XSP16, literal(-23)))
          CFI (cfiCond106) VB load(1, XDATA, add(CFA_XSP16, literal(-22)))
          CFI (cfiCond106) V0 load(1, XDATA, add(CFA_XSP16, literal(-21)))
          CFI (cfiCond106) V1 load(1, XDATA, add(CFA_XSP16, literal(-20)))
          CFI (cfiCond106) V2 load(1, XDATA, add(CFA_XSP16, literal(-19)))
          CFI (cfiCond106) V3 load(1, XDATA, add(CFA_XSP16, literal(-18)))
          CFI (cfiCond106) V4 load(1, XDATA, add(CFA_XSP16, literal(-17)))
          CFI (cfiCond106) V5 load(1, XDATA, add(CFA_XSP16, literal(-16)))
          CFI (cfiCond106) V6 load(1, XDATA, add(CFA_XSP16, literal(-15)))
          CFI (cfiCond106) V7 load(1, XDATA, add(CFA_XSP16, literal(-14)))
          CFI (cfiCond106) V8 load(1, XDATA, add(CFA_XSP16, literal(-13)))
          CFI (cfiCond106) V9 load(1, XDATA, add(CFA_XSP16, literal(-12)))
          CFI (cfiCond106) V10 load(1, XDATA, add(CFA_XSP16, literal(-11)))
          CFI (cfiCond106) V11 load(1, XDATA, add(CFA_XSP16, literal(-10)))
          CFI (cfiCond106) V12 load(1, XDATA, add(CFA_XSP16, literal(-9)))
          CFI (cfiCond106) V13 load(1, XDATA, add(CFA_XSP16, literal(-8)))
          CFI (cfiCond106) V14 load(1, XDATA, add(CFA_XSP16, literal(-7)))
          CFI (cfiCond106) R7 load(1, XDATA, add(CFA_XSP16, literal(-6)))
          CFI (cfiCond106) ?RET_LOW load(1, XDATA, add(CFA_XSP16, literal(-5)))
          CFI (cfiCond106) ?RET_HIGH load(1, XDATA, add(CFA_XSP16, literal(-4)))
          CFI (cfiCond106) ?BRET_EXT load(1, XDATA, add(CFA_XSP16, literal(-3)))
          CFI (cfiCond106) DPL0 load(1, XDATA, add(CFA_XSP16, literal(-2)))
          CFI (cfiCond106) DPH0 load(1, XDATA, add(CFA_XSP16, literal(-1)))
          CFI (cfiCond106) CFA_SP SP+0
          CFI (cfiCond106) CFA_XSP16 add(XSP16, 23)
          CFI Block cfiCond107 Using cfiCommon0
          CFI (cfiCond107) Function MT_AfIncomingMsg
          CFI (cfiCond107) Conditional ??CrossCallReturnLabel_98
          CFI (cfiCond107) R6 load(1, XDATA, add(CFA_XSP16, literal(-23)))
          CFI (cfiCond107) VB load(1, XDATA, add(CFA_XSP16, literal(-22)))
          CFI (cfiCond107) V0 load(1, XDATA, add(CFA_XSP16, literal(-21)))
          CFI (cfiCond107) V1 load(1, XDATA, add(CFA_XSP16, literal(-20)))
          CFI (cfiCond107) V2 load(1, XDATA, add(CFA_XSP16, literal(-19)))
          CFI (cfiCond107) V3 load(1, XDATA, add(CFA_XSP16, literal(-18)))
          CFI (cfiCond107) V4 load(1, XDATA, add(CFA_XSP16, literal(-17)))
          CFI (cfiCond107) V5 load(1, XDATA, add(CFA_XSP16, literal(-16)))
          CFI (cfiCond107) V6 load(1, XDATA, add(CFA_XSP16, literal(-15)))
          CFI (cfiCond107) V7 load(1, XDATA, add(CFA_XSP16, literal(-14)))
          CFI (cfiCond107) V8 load(1, XDATA, add(CFA_XSP16, literal(-13)))
          CFI (cfiCond107) V9 load(1, XDATA, add(CFA_XSP16, literal(-12)))
          CFI (cfiCond107) V10 load(1, XDATA, add(CFA_XSP16, literal(-11)))
          CFI (cfiCond107) V11 load(1, XDATA, add(CFA_XSP16, literal(-10)))
          CFI (cfiCond107) V12 load(1, XDATA, add(CFA_XSP16, literal(-9)))
          CFI (cfiCond107) V13 load(1, XDATA, add(CFA_XSP16, literal(-8)))
          CFI (cfiCond107) V14 load(1, XDATA, add(CFA_XSP16, literal(-7)))
          CFI (cfiCond107) R7 load(1, XDATA, add(CFA_XSP16, literal(-6)))
          CFI (cfiCond107) ?RET_LOW load(1, XDATA, add(CFA_XSP16, literal(-5)))
          CFI (cfiCond107) ?RET_HIGH load(1, XDATA, add(CFA_XSP16, literal(-4)))
          CFI (cfiCond107) ?BRET_EXT load(1, XDATA, add(CFA_XSP16, literal(-3)))
          CFI (cfiCond107) DPL0 load(1, XDATA, add(CFA_XSP16, literal(-2)))
          CFI (cfiCond107) DPH0 load(1, XDATA, add(CFA_XSP16, literal(-1)))
          CFI (cfiCond107) CFA_SP SP+0
          CFI (cfiCond107) CFA_XSP16 add(XSP16, 23)
          CFI Block cfiPicker108 Using cfiCommon1
          CFI (cfiPicker108) NoFunction
          CFI (cfiPicker108) Picker
        LCALL   ??Subroutine52_0 & 0xFFFF
??CrossCallReturnLabel_120:
        MOV     DPL,R2
        MOV     DPH,R3
        MOV     R0,#?V0 + 8
        RET
          CFI EndBlock cfiCond105
          CFI EndBlock cfiCond106
          CFI EndBlock cfiCond107
          CFI EndBlock cfiPicker108

        RSEG BANKED_CODE:CODE:NOROOT(0)
?Subroutine25:
          CFI Block cfiCond109 Using cfiCommon0
          CFI Function MT_AfIncomingMsg
          CFI Conditional ??CrossCallReturnLabel_35
          CFI R6 load(1, XDATA, add(CFA_XSP16, literal(-23)))
          CFI VB load(1, XDATA, add(CFA_XSP16, literal(-22)))
          CFI V0 load(1, XDATA, add(CFA_XSP16, literal(-21)))
          CFI V1 load(1, XDATA, add(CFA_XSP16, literal(-20)))
          CFI V2 load(1, XDATA, add(CFA_XSP16, literal(-19)))
          CFI V3 load(1, XDATA, add(CFA_XSP16, literal(-18)))
          CFI V4 load(1, XDATA, add(CFA_XSP16, literal(-17)))
          CFI V5 load(1, XDATA, add(CFA_XSP16, literal(-16)))
          CFI V6 load(1, XDATA, add(CFA_XSP16, literal(-15)))
          CFI V7 load(1, XDATA, add(CFA_XSP16, literal(-14)))
          CFI V8 load(1, XDATA, add(CFA_XSP16, literal(-13)))
          CFI V9 load(1, XDATA, add(CFA_XSP16, literal(-12)))
          CFI V10 load(1, XDATA, add(CFA_XSP16, literal(-11)))
          CFI V11 load(1, XDATA, add(CFA_XSP16, literal(-10)))
          CFI V12 load(1, XDATA, add(CFA_XSP16, literal(-9)))
          CFI V13 load(1, XDATA, add(CFA_XSP16, literal(-8)))
          CFI V14 load(1, XDATA, add(CFA_XSP16, literal(-7)))
          CFI R7 load(1, XDATA, add(CFA_XSP16, literal(-6)))
          CFI ?RET_LOW load(1, XDATA, add(CFA_XSP16, literal(-5)))
          CFI ?RET_HIGH load(1, XDATA, add(CFA_XSP16, literal(-4)))
          CFI ?BRET_EXT load(1, XDATA, add(CFA_XSP16, literal(-3)))
          CFI DPL0 load(1, XDATA, add(CFA_XSP16, literal(-2)))
          CFI DPH0 load(1, XDATA, add(CFA_XSP16, literal(-1)))
          CFI CFA_SP SP+0
          CFI CFA_XSP16 add(XSP16, 23)
          CFI Block cfiCond110 Using cfiCommon0
          CFI (cfiCond110) Function MT_AfIncomingMsg
          CFI (cfiCond110) Conditional ??CrossCallReturnLabel_36
          CFI (cfiCond110) R6 load(1, XDATA, add(CFA_XSP16, literal(-23)))
          CFI (cfiCond110) VB load(1, XDATA, add(CFA_XSP16, literal(-22)))
          CFI (cfiCond110) V0 load(1, XDATA, add(CFA_XSP16, literal(-21)))
          CFI (cfiCond110) V1 load(1, XDATA, add(CFA_XSP16, literal(-20)))
          CFI (cfiCond110) V2 load(1, XDATA, add(CFA_XSP16, literal(-19)))
          CFI (cfiCond110) V3 load(1, XDATA, add(CFA_XSP16, literal(-18)))
          CFI (cfiCond110) V4 load(1, XDATA, add(CFA_XSP16, literal(-17)))
          CFI (cfiCond110) V5 load(1, XDATA, add(CFA_XSP16, literal(-16)))
          CFI (cfiCond110) V6 load(1, XDATA, add(CFA_XSP16, literal(-15)))
          CFI (cfiCond110) V7 load(1, XDATA, add(CFA_XSP16, literal(-14)))
          CFI (cfiCond110) V8 load(1, XDATA, add(CFA_XSP16, literal(-13)))
          CFI (cfiCond110) V9 load(1, XDATA, add(CFA_XSP16, literal(-12)))
          CFI (cfiCond110) V10 load(1, XDATA, add(CFA_XSP16, literal(-11)))
          CFI (cfiCond110) V11 load(1, XDATA, add(CFA_XSP16, literal(-10)))
          CFI (cfiCond110) V12 load(1, XDATA, add(CFA_XSP16, literal(-9)))
          CFI (cfiCond110) V13 load(1, XDATA, add(CFA_XSP16, literal(-8)))
          CFI (cfiCond110) V14 load(1, XDATA, add(CFA_XSP16, literal(-7)))
          CFI (cfiCond110) R7 load(1, XDATA, add(CFA_XSP16, literal(-6)))
          CFI (cfiCond110) ?RET_LOW load(1, XDATA, add(CFA_XSP16, literal(-5)))
          CFI (cfiCond110) ?RET_HIGH load(1, XDATA, add(CFA_XSP16, literal(-4)))
          CFI (cfiCond110) ?BRET_EXT load(1, XDATA, add(CFA_XSP16, literal(-3)))
          CFI (cfiCond110) DPL0 load(1, XDATA, add(CFA_XSP16, literal(-2)))
          CFI (cfiCond110) DPH0 load(1, XDATA, add(CFA_XSP16, literal(-1)))
          CFI (cfiCond110) CFA_SP SP+0
          CFI (cfiCond110) CFA_XSP16 add(XSP16, 23)
          CFI Block cfiCond111 Using cfiCommon0
          CFI (cfiCond111) Function MT_AfIncomingMsg
          CFI (cfiCond111) Conditional ??CrossCallReturnLabel_37
          CFI (cfiCond111) R6 load(1, XDATA, add(CFA_XSP16, literal(-23)))
          CFI (cfiCond111) VB load(1, XDATA, add(CFA_XSP16, literal(-22)))
          CFI (cfiCond111) V0 load(1, XDATA, add(CFA_XSP16, literal(-21)))
          CFI (cfiCond111) V1 load(1, XDATA, add(CFA_XSP16, literal(-20)))
          CFI (cfiCond111) V2 load(1, XDATA, add(CFA_XSP16, literal(-19)))
          CFI (cfiCond111) V3 load(1, XDATA, add(CFA_XSP16, literal(-18)))
          CFI (cfiCond111) V4 load(1, XDATA, add(CFA_XSP16, literal(-17)))
          CFI (cfiCond111) V5 load(1, XDATA, add(CFA_XSP16, literal(-16)))
          CFI (cfiCond111) V6 load(1, XDATA, add(CFA_XSP16, literal(-15)))
          CFI (cfiCond111) V7 load(1, XDATA, add(CFA_XSP16, literal(-14)))
          CFI (cfiCond111) V8 load(1, XDATA, add(CFA_XSP16, literal(-13)))
          CFI (cfiCond111) V9 load(1, XDATA, add(CFA_XSP16, literal(-12)))
          CFI (cfiCond111) V10 load(1, XDATA, add(CFA_XSP16, literal(-11)))
          CFI (cfiCond111) V11 load(1, XDATA, add(CFA_XSP16, literal(-10)))
          CFI (cfiCond111) V12 load(1, XDATA, add(CFA_XSP16, literal(-9)))
          CFI (cfiCond111) V13 load(1, XDATA, add(CFA_XSP16, literal(-8)))
          CFI (cfiCond111) V14 load(1, XDATA, add(CFA_XSP16, literal(-7)))
          CFI (cfiCond111) R7 load(1, XDATA, add(CFA_XSP16, literal(-6)))
          CFI (cfiCond111) ?RET_LOW load(1, XDATA, add(CFA_XSP16, literal(-5)))
          CFI (cfiCond111) ?RET_HIGH load(1, XDATA, add(CFA_XSP16, literal(-4)))
          CFI (cfiCond111) ?BRET_EXT load(1, XDATA, add(CFA_XSP16, literal(-3)))
          CFI (cfiCond111) DPL0 load(1, XDATA, add(CFA_XSP16, literal(-2)))
          CFI (cfiCond111) DPH0 load(1, XDATA, add(CFA_XSP16, literal(-1)))
          CFI (cfiCond111) CFA_SP SP+0
          CFI (cfiCond111) CFA_XSP16 add(XSP16, 23)
          CFI Block cfiPicker112 Using cfiCommon1
          CFI (cfiPicker112) NoFunction
          CFI (cfiPicker112) Picker
        MOV     R0,A
        MOV     A,?V0 + 3
        ADDC    A,#0x0
        MOV     R1,A
        MOV     DPL,R0
        MOV     DPH,R1
        RET
          CFI EndBlock cfiCond109
          CFI EndBlock cfiCond110
          CFI EndBlock cfiCond111
          CFI EndBlock cfiPicker112

        RSEG BANKED_CODE:CODE:NOROOT(0)
?Subroutine24:
          CFI Block cfiCond113 Using cfiCommon0
          CFI Function MT_AfIncomingMsg
          CFI Conditional ??CrossCallReturnLabel_104
          CFI R6 load(1, XDATA, add(CFA_XSP16, literal(-23)))
          CFI VB load(1, XDATA, add(CFA_XSP16, literal(-22)))
          CFI V0 load(1, XDATA, add(CFA_XSP16, literal(-21)))
          CFI V1 load(1, XDATA, add(CFA_XSP16, literal(-20)))
          CFI V2 load(1, XDATA, add(CFA_XSP16, literal(-19)))
          CFI V3 load(1, XDATA, add(CFA_XSP16, literal(-18)))
          CFI V4 load(1, XDATA, add(CFA_XSP16, literal(-17)))
          CFI V5 load(1, XDATA, add(CFA_XSP16, literal(-16)))
          CFI V6 load(1, XDATA, add(CFA_XSP16, literal(-15)))
          CFI V7 load(1, XDATA, add(CFA_XSP16, literal(-14)))
          CFI V8 load(1, XDATA, add(CFA_XSP16, literal(-13)))
          CFI V9 load(1, XDATA, add(CFA_XSP16, literal(-12)))
          CFI V10 load(1, XDATA, add(CFA_XSP16, literal(-11)))
          CFI V11 load(1, XDATA, add(CFA_XSP16, literal(-10)))
          CFI V12 load(1, XDATA, add(CFA_XSP16, literal(-9)))
          CFI V13 load(1, XDATA, add(CFA_XSP16, literal(-8)))
          CFI V14 load(1, XDATA, add(CFA_XSP16, literal(-7)))
          CFI R7 load(1, XDATA, add(CFA_XSP16, literal(-6)))
          CFI ?RET_LOW load(1, XDATA, add(CFA_XSP16, literal(-5)))
          CFI ?RET_HIGH load(1, XDATA, add(CFA_XSP16, literal(-4)))
          CFI ?BRET_EXT load(1, XDATA, add(CFA_XSP16, literal(-3)))
          CFI DPL0 load(1, XDATA, add(CFA_XSP16, literal(-2)))
          CFI DPH0 load(1, XDATA, add(CFA_XSP16, literal(-1)))
          CFI CFA_SP SP+0
          CFI CFA_XSP16 add(XSP16, 23)
          CFI Block cfiCond114 Using cfiCommon0
          CFI (cfiCond114) Function MT_AfIncomingMsg
          CFI (cfiCond114) Conditional ??CrossCallReturnLabel_105
          CFI (cfiCond114) R6 load(1, XDATA, add(CFA_XSP16, literal(-23)))
          CFI (cfiCond114) VB load(1, XDATA, add(CFA_XSP16, literal(-22)))
          CFI (cfiCond114) V0 load(1, XDATA, add(CFA_XSP16, literal(-21)))
          CFI (cfiCond114) V1 load(1, XDATA, add(CFA_XSP16, literal(-20)))
          CFI (cfiCond114) V2 load(1, XDATA, add(CFA_XSP16, literal(-19)))
          CFI (cfiCond114) V3 load(1, XDATA, add(CFA_XSP16, literal(-18)))
          CFI (cfiCond114) V4 load(1, XDATA, add(CFA_XSP16, literal(-17)))
          CFI (cfiCond114) V5 load(1, XDATA, add(CFA_XSP16, literal(-16)))
          CFI (cfiCond114) V6 load(1, XDATA, add(CFA_XSP16, literal(-15)))
          CFI (cfiCond114) V7 load(1, XDATA, add(CFA_XSP16, literal(-14)))
          CFI (cfiCond114) V8 load(1, XDATA, add(CFA_XSP16, literal(-13)))
          CFI (cfiCond114) V9 load(1, XDATA, add(CFA_XSP16, literal(-12)))
          CFI (cfiCond114) V10 load(1, XDATA, add(CFA_XSP16, literal(-11)))
          CFI (cfiCond114) V11 load(1, XDATA, add(CFA_XSP16, literal(-10)))
          CFI (cfiCond114) V12 load(1, XDATA, add(CFA_XSP16, literal(-9)))
          CFI (cfiCond114) V13 load(1, XDATA, add(CFA_XSP16, literal(-8)))
          CFI (cfiCond114) V14 load(1, XDATA, add(CFA_XSP16, literal(-7)))
          CFI (cfiCond114) R7 load(1, XDATA, add(CFA_XSP16, literal(-6)))
          CFI (cfiCond114) ?RET_LOW load(1, XDATA, add(CFA_XSP16, literal(-5)))
          CFI (cfiCond114) ?RET_HIGH load(1, XDATA, add(CFA_XSP16, literal(-4)))
          CFI (cfiCond114) ?BRET_EXT load(1, XDATA, add(CFA_XSP16, literal(-3)))
          CFI (cfiCond114) DPL0 load(1, XDATA, add(CFA_XSP16, literal(-2)))
          CFI (cfiCond114) DPH0 load(1, XDATA, add(CFA_XSP16, literal(-1)))
          CFI (cfiCond114) CFA_SP SP+0
          CFI (cfiCond114) CFA_XSP16 add(XSP16, 23)
          CFI Block cfiPicker115 Using cfiCommon1
          CFI (cfiPicker115) NoFunction
          CFI (cfiPicker115) Picker
        MOV     A,?V0 + 2
        ADD     A,#0x22
        MOV     DPL,A
        MOV     A,?V0 + 3
          CFI EndBlock cfiCond113
          CFI EndBlock cfiCond114
          CFI EndBlock cfiPicker115
        REQUIRE ??Subroutine50_0
        ; // Fall through to label ??Subroutine50_0

        RSEG BANKED_CODE:CODE:NOROOT(0)
??Subroutine50_0:
          CFI Block cfiCond116 Using cfiCommon0
          CFI Function MT_AfExec
          CFI Conditional ??CrossCallReturnLabel_100
          CFI R6 load(1, XDATA, add(CFA_XSP16, literal(-9)))
          CFI VB load(1, XDATA, add(CFA_XSP16, literal(-8)))
          CFI V0 load(1, XDATA, add(CFA_XSP16, literal(-7)))
          CFI R7 load(1, XDATA, add(CFA_XSP16, literal(-6)))
          CFI ?RET_LOW load(1, XDATA, add(CFA_XSP16, literal(-5)))
          CFI ?RET_HIGH load(1, XDATA, add(CFA_XSP16, literal(-4)))
          CFI ?BRET_EXT load(1, XDATA, add(CFA_XSP16, literal(-3)))
          CFI DPL0 load(1, XDATA, add(CFA_XSP16, literal(-2)))
          CFI DPH0 load(1, XDATA, add(CFA_XSP16, literal(-1)))
          CFI CFA_SP SP+0
          CFI CFA_XSP16 add(XSP16, 9)
          CFI Block cfiCond117 Using cfiCommon0
          CFI (cfiCond117) Function MT_AfExec
          CFI (cfiCond117) Conditional ??CrossCallReturnLabel_101
          CFI (cfiCond117) R6 load(1, XDATA, add(CFA_XSP16, literal(-9)))
          CFI (cfiCond117) VB load(1, XDATA, add(CFA_XSP16, literal(-8)))
          CFI (cfiCond117) V0 load(1, XDATA, add(CFA_XSP16, literal(-7)))
          CFI (cfiCond117) R7 load(1, XDATA, add(CFA_XSP16, literal(-6)))
          CFI (cfiCond117) ?RET_LOW load(1, XDATA, add(CFA_XSP16, literal(-5)))
          CFI (cfiCond117) ?RET_HIGH load(1, XDATA, add(CFA_XSP16, literal(-4)))
          CFI (cfiCond117) ?BRET_EXT load(1, XDATA, add(CFA_XSP16, literal(-3)))
          CFI (cfiCond117) DPL0 load(1, XDATA, add(CFA_XSP16, literal(-2)))
          CFI (cfiCond117) DPH0 load(1, XDATA, add(CFA_XSP16, literal(-1)))
          CFI (cfiCond117) CFA_SP SP+0
          CFI (cfiCond117) CFA_XSP16 add(XSP16, 9)
          CFI Block cfiCond118 Using cfiCommon0
          CFI (cfiCond118) Function MT_AfIncomingMsg
          CFI (cfiCond118) Conditional ??CrossCallReturnLabel_102
          CFI (cfiCond118) R6 load(1, XDATA, add(CFA_XSP16, literal(-23)))
          CFI (cfiCond118) VB load(1, XDATA, add(CFA_XSP16, literal(-22)))
          CFI (cfiCond118) V0 load(1, XDATA, add(CFA_XSP16, literal(-21)))
          CFI (cfiCond118) V1 load(1, XDATA, add(CFA_XSP16, literal(-20)))
          CFI (cfiCond118) V2 load(1, XDATA, add(CFA_XSP16, literal(-19)))
          CFI (cfiCond118) V3 load(1, XDATA, add(CFA_XSP16, literal(-18)))
          CFI (cfiCond118) V4 load(1, XDATA, add(CFA_XSP16, literal(-17)))
          CFI (cfiCond118) V5 load(1, XDATA, add(CFA_XSP16, literal(-16)))
          CFI (cfiCond118) V6 load(1, XDATA, add(CFA_XSP16, literal(-15)))
          CFI (cfiCond118) V7 load(1, XDATA, add(CFA_XSP16, literal(-14)))
          CFI (cfiCond118) V8 load(1, XDATA, add(CFA_XSP16, literal(-13)))
          CFI (cfiCond118) V9 load(1, XDATA, add(CFA_XSP16, literal(-12)))
          CFI (cfiCond118) V10 load(1, XDATA, add(CFA_XSP16, literal(-11)))
          CFI (cfiCond118) V11 load(1, XDATA, add(CFA_XSP16, literal(-10)))
          CFI (cfiCond118) V12 load(1, XDATA, add(CFA_XSP16, literal(-9)))
          CFI (cfiCond118) V13 load(1, XDATA, add(CFA_XSP16, literal(-8)))
          CFI (cfiCond118) V14 load(1, XDATA, add(CFA_XSP16, literal(-7)))
          CFI (cfiCond118) R7 load(1, XDATA, add(CFA_XSP16, literal(-6)))
          CFI (cfiCond118) ?RET_LOW load(1, XDATA, add(CFA_XSP16, literal(-5)))
          CFI (cfiCond118) ?RET_HIGH load(1, XDATA, add(CFA_XSP16, literal(-4)))
          CFI (cfiCond118) ?BRET_EXT load(1, XDATA, add(CFA_XSP16, literal(-3)))
          CFI (cfiCond118) DPL0 load(1, XDATA, add(CFA_XSP16, literal(-2)))
          CFI (cfiCond118) DPH0 load(1, XDATA, add(CFA_XSP16, literal(-1)))
          CFI (cfiCond118) CFA_SP SP+0
          CFI (cfiCond118) CFA_XSP16 add(XSP16, 23)
          CFI Block cfiCond119 Using cfiCommon0
          CFI (cfiCond119) Function MT_AfIncomingMsg
          CFI (cfiCond119) Conditional ??CrossCallReturnLabel_103
          CFI (cfiCond119) R6 load(1, XDATA, add(CFA_XSP16, literal(-23)))
          CFI (cfiCond119) VB load(1, XDATA, add(CFA_XSP16, literal(-22)))
          CFI (cfiCond119) V0 load(1, XDATA, add(CFA_XSP16, literal(-21)))
          CFI (cfiCond119) V1 load(1, XDATA, add(CFA_XSP16, literal(-20)))
          CFI (cfiCond119) V2 load(1, XDATA, add(CFA_XSP16, literal(-19)))
          CFI (cfiCond119) V3 load(1, XDATA, add(CFA_XSP16, literal(-18)))
          CFI (cfiCond119) V4 load(1, XDATA, add(CFA_XSP16, literal(-17)))
          CFI (cfiCond119) V5 load(1, XDATA, add(CFA_XSP16, literal(-16)))
          CFI (cfiCond119) V6 load(1, XDATA, add(CFA_XSP16, literal(-15)))
          CFI (cfiCond119) V7 load(1, XDATA, add(CFA_XSP16, literal(-14)))
          CFI (cfiCond119) V8 load(1, XDATA, add(CFA_XSP16, literal(-13)))
          CFI (cfiCond119) V9 load(1, XDATA, add(CFA_XSP16, literal(-12)))
          CFI (cfiCond119) V10 load(1, XDATA, add(CFA_XSP16, literal(-11)))
          CFI (cfiCond119) V11 load(1, XDATA, add(CFA_XSP16, literal(-10)))
          CFI (cfiCond119) V12 load(1, XDATA, add(CFA_XSP16, literal(-9)))
          CFI (cfiCond119) V13 load(1, XDATA, add(CFA_XSP16, literal(-8)))
          CFI (cfiCond119) V14 load(1, XDATA, add(CFA_XSP16, literal(-7)))
          CFI (cfiCond119) R7 load(1, XDATA, add(CFA_XSP16, literal(-6)))
          CFI (cfiCond119) ?RET_LOW load(1, XDATA, add(CFA_XSP16, literal(-5)))
          CFI (cfiCond119) ?RET_HIGH load(1, XDATA, add(CFA_XSP16, literal(-4)))
          CFI (cfiCond119) ?BRET_EXT load(1, XDATA, add(CFA_XSP16, literal(-3)))
          CFI (cfiCond119) DPL0 load(1, XDATA, add(CFA_XSP16, literal(-2)))
          CFI (cfiCond119) DPH0 load(1, XDATA, add(CFA_XSP16, literal(-1)))
          CFI (cfiCond119) CFA_SP SP+0
          CFI (cfiCond119) CFA_XSP16 add(XSP16, 23)
          CFI Block cfiCond120 Using cfiCommon0
          CFI (cfiCond120) Function MT_AfIncomingMsg
          CFI (cfiCond120) Conditional ??CrossCallReturnLabel_104
          CFI (cfiCond120) R6 load(1, XDATA, add(CFA_XSP16, literal(-23)))
          CFI (cfiCond120) VB load(1, XDATA, add(CFA_XSP16, literal(-22)))
          CFI (cfiCond120) V0 load(1, XDATA, add(CFA_XSP16, literal(-21)))
          CFI (cfiCond120) V1 load(1, XDATA, add(CFA_XSP16, literal(-20)))
          CFI (cfiCond120) V2 load(1, XDATA, add(CFA_XSP16, literal(-19)))
          CFI (cfiCond120) V3 load(1, XDATA, add(CFA_XSP16, literal(-18)))
          CFI (cfiCond120) V4 load(1, XDATA, add(CFA_XSP16, literal(-17)))
          CFI (cfiCond120) V5 load(1, XDATA, add(CFA_XSP16, literal(-16)))
          CFI (cfiCond120) V6 load(1, XDATA, add(CFA_XSP16, literal(-15)))
          CFI (cfiCond120) V7 load(1, XDATA, add(CFA_XSP16, literal(-14)))
          CFI (cfiCond120) V8 load(1, XDATA, add(CFA_XSP16, literal(-13)))
          CFI (cfiCond120) V9 load(1, XDATA, add(CFA_XSP16, literal(-12)))
          CFI (cfiCond120) V10 load(1, XDATA, add(CFA_XSP16, literal(-11)))
          CFI (cfiCond120) V11 load(1, XDATA, add(CFA_XSP16, literal(-10)))
          CFI (cfiCond120) V12 load(1, XDATA, add(CFA_XSP16, literal(-9)))
          CFI (cfiCond120) V13 load(1, XDATA, add(CFA_XSP16, literal(-8)))
          CFI (cfiCond120) V14 load(1, XDATA, add(CFA_XSP16, literal(-7)))
          CFI (cfiCond120) R7 load(1, XDATA, add(CFA_XSP16, literal(-6)))
          CFI (cfiCond120) ?RET_LOW load(1, XDATA, add(CFA_XSP16, literal(-5)))
          CFI (cfiCond120) ?RET_HIGH load(1, XDATA, add(CFA_XSP16, literal(-4)))
          CFI (cfiCond120) ?BRET_EXT load(1, XDATA, add(CFA_XSP16, literal(-3)))
          CFI (cfiCond120) DPL0 load(1, XDATA, add(CFA_XSP16, literal(-2)))
          CFI (cfiCond120) DPH0 load(1, XDATA, add(CFA_XSP16, literal(-1)))
          CFI (cfiCond120) CFA_SP SP+0
          CFI (cfiCond120) CFA_XSP16 add(XSP16, 23)
          CFI Block cfiCond121 Using cfiCommon0
          CFI (cfiCond121) Function MT_AfIncomingMsg
          CFI (cfiCond121) Conditional ??CrossCallReturnLabel_105
          CFI (cfiCond121) R6 load(1, XDATA, add(CFA_XSP16, literal(-23)))
          CFI (cfiCond121) VB load(1, XDATA, add(CFA_XSP16, literal(-22)))
          CFI (cfiCond121) V0 load(1, XDATA, add(CFA_XSP16, literal(-21)))
          CFI (cfiCond121) V1 load(1, XDATA, add(CFA_XSP16, literal(-20)))
          CFI (cfiCond121) V2 load(1, XDATA, add(CFA_XSP16, literal(-19)))
          CFI (cfiCond121) V3 load(1, XDATA, add(CFA_XSP16, literal(-18)))
          CFI (cfiCond121) V4 load(1, XDATA, add(CFA_XSP16, literal(-17)))
          CFI (cfiCond121) V5 load(1, XDATA, add(CFA_XSP16, literal(-16)))
          CFI (cfiCond121) V6 load(1, XDATA, add(CFA_XSP16, literal(-15)))
          CFI (cfiCond121) V7 load(1, XDATA, add(CFA_XSP16, literal(-14)))
          CFI (cfiCond121) V8 load(1, XDATA, add(CFA_XSP16, literal(-13)))
          CFI (cfiCond121) V9 load(1, XDATA, add(CFA_XSP16, literal(-12)))
          CFI (cfiCond121) V10 load(1, XDATA, add(CFA_XSP16, literal(-11)))
          CFI (cfiCond121) V11 load(1, XDATA, add(CFA_XSP16, literal(-10)))
          CFI (cfiCond121) V12 load(1, XDATA, add(CFA_XSP16, literal(-9)))
          CFI (cfiCond121) V13 load(1, XDATA, add(CFA_XSP16, literal(-8)))
          CFI (cfiCond121) V14 load(1, XDATA, add(CFA_XSP16, literal(-7)))
          CFI (cfiCond121) R7 load(1, XDATA, add(CFA_XSP16, literal(-6)))
          CFI (cfiCond121) ?RET_LOW load(1, XDATA, add(CFA_XSP16, literal(-5)))
          CFI (cfiCond121) ?RET_HIGH load(1, XDATA, add(CFA_XSP16, literal(-4)))
          CFI (cfiCond121) ?BRET_EXT load(1, XDATA, add(CFA_XSP16, literal(-3)))
          CFI (cfiCond121) DPL0 load(1, XDATA, add(CFA_XSP16, literal(-2)))
          CFI (cfiCond121) DPH0 load(1, XDATA, add(CFA_XSP16, literal(-1)))
          CFI (cfiCond121) CFA_SP SP+0
          CFI (cfiCond121) CFA_XSP16 add(XSP16, 23)
          CFI Block cfiPicker122 Using cfiCommon1
          CFI (cfiPicker122) NoFunction
          CFI (cfiPicker122) Picker
        LCALL   ??Subroutine55_0 & 0xFFFF
??CrossCallReturnLabel_140:
        MOVX    A,@DPTR
        RET
          CFI EndBlock cfiCond116
          CFI EndBlock cfiCond117
          CFI EndBlock cfiCond118
          CFI EndBlock cfiCond119
          CFI EndBlock cfiCond120
          CFI EndBlock cfiCond121
          CFI EndBlock cfiPicker122

        RSEG BANKED_CODE:CODE:NOROOT(0)
?Subroutine19:
          CFI Block cfiCond123 Using cfiCommon0
          CFI Function MT_AfIncomingMsg
          CFI Conditional ??CrossCallReturnLabel_28
          CFI R6 load(1, XDATA, add(CFA_XSP16, literal(-23)))
          CFI VB load(1, XDATA, add(CFA_XSP16, literal(-22)))
          CFI V0 load(1, XDATA, add(CFA_XSP16, literal(-21)))
          CFI V1 load(1, XDATA, add(CFA_XSP16, literal(-20)))
          CFI V2 load(1, XDATA, add(CFA_XSP16, literal(-19)))
          CFI V3 load(1, XDATA, add(CFA_XSP16, literal(-18)))
          CFI V4 load(1, XDATA, add(CFA_XSP16, literal(-17)))
          CFI V5 load(1, XDATA, add(CFA_XSP16, literal(-16)))
          CFI V6 load(1, XDATA, add(CFA_XSP16, literal(-15)))
          CFI V7 load(1, XDATA, add(CFA_XSP16, literal(-14)))
          CFI V8 load(1, XDATA, add(CFA_XSP16, literal(-13)))
          CFI V9 load(1, XDATA, add(CFA_XSP16, literal(-12)))
          CFI V10 load(1, XDATA, add(CFA_XSP16, literal(-11)))
          CFI V11 load(1, XDATA, add(CFA_XSP16, literal(-10)))
          CFI V12 load(1, XDATA, add(CFA_XSP16, literal(-9)))
          CFI V13 load(1, XDATA, add(CFA_XSP16, literal(-8)))
          CFI V14 load(1, XDATA, add(CFA_XSP16, literal(-7)))
          CFI R7 load(1, XDATA, add(CFA_XSP16, literal(-6)))
          CFI ?RET_LOW load(1, XDATA, add(CFA_XSP16, literal(-5)))
          CFI ?RET_HIGH load(1, XDATA, add(CFA_XSP16, literal(-4)))
          CFI ?BRET_EXT load(1, XDATA, add(CFA_XSP16, literal(-3)))
          CFI DPL0 load(1, XDATA, add(CFA_XSP16, literal(-2)))
          CFI DPH0 load(1, XDATA, add(CFA_XSP16, literal(-1)))
          CFI CFA_SP SP+0
          CFI CFA_XSP16 add(XSP16, 23)
          CFI Block cfiCond124 Using cfiCommon0
          CFI (cfiCond124) Function MT_AfIncomingMsg
          CFI (cfiCond124) Conditional ??CrossCallReturnLabel_29
          CFI (cfiCond124) R6 load(1, XDATA, add(CFA_XSP16, literal(-23)))
          CFI (cfiCond124) VB load(1, XDATA, add(CFA_XSP16, literal(-22)))
          CFI (cfiCond124) V0 load(1, XDATA, add(CFA_XSP16, literal(-21)))
          CFI (cfiCond124) V1 load(1, XDATA, add(CFA_XSP16, literal(-20)))
          CFI (cfiCond124) V2 load(1, XDATA, add(CFA_XSP16, literal(-19)))
          CFI (cfiCond124) V3 load(1, XDATA, add(CFA_XSP16, literal(-18)))
          CFI (cfiCond124) V4 load(1, XDATA, add(CFA_XSP16, literal(-17)))
          CFI (cfiCond124) V5 load(1, XDATA, add(CFA_XSP16, literal(-16)))
          CFI (cfiCond124) V6 load(1, XDATA, add(CFA_XSP16, literal(-15)))
          CFI (cfiCond124) V7 load(1, XDATA, add(CFA_XSP16, literal(-14)))
          CFI (cfiCond124) V8 load(1, XDATA, add(CFA_XSP16, literal(-13)))
          CFI (cfiCond124) V9 load(1, XDATA, add(CFA_XSP16, literal(-12)))
          CFI (cfiCond124) V10 load(1, XDATA, add(CFA_XSP16, literal(-11)))
          CFI (cfiCond124) V11 load(1, XDATA, add(CFA_XSP16, literal(-10)))
          CFI (cfiCond124) V12 load(1, XDATA, add(CFA_XSP16, literal(-9)))
          CFI (cfiCond124) V13 load(1, XDATA, add(CFA_XSP16, literal(-8)))
          CFI (cfiCond124) V14 load(1, XDATA, add(CFA_XSP16, literal(-7)))
          CFI (cfiCond124) R7 load(1, XDATA, add(CFA_XSP16, literal(-6)))
          CFI (cfiCond124) ?RET_LOW load(1, XDATA, add(CFA_XSP16, literal(-5)))
          CFI (cfiCond124) ?RET_HIGH load(1, XDATA, add(CFA_XSP16, literal(-4)))
          CFI (cfiCond124) ?BRET_EXT load(1, XDATA, add(CFA_XSP16, literal(-3)))
          CFI (cfiCond124) DPL0 load(1, XDATA, add(CFA_XSP16, literal(-2)))
          CFI (cfiCond124) DPH0 load(1, XDATA, add(CFA_XSP16, literal(-1)))
          CFI (cfiCond124) CFA_SP SP+0
          CFI (cfiCond124) CFA_XSP16 add(XSP16, 23)
          CFI Block cfiCond125 Using cfiCommon0
          CFI (cfiCond125) Function MT_AfIncomingMsg
          CFI (cfiCond125) Conditional ??CrossCallReturnLabel_30
          CFI (cfiCond125) R6 load(1, XDATA, add(CFA_XSP16, literal(-23)))
          CFI (cfiCond125) VB load(1, XDATA, add(CFA_XSP16, literal(-22)))
          CFI (cfiCond125) V0 load(1, XDATA, add(CFA_XSP16, literal(-21)))
          CFI (cfiCond125) V1 load(1, XDATA, add(CFA_XSP16, literal(-20)))
          CFI (cfiCond125) V2 load(1, XDATA, add(CFA_XSP16, literal(-19)))
          CFI (cfiCond125) V3 load(1, XDATA, add(CFA_XSP16, literal(-18)))
          CFI (cfiCond125) V4 load(1, XDATA, add(CFA_XSP16, literal(-17)))
          CFI (cfiCond125) V5 load(1, XDATA, add(CFA_XSP16, literal(-16)))
          CFI (cfiCond125) V6 load(1, XDATA, add(CFA_XSP16, literal(-15)))
          CFI (cfiCond125) V7 load(1, XDATA, add(CFA_XSP16, literal(-14)))
          CFI (cfiCond125) V8 load(1, XDATA, add(CFA_XSP16, literal(-13)))
          CFI (cfiCond125) V9 load(1, XDATA, add(CFA_XSP16, literal(-12)))
          CFI (cfiCond125) V10 load(1, XDATA, add(CFA_XSP16, literal(-11)))
          CFI (cfiCond125) V11 load(1, XDATA, add(CFA_XSP16, literal(-10)))
          CFI (cfiCond125) V12 load(1, XDATA, add(CFA_XSP16, literal(-9)))
          CFI (cfiCond125) V13 load(1, XDATA, add(CFA_XSP16, literal(-8)))
          CFI (cfiCond125) V14 load(1, XDATA, add(CFA_XSP16, literal(-7)))
          CFI (cfiCond125) R7 load(1, XDATA, add(CFA_XSP16, literal(-6)))
          CFI (cfiCond125) ?RET_LOW load(1, XDATA, add(CFA_XSP16, literal(-5)))
          CFI (cfiCond125) ?RET_HIGH load(1, XDATA, add(CFA_XSP16, literal(-4)))
          CFI (cfiCond125) ?BRET_EXT load(1, XDATA, add(CFA_XSP16, literal(-3)))
          CFI (cfiCond125) DPL0 load(1, XDATA, add(CFA_XSP16, literal(-2)))
          CFI (cfiCond125) DPH0 load(1, XDATA, add(CFA_XSP16, literal(-1)))
          CFI (cfiCond125) CFA_SP SP+0
          CFI (cfiCond125) CFA_XSP16 add(XSP16, 23)
          CFI Block cfiPicker126 Using cfiCommon1
          CFI (cfiPicker126) NoFunction
          CFI (cfiPicker126) Picker
        LCALL   ?Subroutine44 & 0xFFFF
??CrossCallReturnLabel_117:
        RET
          CFI EndBlock cfiCond123
          CFI EndBlock cfiCond124
          CFI EndBlock cfiCond125
          CFI EndBlock cfiPicker126

        RSEG BANKED_CODE:CODE:NOROOT(0)
?Subroutine44:
          CFI Block cfiCond127 Using cfiCommon0
          CFI Function MT_AfIncomingMsg
          CFI Conditional ??CrossCallReturnLabel_117, ??CrossCallReturnLabel_28
          CFI R6 load(1, XDATA, add(CFA_XSP16, literal(-23)))
          CFI VB load(1, XDATA, add(CFA_XSP16, literal(-22)))
          CFI V0 load(1, XDATA, add(CFA_XSP16, literal(-21)))
          CFI V1 load(1, XDATA, add(CFA_XSP16, literal(-20)))
          CFI V2 load(1, XDATA, add(CFA_XSP16, literal(-19)))
          CFI V3 load(1, XDATA, add(CFA_XSP16, literal(-18)))
          CFI V4 load(1, XDATA, add(CFA_XSP16, literal(-17)))
          CFI V5 load(1, XDATA, add(CFA_XSP16, literal(-16)))
          CFI V6 load(1, XDATA, add(CFA_XSP16, literal(-15)))
          CFI V7 load(1, XDATA, add(CFA_XSP16, literal(-14)))
          CFI V8 load(1, XDATA, add(CFA_XSP16, literal(-13)))
          CFI V9 load(1, XDATA, add(CFA_XSP16, literal(-12)))
          CFI V10 load(1, XDATA, add(CFA_XSP16, literal(-11)))
          CFI V11 load(1, XDATA, add(CFA_XSP16, literal(-10)))
          CFI V12 load(1, XDATA, add(CFA_XSP16, literal(-9)))
          CFI V13 load(1, XDATA, add(CFA_XSP16, literal(-8)))
          CFI V14 load(1, XDATA, add(CFA_XSP16, literal(-7)))
          CFI R7 load(1, XDATA, add(CFA_XSP16, literal(-6)))
          CFI ?RET_LOW load(1, XDATA, add(CFA_XSP16, literal(-5)))
          CFI ?RET_HIGH load(1, XDATA, add(CFA_XSP16, literal(-4)))
          CFI ?BRET_EXT load(1, XDATA, add(CFA_XSP16, literal(-3)))
          CFI DPL0 load(1, XDATA, add(CFA_XSP16, literal(-2)))
          CFI DPH0 load(1, XDATA, add(CFA_XSP16, literal(-1)))
          CFI CFA_SP SP+0
          CFI CFA_XSP16 add(XSP16, 23)
          CFI Block cfiCond128 Using cfiCommon0
          CFI (cfiCond128) Function MT_AfIncomingMsg
          CFI (cfiCond128) Conditional ??CrossCallReturnLabel_117, ??CrossCallReturnLabel_29
          CFI (cfiCond128) R6 load(1, XDATA, add(CFA_XSP16, literal(-23)))
          CFI (cfiCond128) VB load(1, XDATA, add(CFA_XSP16, literal(-22)))
          CFI (cfiCond128) V0 load(1, XDATA, add(CFA_XSP16, literal(-21)))
          CFI (cfiCond128) V1 load(1, XDATA, add(CFA_XSP16, literal(-20)))
          CFI (cfiCond128) V2 load(1, XDATA, add(CFA_XSP16, literal(-19)))
          CFI (cfiCond128) V3 load(1, XDATA, add(CFA_XSP16, literal(-18)))
          CFI (cfiCond128) V4 load(1, XDATA, add(CFA_XSP16, literal(-17)))
          CFI (cfiCond128) V5 load(1, XDATA, add(CFA_XSP16, literal(-16)))
          CFI (cfiCond128) V6 load(1, XDATA, add(CFA_XSP16, literal(-15)))
          CFI (cfiCond128) V7 load(1, XDATA, add(CFA_XSP16, literal(-14)))
          CFI (cfiCond128) V8 load(1, XDATA, add(CFA_XSP16, literal(-13)))
          CFI (cfiCond128) V9 load(1, XDATA, add(CFA_XSP16, literal(-12)))
          CFI (cfiCond128) V10 load(1, XDATA, add(CFA_XSP16, literal(-11)))
          CFI (cfiCond128) V11 load(1, XDATA, add(CFA_XSP16, literal(-10)))
          CFI (cfiCond128) V12 load(1, XDATA, add(CFA_XSP16, literal(-9)))
          CFI (cfiCond128) V13 load(1, XDATA, add(CFA_XSP16, literal(-8)))
          CFI (cfiCond128) V14 load(1, XDATA, add(CFA_XSP16, literal(-7)))
          CFI (cfiCond128) R7 load(1, XDATA, add(CFA_XSP16, literal(-6)))
          CFI (cfiCond128) ?RET_LOW load(1, XDATA, add(CFA_XSP16, literal(-5)))
          CFI (cfiCond128) ?RET_HIGH load(1, XDATA, add(CFA_XSP16, literal(-4)))
          CFI (cfiCond128) ?BRET_EXT load(1, XDATA, add(CFA_XSP16, literal(-3)))
          CFI (cfiCond128) DPL0 load(1, XDATA, add(CFA_XSP16, literal(-2)))
          CFI (cfiCond128) DPH0 load(1, XDATA, add(CFA_XSP16, literal(-1)))
          CFI (cfiCond128) CFA_SP SP+0
          CFI (cfiCond128) CFA_XSP16 add(XSP16, 23)
          CFI Block cfiCond129 Using cfiCommon0
          CFI (cfiCond129) Function MT_AfIncomingMsg
          CFI (cfiCond129) Conditional ??CrossCallReturnLabel_117, ??CrossCallReturnLabel_30
          CFI (cfiCond129) R6 load(1, XDATA, add(CFA_XSP16, literal(-23)))
          CFI (cfiCond129) VB load(1, XDATA, add(CFA_XSP16, literal(-22)))
          CFI (cfiCond129) V0 load(1, XDATA, add(CFA_XSP16, literal(-21)))
          CFI (cfiCond129) V1 load(1, XDATA, add(CFA_XSP16, literal(-20)))
          CFI (cfiCond129) V2 load(1, XDATA, add(CFA_XSP16, literal(-19)))
          CFI (cfiCond129) V3 load(1, XDATA, add(CFA_XSP16, literal(-18)))
          CFI (cfiCond129) V4 load(1, XDATA, add(CFA_XSP16, literal(-17)))
          CFI (cfiCond129) V5 load(1, XDATA, add(CFA_XSP16, literal(-16)))
          CFI (cfiCond129) V6 load(1, XDATA, add(CFA_XSP16, literal(-15)))
          CFI (cfiCond129) V7 load(1, XDATA, add(CFA_XSP16, literal(-14)))
          CFI (cfiCond129) V8 load(1, XDATA, add(CFA_XSP16, literal(-13)))
          CFI (cfiCond129) V9 load(1, XDATA, add(CFA_XSP16, literal(-12)))
          CFI (cfiCond129) V10 load(1, XDATA, add(CFA_XSP16, literal(-11)))
          CFI (cfiCond129) V11 load(1, XDATA, add(CFA_XSP16, literal(-10)))
          CFI (cfiCond129) V12 load(1, XDATA, add(CFA_XSP16, literal(-9)))
          CFI (cfiCond129) V13 load(1, XDATA, add(CFA_XSP16, literal(-8)))
          CFI (cfiCond129) V14 load(1, XDATA, add(CFA_XSP16, literal(-7)))
          CFI (cfiCond129) R7 load(1, XDATA, add(CFA_XSP16, literal(-6)))
          CFI (cfiCond129) ?RET_LOW load(1, XDATA, add(CFA_XSP16, literal(-5)))
          CFI (cfiCond129) ?RET_HIGH load(1, XDATA, add(CFA_XSP16, literal(-4)))
          CFI (cfiCond129) ?BRET_EXT load(1, XDATA, add(CFA_XSP16, literal(-3)))
          CFI (cfiCond129) DPL0 load(1, XDATA, add(CFA_XSP16, literal(-2)))
          CFI (cfiCond129) DPH0 load(1, XDATA, add(CFA_XSP16, literal(-1)))
          CFI (cfiCond129) CFA_SP SP+0
          CFI (cfiCond129) CFA_XSP16 add(XSP16, 23)
          CFI Block cfiCond130 Using cfiCommon0
          CFI (cfiCond130) Function MT_AfIncomingMsg
          CFI (cfiCond130) Conditional ??CrossCallReturnLabel_116, ??CrossCallReturnLabel_26
          CFI (cfiCond130) R6 load(1, XDATA, add(CFA_XSP16, literal(-23)))
          CFI (cfiCond130) VB load(1, XDATA, add(CFA_XSP16, literal(-22)))
          CFI (cfiCond130) V0 load(1, XDATA, add(CFA_XSP16, literal(-21)))
          CFI (cfiCond130) V1 load(1, XDATA, add(CFA_XSP16, literal(-20)))
          CFI (cfiCond130) V2 load(1, XDATA, add(CFA_XSP16, literal(-19)))
          CFI (cfiCond130) V3 load(1, XDATA, add(CFA_XSP16, literal(-18)))
          CFI (cfiCond130) V4 load(1, XDATA, add(CFA_XSP16, literal(-17)))
          CFI (cfiCond130) V5 load(1, XDATA, add(CFA_XSP16, literal(-16)))
          CFI (cfiCond130) V6 load(1, XDATA, add(CFA_XSP16, literal(-15)))
          CFI (cfiCond130) V7 load(1, XDATA, add(CFA_XSP16, literal(-14)))
          CFI (cfiCond130) V8 load(1, XDATA, add(CFA_XSP16, literal(-13)))
          CFI (cfiCond130) V9 load(1, XDATA, add(CFA_XSP16, literal(-12)))
          CFI (cfiCond130) V10 load(1, XDATA, add(CFA_XSP16, literal(-11)))
          CFI (cfiCond130) V11 load(1, XDATA, add(CFA_XSP16, literal(-10)))
          CFI (cfiCond130) V12 load(1, XDATA, add(CFA_XSP16, literal(-9)))
          CFI (cfiCond130) V13 load(1, XDATA, add(CFA_XSP16, literal(-8)))
          CFI (cfiCond130) V14 load(1, XDATA, add(CFA_XSP16, literal(-7)))
          CFI (cfiCond130) R7 load(1, XDATA, add(CFA_XSP16, literal(-6)))
          CFI (cfiCond130) ?RET_LOW load(1, XDATA, add(CFA_XSP16, literal(-5)))
          CFI (cfiCond130) ?RET_HIGH load(1, XDATA, add(CFA_XSP16, literal(-4)))
          CFI (cfiCond130) ?BRET_EXT load(1, XDATA, add(CFA_XSP16, literal(-3)))
          CFI (cfiCond130) DPL0 load(1, XDATA, add(CFA_XSP16, literal(-2)))
          CFI (cfiCond130) DPH0 load(1, XDATA, add(CFA_XSP16, literal(-1)))
          CFI (cfiCond130) CFA_SP SP+0
          CFI (cfiCond130) CFA_XSP16 add(XSP16, 23)
          CFI Block cfiCond131 Using cfiCommon0
          CFI (cfiCond131) Function MT_AfIncomingMsg
          CFI (cfiCond131) Conditional ??CrossCallReturnLabel_116, ??CrossCallReturnLabel_27
          CFI (cfiCond131) R6 load(1, XDATA, add(CFA_XSP16, literal(-23)))
          CFI (cfiCond131) VB load(1, XDATA, add(CFA_XSP16, literal(-22)))
          CFI (cfiCond131) V0 load(1, XDATA, add(CFA_XSP16, literal(-21)))
          CFI (cfiCond131) V1 load(1, XDATA, add(CFA_XSP16, literal(-20)))
          CFI (cfiCond131) V2 load(1, XDATA, add(CFA_XSP16, literal(-19)))
          CFI (cfiCond131) V3 load(1, XDATA, add(CFA_XSP16, literal(-18)))
          CFI (cfiCond131) V4 load(1, XDATA, add(CFA_XSP16, literal(-17)))
          CFI (cfiCond131) V5 load(1, XDATA, add(CFA_XSP16, literal(-16)))
          CFI (cfiCond131) V6 load(1, XDATA, add(CFA_XSP16, literal(-15)))
          CFI (cfiCond131) V7 load(1, XDATA, add(CFA_XSP16, literal(-14)))
          CFI (cfiCond131) V8 load(1, XDATA, add(CFA_XSP16, literal(-13)))
          CFI (cfiCond131) V9 load(1, XDATA, add(CFA_XSP16, literal(-12)))
          CFI (cfiCond131) V10 load(1, XDATA, add(CFA_XSP16, literal(-11)))
          CFI (cfiCond131) V11 load(1, XDATA, add(CFA_XSP16, literal(-10)))
          CFI (cfiCond131) V12 load(1, XDATA, add(CFA_XSP16, literal(-9)))
          CFI (cfiCond131) V13 load(1, XDATA, add(CFA_XSP16, literal(-8)))
          CFI (cfiCond131) V14 load(1, XDATA, add(CFA_XSP16, literal(-7)))
          CFI (cfiCond131) R7 load(1, XDATA, add(CFA_XSP16, literal(-6)))
          CFI (cfiCond131) ?RET_LOW load(1, XDATA, add(CFA_XSP16, literal(-5)))
          CFI (cfiCond131) ?RET_HIGH load(1, XDATA, add(CFA_XSP16, literal(-4)))
          CFI (cfiCond131) ?BRET_EXT load(1, XDATA, add(CFA_XSP16, literal(-3)))
          CFI (cfiCond131) DPL0 load(1, XDATA, add(CFA_XSP16, literal(-2)))
          CFI (cfiCond131) DPH0 load(1, XDATA, add(CFA_XSP16, literal(-1)))
          CFI (cfiCond131) CFA_SP SP+0
          CFI (cfiCond131) CFA_XSP16 add(XSP16, 23)
          CFI Block cfiCond132 Using cfiCommon0
          CFI (cfiCond132) Function MT_AfIncomingMsg
          CFI (cfiCond132) Conditional ??CrossCallReturnLabel_118, ??CrossCallReturnLabel_122, ??CrossCallReturnLabel_2
          CFI (cfiCond132) R6 load(1, XDATA, add(CFA_XSP16, literal(-23)))
          CFI (cfiCond132) VB load(1, XDATA, add(CFA_XSP16, literal(-22)))
          CFI (cfiCond132) V0 load(1, XDATA, add(CFA_XSP16, literal(-21)))
          CFI (cfiCond132) V1 load(1, XDATA, add(CFA_XSP16, literal(-20)))
          CFI (cfiCond132) V2 load(1, XDATA, add(CFA_XSP16, literal(-19)))
          CFI (cfiCond132) V3 load(1, XDATA, add(CFA_XSP16, literal(-18)))
          CFI (cfiCond132) V4 load(1, XDATA, add(CFA_XSP16, literal(-17)))
          CFI (cfiCond132) V5 load(1, XDATA, add(CFA_XSP16, literal(-16)))
          CFI (cfiCond132) V6 load(1, XDATA, add(CFA_XSP16, literal(-15)))
          CFI (cfiCond132) V7 load(1, XDATA, add(CFA_XSP16, literal(-14)))
          CFI (cfiCond132) V8 load(1, XDATA, add(CFA_XSP16, literal(-13)))
          CFI (cfiCond132) V9 load(1, XDATA, add(CFA_XSP16, literal(-12)))
          CFI (cfiCond132) V10 load(1, XDATA, add(CFA_XSP16, literal(-11)))
          CFI (cfiCond132) V11 load(1, XDATA, add(CFA_XSP16, literal(-10)))
          CFI (cfiCond132) V12 load(1, XDATA, add(CFA_XSP16, literal(-9)))
          CFI (cfiCond132) V13 load(1, XDATA, add(CFA_XSP16, literal(-8)))
          CFI (cfiCond132) V14 load(1, XDATA, add(CFA_XSP16, literal(-7)))
          CFI (cfiCond132) R7 load(1, XDATA, add(CFA_XSP16, literal(-6)))
          CFI (cfiCond132) ?RET_LOW load(1, XDATA, add(CFA_XSP16, literal(-5)))
          CFI (cfiCond132) ?RET_HIGH load(1, XDATA, add(CFA_XSP16, literal(-4)))
          CFI (cfiCond132) ?BRET_EXT load(1, XDATA, add(CFA_XSP16, literal(-3)))
          CFI (cfiCond132) DPL0 load(1, XDATA, add(CFA_XSP16, literal(-2)))
          CFI (cfiCond132) DPH0 load(1, XDATA, add(CFA_XSP16, literal(-1)))
          CFI (cfiCond132) CFA_SP SP+0
          CFI (cfiCond132) CFA_XSP16 add(XSP16, 23)
          CFI Block cfiCond133 Using cfiCommon0
          CFI (cfiCond133) Function MT_AfIncomingMsg
          CFI (cfiCond133) Conditional ??CrossCallReturnLabel_118, ??CrossCallReturnLabel_122, ??CrossCallReturnLabel_3
          CFI (cfiCond133) R6 load(1, XDATA, add(CFA_XSP16, literal(-23)))
          CFI (cfiCond133) VB load(1, XDATA, add(CFA_XSP16, literal(-22)))
          CFI (cfiCond133) V0 load(1, XDATA, add(CFA_XSP16, literal(-21)))
          CFI (cfiCond133) V1 load(1, XDATA, add(CFA_XSP16, literal(-20)))
          CFI (cfiCond133) V2 load(1, XDATA, add(CFA_XSP16, literal(-19)))
          CFI (cfiCond133) V3 load(1, XDATA, add(CFA_XSP16, literal(-18)))
          CFI (cfiCond133) V4 load(1, XDATA, add(CFA_XSP16, literal(-17)))
          CFI (cfiCond133) V5 load(1, XDATA, add(CFA_XSP16, literal(-16)))
          CFI (cfiCond133) V6 load(1, XDATA, add(CFA_XSP16, literal(-15)))
          CFI (cfiCond133) V7 load(1, XDATA, add(CFA_XSP16, literal(-14)))
          CFI (cfiCond133) V8 load(1, XDATA, add(CFA_XSP16, literal(-13)))
          CFI (cfiCond133) V9 load(1, XDATA, add(CFA_XSP16, literal(-12)))
          CFI (cfiCond133) V10 load(1, XDATA, add(CFA_XSP16, literal(-11)))
          CFI (cfiCond133) V11 load(1, XDATA, add(CFA_XSP16, literal(-10)))
          CFI (cfiCond133) V12 load(1, XDATA, add(CFA_XSP16, literal(-9)))
          CFI (cfiCond133) V13 load(1, XDATA, add(CFA_XSP16, literal(-8)))
          CFI (cfiCond133) V14 load(1, XDATA, add(CFA_XSP16, literal(-7)))
          CFI (cfiCond133) R7 load(1, XDATA, add(CFA_XSP16, literal(-6)))
          CFI (cfiCond133) ?RET_LOW load(1, XDATA, add(CFA_XSP16, literal(-5)))
          CFI (cfiCond133) ?RET_HIGH load(1, XDATA, add(CFA_XSP16, literal(-4)))
          CFI (cfiCond133) ?BRET_EXT load(1, XDATA, add(CFA_XSP16, literal(-3)))
          CFI (cfiCond133) DPL0 load(1, XDATA, add(CFA_XSP16, literal(-2)))
          CFI (cfiCond133) DPH0 load(1, XDATA, add(CFA_XSP16, literal(-1)))
          CFI (cfiCond133) CFA_SP SP+0
          CFI (cfiCond133) CFA_XSP16 add(XSP16, 23)
          CFI Block cfiCond134 Using cfiCommon0
          CFI (cfiCond134) Function MT_AfIncomingMsg
          CFI (cfiCond134) Conditional ??CrossCallReturnLabel_118, ??CrossCallReturnLabel_121, ??CrossCallReturnLabel_0
          CFI (cfiCond134) R6 load(1, XDATA, add(CFA_XSP16, literal(-23)))
          CFI (cfiCond134) VB load(1, XDATA, add(CFA_XSP16, literal(-22)))
          CFI (cfiCond134) V0 load(1, XDATA, add(CFA_XSP16, literal(-21)))
          CFI (cfiCond134) V1 load(1, XDATA, add(CFA_XSP16, literal(-20)))
          CFI (cfiCond134) V2 load(1, XDATA, add(CFA_XSP16, literal(-19)))
          CFI (cfiCond134) V3 load(1, XDATA, add(CFA_XSP16, literal(-18)))
          CFI (cfiCond134) V4 load(1, XDATA, add(CFA_XSP16, literal(-17)))
          CFI (cfiCond134) V5 load(1, XDATA, add(CFA_XSP16, literal(-16)))
          CFI (cfiCond134) V6 load(1, XDATA, add(CFA_XSP16, literal(-15)))
          CFI (cfiCond134) V7 load(1, XDATA, add(CFA_XSP16, literal(-14)))
          CFI (cfiCond134) V8 load(1, XDATA, add(CFA_XSP16, literal(-13)))
          CFI (cfiCond134) V9 load(1, XDATA, add(CFA_XSP16, literal(-12)))
          CFI (cfiCond134) V10 load(1, XDATA, add(CFA_XSP16, literal(-11)))
          CFI (cfiCond134) V11 load(1, XDATA, add(CFA_XSP16, literal(-10)))
          CFI (cfiCond134) V12 load(1, XDATA, add(CFA_XSP16, literal(-9)))
          CFI (cfiCond134) V13 load(1, XDATA, add(CFA_XSP16, literal(-8)))
          CFI (cfiCond134) V14 load(1, XDATA, add(CFA_XSP16, literal(-7)))
          CFI (cfiCond134) R7 load(1, XDATA, add(CFA_XSP16, literal(-6)))
          CFI (cfiCond134) ?RET_LOW load(1, XDATA, add(CFA_XSP16, literal(-5)))
          CFI (cfiCond134) ?RET_HIGH load(1, XDATA, add(CFA_XSP16, literal(-4)))
          CFI (cfiCond134) ?BRET_EXT load(1, XDATA, add(CFA_XSP16, literal(-3)))
          CFI (cfiCond134) DPL0 load(1, XDATA, add(CFA_XSP16, literal(-2)))
          CFI (cfiCond134) DPH0 load(1, XDATA, add(CFA_XSP16, literal(-1)))
          CFI (cfiCond134) CFA_SP SP+0
          CFI (cfiCond134) CFA_XSP16 add(XSP16, 23)
          CFI Block cfiCond135 Using cfiCommon0
          CFI (cfiCond135) Function MT_AfIncomingMsg
          CFI (cfiCond135) Conditional ??CrossCallReturnLabel_118, ??CrossCallReturnLabel_121, ??CrossCallReturnLabel_1
          CFI (cfiCond135) R6 load(1, XDATA, add(CFA_XSP16, literal(-23)))
          CFI (cfiCond135) VB load(1, XDATA, add(CFA_XSP16, literal(-22)))
          CFI (cfiCond135) V0 load(1, XDATA, add(CFA_XSP16, literal(-21)))
          CFI (cfiCond135) V1 load(1, XDATA, add(CFA_XSP16, literal(-20)))
          CFI (cfiCond135) V2 load(1, XDATA, add(CFA_XSP16, literal(-19)))
          CFI (cfiCond135) V3 load(1, XDATA, add(CFA_XSP16, literal(-18)))
          CFI (cfiCond135) V4 load(1, XDATA, add(CFA_XSP16, literal(-17)))
          CFI (cfiCond135) V5 load(1, XDATA, add(CFA_XSP16, literal(-16)))
          CFI (cfiCond135) V6 load(1, XDATA, add(CFA_XSP16, literal(-15)))
          CFI (cfiCond135) V7 load(1, XDATA, add(CFA_XSP16, literal(-14)))
          CFI (cfiCond135) V8 load(1, XDATA, add(CFA_XSP16, literal(-13)))
          CFI (cfiCond135) V9 load(1, XDATA, add(CFA_XSP16, literal(-12)))
          CFI (cfiCond135) V10 load(1, XDATA, add(CFA_XSP16, literal(-11)))
          CFI (cfiCond135) V11 load(1, XDATA, add(CFA_XSP16, literal(-10)))
          CFI (cfiCond135) V12 load(1, XDATA, add(CFA_XSP16, literal(-9)))
          CFI (cfiCond135) V13 load(1, XDATA, add(CFA_XSP16, literal(-8)))
          CFI (cfiCond135) V14 load(1, XDATA, add(CFA_XSP16, literal(-7)))
          CFI (cfiCond135) R7 load(1, XDATA, add(CFA_XSP16, literal(-6)))
          CFI (cfiCond135) ?RET_LOW load(1, XDATA, add(CFA_XSP16, literal(-5)))
          CFI (cfiCond135) ?RET_HIGH load(1, XDATA, add(CFA_XSP16, literal(-4)))
          CFI (cfiCond135) ?BRET_EXT load(1, XDATA, add(CFA_XSP16, literal(-3)))
          CFI (cfiCond135) DPL0 load(1, XDATA, add(CFA_XSP16, literal(-2)))
          CFI (cfiCond135) DPH0 load(1, XDATA, add(CFA_XSP16, literal(-1)))
          CFI (cfiCond135) CFA_SP SP+0
          CFI (cfiCond135) CFA_XSP16 add(XSP16, 23)
          CFI Block cfiCond136 Using cfiCommon0
          CFI (cfiCond136) Function MT_AfIncomingMsg
          CFI (cfiCond136) Conditional ??CrossCallReturnLabel_118, ??CrossCallReturnLabel_123, ??CrossCallReturnLabel_110
          CFI (cfiCond136) R6 load(1, XDATA, add(CFA_XSP16, literal(-23)))
          CFI (cfiCond136) VB load(1, XDATA, add(CFA_XSP16, literal(-22)))
          CFI (cfiCond136) V0 load(1, XDATA, add(CFA_XSP16, literal(-21)))
          CFI (cfiCond136) V1 load(1, XDATA, add(CFA_XSP16, literal(-20)))
          CFI (cfiCond136) V2 load(1, XDATA, add(CFA_XSP16, literal(-19)))
          CFI (cfiCond136) V3 load(1, XDATA, add(CFA_XSP16, literal(-18)))
          CFI (cfiCond136) V4 load(1, XDATA, add(CFA_XSP16, literal(-17)))
          CFI (cfiCond136) V5 load(1, XDATA, add(CFA_XSP16, literal(-16)))
          CFI (cfiCond136) V6 load(1, XDATA, add(CFA_XSP16, literal(-15)))
          CFI (cfiCond136) V7 load(1, XDATA, add(CFA_XSP16, literal(-14)))
          CFI (cfiCond136) V8 load(1, XDATA, add(CFA_XSP16, literal(-13)))
          CFI (cfiCond136) V9 load(1, XDATA, add(CFA_XSP16, literal(-12)))
          CFI (cfiCond136) V10 load(1, XDATA, add(CFA_XSP16, literal(-11)))
          CFI (cfiCond136) V11 load(1, XDATA, add(CFA_XSP16, literal(-10)))
          CFI (cfiCond136) V12 load(1, XDATA, add(CFA_XSP16, literal(-9)))
          CFI (cfiCond136) V13 load(1, XDATA, add(CFA_XSP16, literal(-8)))
          CFI (cfiCond136) V14 load(1, XDATA, add(CFA_XSP16, literal(-7)))
          CFI (cfiCond136) R7 load(1, XDATA, add(CFA_XSP16, literal(-6)))
          CFI (cfiCond136) ?RET_LOW load(1, XDATA, add(CFA_XSP16, literal(-5)))
          CFI (cfiCond136) ?RET_HIGH load(1, XDATA, add(CFA_XSP16, literal(-4)))
          CFI (cfiCond136) ?BRET_EXT load(1, XDATA, add(CFA_XSP16, literal(-3)))
          CFI (cfiCond136) DPL0 load(1, XDATA, add(CFA_XSP16, literal(-2)))
          CFI (cfiCond136) DPH0 load(1, XDATA, add(CFA_XSP16, literal(-1)))
          CFI (cfiCond136) CFA_SP SP+0
          CFI (cfiCond136) CFA_XSP16 add(XSP16, 23)
          CFI Block cfiCond137 Using cfiCommon0
          CFI (cfiCond137) Function MT_AfIncomingMsg
          CFI (cfiCond137) Conditional ??CrossCallReturnLabel_118, ??CrossCallReturnLabel_123, ??CrossCallReturnLabel_111
          CFI (cfiCond137) R6 load(1, XDATA, add(CFA_XSP16, literal(-23)))
          CFI (cfiCond137) VB load(1, XDATA, add(CFA_XSP16, literal(-22)))
          CFI (cfiCond137) V0 load(1, XDATA, add(CFA_XSP16, literal(-21)))
          CFI (cfiCond137) V1 load(1, XDATA, add(CFA_XSP16, literal(-20)))
          CFI (cfiCond137) V2 load(1, XDATA, add(CFA_XSP16, literal(-19)))
          CFI (cfiCond137) V3 load(1, XDATA, add(CFA_XSP16, literal(-18)))
          CFI (cfiCond137) V4 load(1, XDATA, add(CFA_XSP16, literal(-17)))
          CFI (cfiCond137) V5 load(1, XDATA, add(CFA_XSP16, literal(-16)))
          CFI (cfiCond137) V6 load(1, XDATA, add(CFA_XSP16, literal(-15)))
          CFI (cfiCond137) V7 load(1, XDATA, add(CFA_XSP16, literal(-14)))
          CFI (cfiCond137) V8 load(1, XDATA, add(CFA_XSP16, literal(-13)))
          CFI (cfiCond137) V9 load(1, XDATA, add(CFA_XSP16, literal(-12)))
          CFI (cfiCond137) V10 load(1, XDATA, add(CFA_XSP16, literal(-11)))
          CFI (cfiCond137) V11 load(1, XDATA, add(CFA_XSP16, literal(-10)))
          CFI (cfiCond137) V12 load(1, XDATA, add(CFA_XSP16, literal(-9)))
          CFI (cfiCond137) V13 load(1, XDATA, add(CFA_XSP16, literal(-8)))
          CFI (cfiCond137) V14 load(1, XDATA, add(CFA_XSP16, literal(-7)))
          CFI (cfiCond137) R7 load(1, XDATA, add(CFA_XSP16, literal(-6)))
          CFI (cfiCond137) ?RET_LOW load(1, XDATA, add(CFA_XSP16, literal(-5)))
          CFI (cfiCond137) ?RET_HIGH load(1, XDATA, add(CFA_XSP16, literal(-4)))
          CFI (cfiCond137) ?BRET_EXT load(1, XDATA, add(CFA_XSP16, literal(-3)))
          CFI (cfiCond137) DPL0 load(1, XDATA, add(CFA_XSP16, literal(-2)))
          CFI (cfiCond137) DPH0 load(1, XDATA, add(CFA_XSP16, literal(-1)))
          CFI (cfiCond137) CFA_SP SP+0
          CFI (cfiCond137) CFA_XSP16 add(XSP16, 23)
          CFI Block cfiCond138 Using cfiCommon0
          CFI (cfiCond138) Function MT_AfIncomingMsg
          CFI (cfiCond138) Conditional ??CrossCallReturnLabel_118, ??CrossCallReturnLabel_123, ??CrossCallReturnLabel_112
          CFI (cfiCond138) R6 load(1, XDATA, add(CFA_XSP16, literal(-23)))
          CFI (cfiCond138) VB load(1, XDATA, add(CFA_XSP16, literal(-22)))
          CFI (cfiCond138) V0 load(1, XDATA, add(CFA_XSP16, literal(-21)))
          CFI (cfiCond138) V1 load(1, XDATA, add(CFA_XSP16, literal(-20)))
          CFI (cfiCond138) V2 load(1, XDATA, add(CFA_XSP16, literal(-19)))
          CFI (cfiCond138) V3 load(1, XDATA, add(CFA_XSP16, literal(-18)))
          CFI (cfiCond138) V4 load(1, XDATA, add(CFA_XSP16, literal(-17)))
          CFI (cfiCond138) V5 load(1, XDATA, add(CFA_XSP16, literal(-16)))
          CFI (cfiCond138) V6 load(1, XDATA, add(CFA_XSP16, literal(-15)))
          CFI (cfiCond138) V7 load(1, XDATA, add(CFA_XSP16, literal(-14)))
          CFI (cfiCond138) V8 load(1, XDATA, add(CFA_XSP16, literal(-13)))
          CFI (cfiCond138) V9 load(1, XDATA, add(CFA_XSP16, literal(-12)))
          CFI (cfiCond138) V10 load(1, XDATA, add(CFA_XSP16, literal(-11)))
          CFI (cfiCond138) V11 load(1, XDATA, add(CFA_XSP16, literal(-10)))
          CFI (cfiCond138) V12 load(1, XDATA, add(CFA_XSP16, literal(-9)))
          CFI (cfiCond138) V13 load(1, XDATA, add(CFA_XSP16, literal(-8)))
          CFI (cfiCond138) V14 load(1, XDATA, add(CFA_XSP16, literal(-7)))
          CFI (cfiCond138) R7 load(1, XDATA, add(CFA_XSP16, literal(-6)))
          CFI (cfiCond138) ?RET_LOW load(1, XDATA, add(CFA_XSP16, literal(-5)))
          CFI (cfiCond138) ?RET_HIGH load(1, XDATA, add(CFA_XSP16, literal(-4)))
          CFI (cfiCond138) ?BRET_EXT load(1, XDATA, add(CFA_XSP16, literal(-3)))
          CFI (cfiCond138) DPL0 load(1, XDATA, add(CFA_XSP16, literal(-2)))
          CFI (cfiCond138) DPH0 load(1, XDATA, add(CFA_XSP16, literal(-1)))
          CFI (cfiCond138) CFA_SP SP+0
          CFI (cfiCond138) CFA_XSP16 add(XSP16, 23)
          CFI Block cfiCond139 Using cfiCommon0
          CFI (cfiCond139) Function MT_AfIncomingMsg
          CFI (cfiCond139) Conditional ??CrossCallReturnLabel_118, ??CrossCallReturnLabel_123, ??CrossCallReturnLabel_113
          CFI (cfiCond139) R6 load(1, XDATA, add(CFA_XSP16, literal(-23)))
          CFI (cfiCond139) VB load(1, XDATA, add(CFA_XSP16, literal(-22)))
          CFI (cfiCond139) V0 load(1, XDATA, add(CFA_XSP16, literal(-21)))
          CFI (cfiCond139) V1 load(1, XDATA, add(CFA_XSP16, literal(-20)))
          CFI (cfiCond139) V2 load(1, XDATA, add(CFA_XSP16, literal(-19)))
          CFI (cfiCond139) V3 load(1, XDATA, add(CFA_XSP16, literal(-18)))
          CFI (cfiCond139) V4 load(1, XDATA, add(CFA_XSP16, literal(-17)))
          CFI (cfiCond139) V5 load(1, XDATA, add(CFA_XSP16, literal(-16)))
          CFI (cfiCond139) V6 load(1, XDATA, add(CFA_XSP16, literal(-15)))
          CFI (cfiCond139) V7 load(1, XDATA, add(CFA_XSP16, literal(-14)))
          CFI (cfiCond139) V8 load(1, XDATA, add(CFA_XSP16, literal(-13)))
          CFI (cfiCond139) V9 load(1, XDATA, add(CFA_XSP16, literal(-12)))
          CFI (cfiCond139) V10 load(1, XDATA, add(CFA_XSP16, literal(-11)))
          CFI (cfiCond139) V11 load(1, XDATA, add(CFA_XSP16, literal(-10)))
          CFI (cfiCond139) V12 load(1, XDATA, add(CFA_XSP16, literal(-9)))
          CFI (cfiCond139) V13 load(1, XDATA, add(CFA_XSP16, literal(-8)))
          CFI (cfiCond139) V14 load(1, XDATA, add(CFA_XSP16, literal(-7)))
          CFI (cfiCond139) R7 load(1, XDATA, add(CFA_XSP16, literal(-6)))
          CFI (cfiCond139) ?RET_LOW load(1, XDATA, add(CFA_XSP16, literal(-5)))
          CFI (cfiCond139) ?RET_HIGH load(1, XDATA, add(CFA_XSP16, literal(-4)))
          CFI (cfiCond139) ?BRET_EXT load(1, XDATA, add(CFA_XSP16, literal(-3)))
          CFI (cfiCond139) DPL0 load(1, XDATA, add(CFA_XSP16, literal(-2)))
          CFI (cfiCond139) DPH0 load(1, XDATA, add(CFA_XSP16, literal(-1)))
          CFI (cfiCond139) CFA_SP SP+0
          CFI (cfiCond139) CFA_XSP16 add(XSP16, 23)
          CFI Block cfiCond140 Using cfiCommon0
          CFI (cfiCond140) Function MT_AfIncomingMsg
          CFI (cfiCond140) Conditional ??CrossCallReturnLabel_118, ??CrossCallReturnLabel_123, ??CrossCallReturnLabel_114
          CFI (cfiCond140) R6 load(1, XDATA, add(CFA_XSP16, literal(-23)))
          CFI (cfiCond140) VB load(1, XDATA, add(CFA_XSP16, literal(-22)))
          CFI (cfiCond140) V0 load(1, XDATA, add(CFA_XSP16, literal(-21)))
          CFI (cfiCond140) V1 load(1, XDATA, add(CFA_XSP16, literal(-20)))
          CFI (cfiCond140) V2 load(1, XDATA, add(CFA_XSP16, literal(-19)))
          CFI (cfiCond140) V3 load(1, XDATA, add(CFA_XSP16, literal(-18)))
          CFI (cfiCond140) V4 load(1, XDATA, add(CFA_XSP16, literal(-17)))
          CFI (cfiCond140) V5 load(1, XDATA, add(CFA_XSP16, literal(-16)))
          CFI (cfiCond140) V6 load(1, XDATA, add(CFA_XSP16, literal(-15)))
          CFI (cfiCond140) V7 load(1, XDATA, add(CFA_XSP16, literal(-14)))
          CFI (cfiCond140) V8 load(1, XDATA, add(CFA_XSP16, literal(-13)))
          CFI (cfiCond140) V9 load(1, XDATA, add(CFA_XSP16, literal(-12)))
          CFI (cfiCond140) V10 load(1, XDATA, add(CFA_XSP16, literal(-11)))
          CFI (cfiCond140) V11 load(1, XDATA, add(CFA_XSP16, literal(-10)))
          CFI (cfiCond140) V12 load(1, XDATA, add(CFA_XSP16, literal(-9)))
          CFI (cfiCond140) V13 load(1, XDATA, add(CFA_XSP16, literal(-8)))
          CFI (cfiCond140) V14 load(1, XDATA, add(CFA_XSP16, literal(-7)))
          CFI (cfiCond140) R7 load(1, XDATA, add(CFA_XSP16, literal(-6)))
          CFI (cfiCond140) ?RET_LOW load(1, XDATA, add(CFA_XSP16, literal(-5)))
          CFI (cfiCond140) ?RET_HIGH load(1, XDATA, add(CFA_XSP16, literal(-4)))
          CFI (cfiCond140) ?BRET_EXT load(1, XDATA, add(CFA_XSP16, literal(-3)))
          CFI (cfiCond140) DPL0 load(1, XDATA, add(CFA_XSP16, literal(-2)))
          CFI (cfiCond140) DPH0 load(1, XDATA, add(CFA_XSP16, literal(-1)))
          CFI (cfiCond140) CFA_SP SP+0
          CFI (cfiCond140) CFA_XSP16 add(XSP16, 23)
          CFI Block cfiCond141 Using cfiCommon0
          CFI (cfiCond141) Function MT_AfIncomingMsg
          CFI (cfiCond141) Conditional ??CrossCallReturnLabel_118, ??CrossCallReturnLabel_123, ??CrossCallReturnLabel_115
          CFI (cfiCond141) R6 load(1, XDATA, add(CFA_XSP16, literal(-23)))
          CFI (cfiCond141) VB load(1, XDATA, add(CFA_XSP16, literal(-22)))
          CFI (cfiCond141) V0 load(1, XDATA, add(CFA_XSP16, literal(-21)))
          CFI (cfiCond141) V1 load(1, XDATA, add(CFA_XSP16, literal(-20)))
          CFI (cfiCond141) V2 load(1, XDATA, add(CFA_XSP16, literal(-19)))
          CFI (cfiCond141) V3 load(1, XDATA, add(CFA_XSP16, literal(-18)))
          CFI (cfiCond141) V4 load(1, XDATA, add(CFA_XSP16, literal(-17)))
          CFI (cfiCond141) V5 load(1, XDATA, add(CFA_XSP16, literal(-16)))
          CFI (cfiCond141) V6 load(1, XDATA, add(CFA_XSP16, literal(-15)))
          CFI (cfiCond141) V7 load(1, XDATA, add(CFA_XSP16, literal(-14)))
          CFI (cfiCond141) V8 load(1, XDATA, add(CFA_XSP16, literal(-13)))
          CFI (cfiCond141) V9 load(1, XDATA, add(CFA_XSP16, literal(-12)))
          CFI (cfiCond141) V10 load(1, XDATA, add(CFA_XSP16, literal(-11)))
          CFI (cfiCond141) V11 load(1, XDATA, add(CFA_XSP16, literal(-10)))
          CFI (cfiCond141) V12 load(1, XDATA, add(CFA_XSP16, literal(-9)))
          CFI (cfiCond141) V13 load(1, XDATA, add(CFA_XSP16, literal(-8)))
          CFI (cfiCond141) V14 load(1, XDATA, add(CFA_XSP16, literal(-7)))
          CFI (cfiCond141) R7 load(1, XDATA, add(CFA_XSP16, literal(-6)))
          CFI (cfiCond141) ?RET_LOW load(1, XDATA, add(CFA_XSP16, literal(-5)))
          CFI (cfiCond141) ?RET_HIGH load(1, XDATA, add(CFA_XSP16, literal(-4)))
          CFI (cfiCond141) ?BRET_EXT load(1, XDATA, add(CFA_XSP16, literal(-3)))
          CFI (cfiCond141) DPL0 load(1, XDATA, add(CFA_XSP16, literal(-2)))
          CFI (cfiCond141) DPH0 load(1, XDATA, add(CFA_XSP16, literal(-1)))
          CFI (cfiCond141) CFA_SP SP+0
          CFI (cfiCond141) CFA_XSP16 add(XSP16, 23)
          CFI Block cfiPicker142 Using cfiCommon1
          CFI (cfiPicker142) NoFunction
          CFI (cfiPicker142) Picker
        MOVX    A,@DPTR
        MOV     DPL,?V0 + 6
        MOV     DPH,?V0 + 7
        RET
          CFI EndBlock cfiCond127
          CFI EndBlock cfiCond128
          CFI EndBlock cfiCond129
          CFI EndBlock cfiCond130
          CFI EndBlock cfiCond131
          CFI EndBlock cfiCond132
          CFI EndBlock cfiCond133
          CFI EndBlock cfiCond134
          CFI EndBlock cfiCond135
          CFI EndBlock cfiCond136
          CFI EndBlock cfiCond137
          CFI EndBlock cfiCond138
          CFI EndBlock cfiCond139
          CFI EndBlock cfiCond140
          CFI EndBlock cfiCond141
          CFI EndBlock cfiPicker142

        RSEG BANKED_CODE:CODE:NOROOT(0)
?Subroutine18:
          CFI Block cfiCond143 Using cfiCommon0
          CFI Function MT_AfIncomingMsg
          CFI Conditional ??CrossCallReturnLabel_26
          CFI R6 load(1, XDATA, add(CFA_XSP16, literal(-23)))
          CFI VB load(1, XDATA, add(CFA_XSP16, literal(-22)))
          CFI V0 load(1, XDATA, add(CFA_XSP16, literal(-21)))
          CFI V1 load(1, XDATA, add(CFA_XSP16, literal(-20)))
          CFI V2 load(1, XDATA, add(CFA_XSP16, literal(-19)))
          CFI V3 load(1, XDATA, add(CFA_XSP16, literal(-18)))
          CFI V4 load(1, XDATA, add(CFA_XSP16, literal(-17)))
          CFI V5 load(1, XDATA, add(CFA_XSP16, literal(-16)))
          CFI V6 load(1, XDATA, add(CFA_XSP16, literal(-15)))
          CFI V7 load(1, XDATA, add(CFA_XSP16, literal(-14)))
          CFI V8 load(1, XDATA, add(CFA_XSP16, literal(-13)))
          CFI V9 load(1, XDATA, add(CFA_XSP16, literal(-12)))
          CFI V10 load(1, XDATA, add(CFA_XSP16, literal(-11)))
          CFI V11 load(1, XDATA, add(CFA_XSP16, literal(-10)))
          CFI V12 load(1, XDATA, add(CFA_XSP16, literal(-9)))
          CFI V13 load(1, XDATA, add(CFA_XSP16, literal(-8)))
          CFI V14 load(1, XDATA, add(CFA_XSP16, literal(-7)))
          CFI R7 load(1, XDATA, add(CFA_XSP16, literal(-6)))
          CFI ?RET_LOW load(1, XDATA, add(CFA_XSP16, literal(-5)))
          CFI ?RET_HIGH load(1, XDATA, add(CFA_XSP16, literal(-4)))
          CFI ?BRET_EXT load(1, XDATA, add(CFA_XSP16, literal(-3)))
          CFI DPL0 load(1, XDATA, add(CFA_XSP16, literal(-2)))
          CFI DPH0 load(1, XDATA, add(CFA_XSP16, literal(-1)))
          CFI CFA_SP SP+0
          CFI CFA_XSP16 add(XSP16, 23)
          CFI Block cfiCond144 Using cfiCommon0
          CFI (cfiCond144) Function MT_AfIncomingMsg
          CFI (cfiCond144) Conditional ??CrossCallReturnLabel_27
          CFI (cfiCond144) R6 load(1, XDATA, add(CFA_XSP16, literal(-23)))
          CFI (cfiCond144) VB load(1, XDATA, add(CFA_XSP16, literal(-22)))
          CFI (cfiCond144) V0 load(1, XDATA, add(CFA_XSP16, literal(-21)))
          CFI (cfiCond144) V1 load(1, XDATA, add(CFA_XSP16, literal(-20)))
          CFI (cfiCond144) V2 load(1, XDATA, add(CFA_XSP16, literal(-19)))
          CFI (cfiCond144) V3 load(1, XDATA, add(CFA_XSP16, literal(-18)))
          CFI (cfiCond144) V4 load(1, XDATA, add(CFA_XSP16, literal(-17)))
          CFI (cfiCond144) V5 load(1, XDATA, add(CFA_XSP16, literal(-16)))
          CFI (cfiCond144) V6 load(1, XDATA, add(CFA_XSP16, literal(-15)))
          CFI (cfiCond144) V7 load(1, XDATA, add(CFA_XSP16, literal(-14)))
          CFI (cfiCond144) V8 load(1, XDATA, add(CFA_XSP16, literal(-13)))
          CFI (cfiCond144) V9 load(1, XDATA, add(CFA_XSP16, literal(-12)))
          CFI (cfiCond144) V10 load(1, XDATA, add(CFA_XSP16, literal(-11)))
          CFI (cfiCond144) V11 load(1, XDATA, add(CFA_XSP16, literal(-10)))
          CFI (cfiCond144) V12 load(1, XDATA, add(CFA_XSP16, literal(-9)))
          CFI (cfiCond144) V13 load(1, XDATA, add(CFA_XSP16, literal(-8)))
          CFI (cfiCond144) V14 load(1, XDATA, add(CFA_XSP16, literal(-7)))
          CFI (cfiCond144) R7 load(1, XDATA, add(CFA_XSP16, literal(-6)))
          CFI (cfiCond144) ?RET_LOW load(1, XDATA, add(CFA_XSP16, literal(-5)))
          CFI (cfiCond144) ?RET_HIGH load(1, XDATA, add(CFA_XSP16, literal(-4)))
          CFI (cfiCond144) ?BRET_EXT load(1, XDATA, add(CFA_XSP16, literal(-3)))
          CFI (cfiCond144) DPL0 load(1, XDATA, add(CFA_XSP16, literal(-2)))
          CFI (cfiCond144) DPH0 load(1, XDATA, add(CFA_XSP16, literal(-1)))
          CFI (cfiCond144) CFA_SP SP+0
          CFI (cfiCond144) CFA_XSP16 add(XSP16, 23)
          CFI Block cfiPicker145 Using cfiCommon1
          CFI (cfiPicker145) NoFunction
          CFI (cfiPicker145) Picker
        MOV     DPL,A
        MOV     A,?V0 + 3
        LCALL   ??Subroutine55_0 & 0xFFFF
??CrossCallReturnLabel_132:
        LCALL   ?Subroutine44 & 0xFFFF
??CrossCallReturnLabel_116:
        MOVX    @DPTR,A
        INC     DPTR
        RET
          CFI EndBlock cfiCond143
          CFI EndBlock cfiCond144
          CFI EndBlock cfiPicker145

        RSEG BANKED_CODE:CODE:NOROOT(0)
?Subroutine16:
          CFI Block cfiCond146 Using cfiCommon0
          CFI Function MT_AfExec
          CFI Conditional ??CrossCallReturnLabel_108
          CFI R6 load(1, XDATA, add(CFA_XSP16, literal(-9)))
          CFI VB load(1, XDATA, add(CFA_XSP16, literal(-8)))
          CFI V0 load(1, XDATA, add(CFA_XSP16, literal(-7)))
          CFI R7 load(1, XDATA, add(CFA_XSP16, literal(-6)))
          CFI ?RET_LOW load(1, XDATA, add(CFA_XSP16, literal(-5)))
          CFI ?RET_HIGH load(1, XDATA, add(CFA_XSP16, literal(-4)))
          CFI ?BRET_EXT load(1, XDATA, add(CFA_XSP16, literal(-3)))
          CFI DPL0 load(1, XDATA, add(CFA_XSP16, literal(-2)))
          CFI DPH0 load(1, XDATA, add(CFA_XSP16, literal(-1)))
          CFI CFA_SP SP+0
          CFI CFA_XSP16 add(XSP16, 9)
          CFI Block cfiCond147 Using cfiCommon0
          CFI (cfiCond147) Function MT_AfDataStore
          CFI (cfiCond147) Conditional ??CrossCallReturnLabel_109
          CFI (cfiCond147) R6 load(1, XDATA, add(CFA_XSP16, literal(-11)))
          CFI (cfiCond147) VB load(1, XDATA, add(CFA_XSP16, literal(-10)))
          CFI (cfiCond147) V0 load(1, XDATA, add(CFA_XSP16, literal(-9)))
          CFI (cfiCond147) V1 load(1, XDATA, add(CFA_XSP16, literal(-8)))
          CFI (cfiCond147) V2 load(1, XDATA, add(CFA_XSP16, literal(-7)))
          CFI (cfiCond147) R7 load(1, XDATA, add(CFA_XSP16, literal(-6)))
          CFI (cfiCond147) ?RET_LOW load(1, XDATA, add(CFA_XSP16, literal(-5)))
          CFI (cfiCond147) ?RET_HIGH load(1, XDATA, add(CFA_XSP16, literal(-4)))
          CFI (cfiCond147) ?BRET_EXT load(1, XDATA, add(CFA_XSP16, literal(-3)))
          CFI (cfiCond147) DPL0 load(1, XDATA, add(CFA_XSP16, literal(-2)))
          CFI (cfiCond147) DPH0 load(1, XDATA, add(CFA_XSP16, literal(-1)))
          CFI (cfiCond147) CFA_SP SP+0
          CFI (cfiCond147) CFA_XSP16 add(XSP16, 12)
          CFI Block cfiPicker148 Using cfiCommon1
          CFI (cfiPicker148) NoFunction
          CFI (cfiPicker148) Picker
        MOV     DPTR,#pMtAfDataReq
          CFI EndBlock cfiCond146
          CFI EndBlock cfiCond147
          CFI EndBlock cfiPicker148
        REQUIRE ??Subroutine51_0
        ; // Fall through to label ??Subroutine51_0

        RSEG BANKED_CODE:CODE:NOROOT(0)
??Subroutine51_0:
          CFI Block cfiCond149 Using cfiCommon0
          CFI Function MT_AfExec
          CFI Conditional ??CrossCallReturnLabel_106
          CFI R6 load(1, XDATA, add(CFA_XSP16, literal(-9)))
          CFI VB load(1, XDATA, add(CFA_XSP16, literal(-8)))
          CFI V0 load(1, XDATA, add(CFA_XSP16, literal(-7)))
          CFI R7 load(1, XDATA, add(CFA_XSP16, literal(-6)))
          CFI ?RET_LOW load(1, XDATA, add(CFA_XSP16, literal(-5)))
          CFI ?RET_HIGH load(1, XDATA, add(CFA_XSP16, literal(-4)))
          CFI ?BRET_EXT load(1, XDATA, add(CFA_XSP16, literal(-3)))
          CFI DPL0 load(1, XDATA, add(CFA_XSP16, literal(-2)))
          CFI DPH0 load(1, XDATA, add(CFA_XSP16, literal(-1)))
          CFI CFA_SP SP+0
          CFI CFA_XSP16 add(XSP16, 9)
          CFI Block cfiCond150 Using cfiCommon0
          CFI (cfiCond150) Function MT_AfIncomingMsg
          CFI (cfiCond150) Conditional ??CrossCallReturnLabel_107
          CFI (cfiCond150) R6 load(1, XDATA, add(CFA_XSP16, literal(-23)))
          CFI (cfiCond150) VB load(1, XDATA, add(CFA_XSP16, literal(-22)))
          CFI (cfiCond150) V0 load(1, XDATA, add(CFA_XSP16, literal(-21)))
          CFI (cfiCond150) V1 load(1, XDATA, add(CFA_XSP16, literal(-20)))
          CFI (cfiCond150) V2 load(1, XDATA, add(CFA_XSP16, literal(-19)))
          CFI (cfiCond150) V3 load(1, XDATA, add(CFA_XSP16, literal(-18)))
          CFI (cfiCond150) V4 load(1, XDATA, add(CFA_XSP16, literal(-17)))
          CFI (cfiCond150) V5 load(1, XDATA, add(CFA_XSP16, literal(-16)))
          CFI (cfiCond150) V6 load(1, XDATA, add(CFA_XSP16, literal(-15)))
          CFI (cfiCond150) V7 load(1, XDATA, add(CFA_XSP16, literal(-14)))
          CFI (cfiCond150) V8 load(1, XDATA, add(CFA_XSP16, literal(-13)))
          CFI (cfiCond150) V9 load(1, XDATA, add(CFA_XSP16, literal(-12)))
          CFI (cfiCond150) V10 load(1, XDATA, add(CFA_XSP16, literal(-11)))
          CFI (cfiCond150) V11 load(1, XDATA, add(CFA_XSP16, literal(-10)))
          CFI (cfiCond150) V12 load(1, XDATA, add(CFA_XSP16, literal(-9)))
          CFI (cfiCond150) V13 load(1, XDATA, add(CFA_XSP16, literal(-8)))
          CFI (cfiCond150) V14 load(1, XDATA, add(CFA_XSP16, literal(-7)))
          CFI (cfiCond150) R7 load(1, XDATA, add(CFA_XSP16, literal(-6)))
          CFI (cfiCond150) ?RET_LOW load(1, XDATA, add(CFA_XSP16, literal(-5)))
          CFI (cfiCond150) ?RET_HIGH load(1, XDATA, add(CFA_XSP16, literal(-4)))
          CFI (cfiCond150) ?BRET_EXT load(1, XDATA, add(CFA_XSP16, literal(-3)))
          CFI (cfiCond150) DPL0 load(1, XDATA, add(CFA_XSP16, literal(-2)))
          CFI (cfiCond150) DPH0 load(1, XDATA, add(CFA_XSP16, literal(-1)))
          CFI (cfiCond150) CFA_SP SP+0
          CFI (cfiCond150) CFA_XSP16 add(XSP16, 26)
          CFI Block cfiCond151 Using cfiCommon0
          CFI (cfiCond151) Function MT_AfExec
          CFI (cfiCond151) Conditional ??CrossCallReturnLabel_108
          CFI (cfiCond151) R6 load(1, XDATA, add(CFA_XSP16, literal(-9)))
          CFI (cfiCond151) VB load(1, XDATA, add(CFA_XSP16, literal(-8)))
          CFI (cfiCond151) V0 load(1, XDATA, add(CFA_XSP16, literal(-7)))
          CFI (cfiCond151) R7 load(1, XDATA, add(CFA_XSP16, literal(-6)))
          CFI (cfiCond151) ?RET_LOW load(1, XDATA, add(CFA_XSP16, literal(-5)))
          CFI (cfiCond151) ?RET_HIGH load(1, XDATA, add(CFA_XSP16, literal(-4)))
          CFI (cfiCond151) ?BRET_EXT load(1, XDATA, add(CFA_XSP16, literal(-3)))
          CFI (cfiCond151) DPL0 load(1, XDATA, add(CFA_XSP16, literal(-2)))
          CFI (cfiCond151) DPH0 load(1, XDATA, add(CFA_XSP16, literal(-1)))
          CFI (cfiCond151) CFA_SP SP+0
          CFI (cfiCond151) CFA_XSP16 add(XSP16, 9)
          CFI Block cfiCond152 Using cfiCommon0
          CFI (cfiCond152) Function MT_AfDataStore
          CFI (cfiCond152) Conditional ??CrossCallReturnLabel_109
          CFI (cfiCond152) R6 load(1, XDATA, add(CFA_XSP16, literal(-11)))
          CFI (cfiCond152) VB load(1, XDATA, add(CFA_XSP16, literal(-10)))
          CFI (cfiCond152) V0 load(1, XDATA, add(CFA_XSP16, literal(-9)))
          CFI (cfiCond152) V1 load(1, XDATA, add(CFA_XSP16, literal(-8)))
          CFI (cfiCond152) V2 load(1, XDATA, add(CFA_XSP16, literal(-7)))
          CFI (cfiCond152) R7 load(1, XDATA, add(CFA_XSP16, literal(-6)))
          CFI (cfiCond152) ?RET_LOW load(1, XDATA, add(CFA_XSP16, literal(-5)))
          CFI (cfiCond152) ?RET_HIGH load(1, XDATA, add(CFA_XSP16, literal(-4)))
          CFI (cfiCond152) ?BRET_EXT load(1, XDATA, add(CFA_XSP16, literal(-3)))
          CFI (cfiCond152) DPL0 load(1, XDATA, add(CFA_XSP16, literal(-2)))
          CFI (cfiCond152) DPH0 load(1, XDATA, add(CFA_XSP16, literal(-1)))
          CFI (cfiCond152) CFA_SP SP+0
          CFI (cfiCond152) CFA_XSP16 add(XSP16, 12)
          CFI Block cfiPicker153 Using cfiCommon1
          CFI (cfiPicker153) NoFunction
          CFI (cfiPicker153) Picker
        MOVX    A,@DPTR
        MOV     R2,A
        INC     DPTR
        MOVX    A,@DPTR
        MOV     R3,A
        RET
          CFI EndBlock cfiCond149
          CFI EndBlock cfiCond150
          CFI EndBlock cfiCond151
          CFI EndBlock cfiCond152
          CFI EndBlock cfiPicker153

        RSEG BANKED_CODE:CODE:NOROOT(0)
?Subroutine6:
          CFI Block cfiCond154 Using cfiCommon0
          CFI Function MT_AfIncomingMsg
          CFI Conditional ??CrossCallReturnLabel_2
          CFI R6 load(1, XDATA, add(CFA_XSP16, literal(-23)))
          CFI VB load(1, XDATA, add(CFA_XSP16, literal(-22)))
          CFI V0 load(1, XDATA, add(CFA_XSP16, literal(-21)))
          CFI V1 load(1, XDATA, add(CFA_XSP16, literal(-20)))
          CFI V2 load(1, XDATA, add(CFA_XSP16, literal(-19)))
          CFI V3 load(1, XDATA, add(CFA_XSP16, literal(-18)))
          CFI V4 load(1, XDATA, add(CFA_XSP16, literal(-17)))
          CFI V5 load(1, XDATA, add(CFA_XSP16, literal(-16)))
          CFI V6 load(1, XDATA, add(CFA_XSP16, literal(-15)))
          CFI V7 load(1, XDATA, add(CFA_XSP16, literal(-14)))
          CFI V8 load(1, XDATA, add(CFA_XSP16, literal(-13)))
          CFI V9 load(1, XDATA, add(CFA_XSP16, literal(-12)))
          CFI V10 load(1, XDATA, add(CFA_XSP16, literal(-11)))
          CFI V11 load(1, XDATA, add(CFA_XSP16, literal(-10)))
          CFI V12 load(1, XDATA, add(CFA_XSP16, literal(-9)))
          CFI V13 load(1, XDATA, add(CFA_XSP16, literal(-8)))
          CFI V14 load(1, XDATA, add(CFA_XSP16, literal(-7)))
          CFI R7 load(1, XDATA, add(CFA_XSP16, literal(-6)))
          CFI ?RET_LOW load(1, XDATA, add(CFA_XSP16, literal(-5)))
          CFI ?RET_HIGH load(1, XDATA, add(CFA_XSP16, literal(-4)))
          CFI ?BRET_EXT load(1, XDATA, add(CFA_XSP16, literal(-3)))
          CFI DPL0 load(1, XDATA, add(CFA_XSP16, literal(-2)))
          CFI DPH0 load(1, XDATA, add(CFA_XSP16, literal(-1)))
          CFI CFA_SP SP+0
          CFI CFA_XSP16 add(XSP16, 23)
          CFI Block cfiCond155 Using cfiCommon0
          CFI (cfiCond155) Function MT_AfIncomingMsg
          CFI (cfiCond155) Conditional ??CrossCallReturnLabel_3
          CFI (cfiCond155) R6 load(1, XDATA, add(CFA_XSP16, literal(-23)))
          CFI (cfiCond155) VB load(1, XDATA, add(CFA_XSP16, literal(-22)))
          CFI (cfiCond155) V0 load(1, XDATA, add(CFA_XSP16, literal(-21)))
          CFI (cfiCond155) V1 load(1, XDATA, add(CFA_XSP16, literal(-20)))
          CFI (cfiCond155) V2 load(1, XDATA, add(CFA_XSP16, literal(-19)))
          CFI (cfiCond155) V3 load(1, XDATA, add(CFA_XSP16, literal(-18)))
          CFI (cfiCond155) V4 load(1, XDATA, add(CFA_XSP16, literal(-17)))
          CFI (cfiCond155) V5 load(1, XDATA, add(CFA_XSP16, literal(-16)))
          CFI (cfiCond155) V6 load(1, XDATA, add(CFA_XSP16, literal(-15)))
          CFI (cfiCond155) V7 load(1, XDATA, add(CFA_XSP16, literal(-14)))
          CFI (cfiCond155) V8 load(1, XDATA, add(CFA_XSP16, literal(-13)))
          CFI (cfiCond155) V9 load(1, XDATA, add(CFA_XSP16, literal(-12)))
          CFI (cfiCond155) V10 load(1, XDATA, add(CFA_XSP16, literal(-11)))
          CFI (cfiCond155) V11 load(1, XDATA, add(CFA_XSP16, literal(-10)))
          CFI (cfiCond155) V12 load(1, XDATA, add(CFA_XSP16, literal(-9)))
          CFI (cfiCond155) V13 load(1, XDATA, add(CFA_XSP16, literal(-8)))
          CFI (cfiCond155) V14 load(1, XDATA, add(CFA_XSP16, literal(-7)))
          CFI (cfiCond155) R7 load(1, XDATA, add(CFA_XSP16, literal(-6)))
          CFI (cfiCond155) ?RET_LOW load(1, XDATA, add(CFA_XSP16, literal(-5)))
          CFI (cfiCond155) ?RET_HIGH load(1, XDATA, add(CFA_XSP16, literal(-4)))
          CFI (cfiCond155) ?BRET_EXT load(1, XDATA, add(CFA_XSP16, literal(-3)))
          CFI (cfiCond155) DPL0 load(1, XDATA, add(CFA_XSP16, literal(-2)))
          CFI (cfiCond155) DPH0 load(1, XDATA, add(CFA_XSP16, literal(-1)))
          CFI (cfiCond155) CFA_SP SP+0
          CFI (cfiCond155) CFA_XSP16 add(XSP16, 23)
          CFI Block cfiPicker156 Using cfiCommon1
          CFI (cfiPicker156) NoFunction
          CFI (cfiPicker156) Picker
        LCALL   ?Subroutine38 & 0xFFFF
??CrossCallReturnLabel_122:
        RET
          CFI EndBlock cfiCond154
          CFI EndBlock cfiCond155
          CFI EndBlock cfiPicker156

        RSEG BANKED_CODE:CODE:NOROOT(0)
?Subroutine38:
          CFI Block cfiCond157 Using cfiCommon0
          CFI Function MT_AfIncomingMsg
          CFI Conditional ??CrossCallReturnLabel_122, ??CrossCallReturnLabel_2
          CFI R6 load(1, XDATA, add(CFA_XSP16, literal(-23)))
          CFI VB load(1, XDATA, add(CFA_XSP16, literal(-22)))
          CFI V0 load(1, XDATA, add(CFA_XSP16, literal(-21)))
          CFI V1 load(1, XDATA, add(CFA_XSP16, literal(-20)))
          CFI V2 load(1, XDATA, add(CFA_XSP16, literal(-19)))
          CFI V3 load(1, XDATA, add(CFA_XSP16, literal(-18)))
          CFI V4 load(1, XDATA, add(CFA_XSP16, literal(-17)))
          CFI V5 load(1, XDATA, add(CFA_XSP16, literal(-16)))
          CFI V6 load(1, XDATA, add(CFA_XSP16, literal(-15)))
          CFI V7 load(1, XDATA, add(CFA_XSP16, literal(-14)))
          CFI V8 load(1, XDATA, add(CFA_XSP16, literal(-13)))
          CFI V9 load(1, XDATA, add(CFA_XSP16, literal(-12)))
          CFI V10 load(1, XDATA, add(CFA_XSP16, literal(-11)))
          CFI V11 load(1, XDATA, add(CFA_XSP16, literal(-10)))
          CFI V12 load(1, XDATA, add(CFA_XSP16, literal(-9)))
          CFI V13 load(1, XDATA, add(CFA_XSP16, literal(-8)))
          CFI V14 load(1, XDATA, add(CFA_XSP16, literal(-7)))
          CFI R7 load(1, XDATA, add(CFA_XSP16, literal(-6)))
          CFI ?RET_LOW load(1, XDATA, add(CFA_XSP16, literal(-5)))
          CFI ?RET_HIGH load(1, XDATA, add(CFA_XSP16, literal(-4)))
          CFI ?BRET_EXT load(1, XDATA, add(CFA_XSP16, literal(-3)))
          CFI DPL0 load(1, XDATA, add(CFA_XSP16, literal(-2)))
          CFI DPH0 load(1, XDATA, add(CFA_XSP16, literal(-1)))
          CFI CFA_SP SP+0
          CFI CFA_XSP16 add(XSP16, 23)
          CFI Block cfiCond158 Using cfiCommon0
          CFI (cfiCond158) Function MT_AfIncomingMsg
          CFI (cfiCond158) Conditional ??CrossCallReturnLabel_122, ??CrossCallReturnLabel_3
          CFI (cfiCond158) R6 load(1, XDATA, add(CFA_XSP16, literal(-23)))
          CFI (cfiCond158) VB load(1, XDATA, add(CFA_XSP16, literal(-22)))
          CFI (cfiCond158) V0 load(1, XDATA, add(CFA_XSP16, literal(-21)))
          CFI (cfiCond158) V1 load(1, XDATA, add(CFA_XSP16, literal(-20)))
          CFI (cfiCond158) V2 load(1, XDATA, add(CFA_XSP16, literal(-19)))
          CFI (cfiCond158) V3 load(1, XDATA, add(CFA_XSP16, literal(-18)))
          CFI (cfiCond158) V4 load(1, XDATA, add(CFA_XSP16, literal(-17)))
          CFI (cfiCond158) V5 load(1, XDATA, add(CFA_XSP16, literal(-16)))
          CFI (cfiCond158) V6 load(1, XDATA, add(CFA_XSP16, literal(-15)))
          CFI (cfiCond158) V7 load(1, XDATA, add(CFA_XSP16, literal(-14)))
          CFI (cfiCond158) V8 load(1, XDATA, add(CFA_XSP16, literal(-13)))
          CFI (cfiCond158) V9 load(1, XDATA, add(CFA_XSP16, literal(-12)))
          CFI (cfiCond158) V10 load(1, XDATA, add(CFA_XSP16, literal(-11)))
          CFI (cfiCond158) V11 load(1, XDATA, add(CFA_XSP16, literal(-10)))
          CFI (cfiCond158) V12 load(1, XDATA, add(CFA_XSP16, literal(-9)))
          CFI (cfiCond158) V13 load(1, XDATA, add(CFA_XSP16, literal(-8)))
          CFI (cfiCond158) V14 load(1, XDATA, add(CFA_XSP16, literal(-7)))
          CFI (cfiCond158) R7 load(1, XDATA, add(CFA_XSP16, literal(-6)))
          CFI (cfiCond158) ?RET_LOW load(1, XDATA, add(CFA_XSP16, literal(-5)))
          CFI (cfiCond158) ?RET_HIGH load(1, XDATA, add(CFA_XSP16, literal(-4)))
          CFI (cfiCond158) ?BRET_EXT load(1, XDATA, add(CFA_XSP16, literal(-3)))
          CFI (cfiCond158) DPL0 load(1, XDATA, add(CFA_XSP16, literal(-2)))
          CFI (cfiCond158) DPH0 load(1, XDATA, add(CFA_XSP16, literal(-1)))
          CFI (cfiCond158) CFA_SP SP+0
          CFI (cfiCond158) CFA_XSP16 add(XSP16, 23)
          CFI Block cfiCond159 Using cfiCommon0
          CFI (cfiCond159) Function MT_AfIncomingMsg
          CFI (cfiCond159) Conditional ??CrossCallReturnLabel_121, ??CrossCallReturnLabel_0
          CFI (cfiCond159) R6 load(1, XDATA, add(CFA_XSP16, literal(-23)))
          CFI (cfiCond159) VB load(1, XDATA, add(CFA_XSP16, literal(-22)))
          CFI (cfiCond159) V0 load(1, XDATA, add(CFA_XSP16, literal(-21)))
          CFI (cfiCond159) V1 load(1, XDATA, add(CFA_XSP16, literal(-20)))
          CFI (cfiCond159) V2 load(1, XDATA, add(CFA_XSP16, literal(-19)))
          CFI (cfiCond159) V3 load(1, XDATA, add(CFA_XSP16, literal(-18)))
          CFI (cfiCond159) V4 load(1, XDATA, add(CFA_XSP16, literal(-17)))
          CFI (cfiCond159) V5 load(1, XDATA, add(CFA_XSP16, literal(-16)))
          CFI (cfiCond159) V6 load(1, XDATA, add(CFA_XSP16, literal(-15)))
          CFI (cfiCond159) V7 load(1, XDATA, add(CFA_XSP16, literal(-14)))
          CFI (cfiCond159) V8 load(1, XDATA, add(CFA_XSP16, literal(-13)))
          CFI (cfiCond159) V9 load(1, XDATA, add(CFA_XSP16, literal(-12)))
          CFI (cfiCond159) V10 load(1, XDATA, add(CFA_XSP16, literal(-11)))
          CFI (cfiCond159) V11 load(1, XDATA, add(CFA_XSP16, literal(-10)))
          CFI (cfiCond159) V12 load(1, XDATA, add(CFA_XSP16, literal(-9)))
          CFI (cfiCond159) V13 load(1, XDATA, add(CFA_XSP16, literal(-8)))
          CFI (cfiCond159) V14 load(1, XDATA, add(CFA_XSP16, literal(-7)))
          CFI (cfiCond159) R7 load(1, XDATA, add(CFA_XSP16, literal(-6)))
          CFI (cfiCond159) ?RET_LOW load(1, XDATA, add(CFA_XSP16, literal(-5)))
          CFI (cfiCond159) ?RET_HIGH load(1, XDATA, add(CFA_XSP16, literal(-4)))
          CFI (cfiCond159) ?BRET_EXT load(1, XDATA, add(CFA_XSP16, literal(-3)))
          CFI (cfiCond159) DPL0 load(1, XDATA, add(CFA_XSP16, literal(-2)))
          CFI (cfiCond159) DPH0 load(1, XDATA, add(CFA_XSP16, literal(-1)))
          CFI (cfiCond159) CFA_SP SP+0
          CFI (cfiCond159) CFA_XSP16 add(XSP16, 23)
          CFI Block cfiCond160 Using cfiCommon0
          CFI (cfiCond160) Function MT_AfIncomingMsg
          CFI (cfiCond160) Conditional ??CrossCallReturnLabel_121, ??CrossCallReturnLabel_1
          CFI (cfiCond160) R6 load(1, XDATA, add(CFA_XSP16, literal(-23)))
          CFI (cfiCond160) VB load(1, XDATA, add(CFA_XSP16, literal(-22)))
          CFI (cfiCond160) V0 load(1, XDATA, add(CFA_XSP16, literal(-21)))
          CFI (cfiCond160) V1 load(1, XDATA, add(CFA_XSP16, literal(-20)))
          CFI (cfiCond160) V2 load(1, XDATA, add(CFA_XSP16, literal(-19)))
          CFI (cfiCond160) V3 load(1, XDATA, add(CFA_XSP16, literal(-18)))
          CFI (cfiCond160) V4 load(1, XDATA, add(CFA_XSP16, literal(-17)))
          CFI (cfiCond160) V5 load(1, XDATA, add(CFA_XSP16, literal(-16)))
          CFI (cfiCond160) V6 load(1, XDATA, add(CFA_XSP16, literal(-15)))
          CFI (cfiCond160) V7 load(1, XDATA, add(CFA_XSP16, literal(-14)))
          CFI (cfiCond160) V8 load(1, XDATA, add(CFA_XSP16, literal(-13)))
          CFI (cfiCond160) V9 load(1, XDATA, add(CFA_XSP16, literal(-12)))
          CFI (cfiCond160) V10 load(1, XDATA, add(CFA_XSP16, literal(-11)))
          CFI (cfiCond160) V11 load(1, XDATA, add(CFA_XSP16, literal(-10)))
          CFI (cfiCond160) V12 load(1, XDATA, add(CFA_XSP16, literal(-9)))
          CFI (cfiCond160) V13 load(1, XDATA, add(CFA_XSP16, literal(-8)))
          CFI (cfiCond160) V14 load(1, XDATA, add(CFA_XSP16, literal(-7)))
          CFI (cfiCond160) R7 load(1, XDATA, add(CFA_XSP16, literal(-6)))
          CFI (cfiCond160) ?RET_LOW load(1, XDATA, add(CFA_XSP16, literal(-5)))
          CFI (cfiCond160) ?RET_HIGH load(1, XDATA, add(CFA_XSP16, literal(-4)))
          CFI (cfiCond160) ?BRET_EXT load(1, XDATA, add(CFA_XSP16, literal(-3)))
          CFI (cfiCond160) DPL0 load(1, XDATA, add(CFA_XSP16, literal(-2)))
          CFI (cfiCond160) DPH0 load(1, XDATA, add(CFA_XSP16, literal(-1)))
          CFI (cfiCond160) CFA_SP SP+0
          CFI (cfiCond160) CFA_XSP16 add(XSP16, 23)
          CFI Block cfiCond161 Using cfiCommon0
          CFI (cfiCond161) Function MT_AfIncomingMsg
          CFI (cfiCond161) Conditional ??CrossCallReturnLabel_123, ??CrossCallReturnLabel_110
          CFI (cfiCond161) R6 load(1, XDATA, add(CFA_XSP16, literal(-23)))
          CFI (cfiCond161) VB load(1, XDATA, add(CFA_XSP16, literal(-22)))
          CFI (cfiCond161) V0 load(1, XDATA, add(CFA_XSP16, literal(-21)))
          CFI (cfiCond161) V1 load(1, XDATA, add(CFA_XSP16, literal(-20)))
          CFI (cfiCond161) V2 load(1, XDATA, add(CFA_XSP16, literal(-19)))
          CFI (cfiCond161) V3 load(1, XDATA, add(CFA_XSP16, literal(-18)))
          CFI (cfiCond161) V4 load(1, XDATA, add(CFA_XSP16, literal(-17)))
          CFI (cfiCond161) V5 load(1, XDATA, add(CFA_XSP16, literal(-16)))
          CFI (cfiCond161) V6 load(1, XDATA, add(CFA_XSP16, literal(-15)))
          CFI (cfiCond161) V7 load(1, XDATA, add(CFA_XSP16, literal(-14)))
          CFI (cfiCond161) V8 load(1, XDATA, add(CFA_XSP16, literal(-13)))
          CFI (cfiCond161) V9 load(1, XDATA, add(CFA_XSP16, literal(-12)))
          CFI (cfiCond161) V10 load(1, XDATA, add(CFA_XSP16, literal(-11)))
          CFI (cfiCond161) V11 load(1, XDATA, add(CFA_XSP16, literal(-10)))
          CFI (cfiCond161) V12 load(1, XDATA, add(CFA_XSP16, literal(-9)))
          CFI (cfiCond161) V13 load(1, XDATA, add(CFA_XSP16, literal(-8)))
          CFI (cfiCond161) V14 load(1, XDATA, add(CFA_XSP16, literal(-7)))
          CFI (cfiCond161) R7 load(1, XDATA, add(CFA_XSP16, literal(-6)))
          CFI (cfiCond161) ?RET_LOW load(1, XDATA, add(CFA_XSP16, literal(-5)))
          CFI (cfiCond161) ?RET_HIGH load(1, XDATA, add(CFA_XSP16, literal(-4)))
          CFI (cfiCond161) ?BRET_EXT load(1, XDATA, add(CFA_XSP16, literal(-3)))
          CFI (cfiCond161) DPL0 load(1, XDATA, add(CFA_XSP16, literal(-2)))
          CFI (cfiCond161) DPH0 load(1, XDATA, add(CFA_XSP16, literal(-1)))
          CFI (cfiCond161) CFA_SP SP+0
          CFI (cfiCond161) CFA_XSP16 add(XSP16, 23)
          CFI Block cfiCond162 Using cfiCommon0
          CFI (cfiCond162) Function MT_AfIncomingMsg
          CFI (cfiCond162) Conditional ??CrossCallReturnLabel_123, ??CrossCallReturnLabel_111
          CFI (cfiCond162) R6 load(1, XDATA, add(CFA_XSP16, literal(-23)))
          CFI (cfiCond162) VB load(1, XDATA, add(CFA_XSP16, literal(-22)))
          CFI (cfiCond162) V0 load(1, XDATA, add(CFA_XSP16, literal(-21)))
          CFI (cfiCond162) V1 load(1, XDATA, add(CFA_XSP16, literal(-20)))
          CFI (cfiCond162) V2 load(1, XDATA, add(CFA_XSP16, literal(-19)))
          CFI (cfiCond162) V3 load(1, XDATA, add(CFA_XSP16, literal(-18)))
          CFI (cfiCond162) V4 load(1, XDATA, add(CFA_XSP16, literal(-17)))
          CFI (cfiCond162) V5 load(1, XDATA, add(CFA_XSP16, literal(-16)))
          CFI (cfiCond162) V6 load(1, XDATA, add(CFA_XSP16, literal(-15)))
          CFI (cfiCond162) V7 load(1, XDATA, add(CFA_XSP16, literal(-14)))
          CFI (cfiCond162) V8 load(1, XDATA, add(CFA_XSP16, literal(-13)))
          CFI (cfiCond162) V9 load(1, XDATA, add(CFA_XSP16, literal(-12)))
          CFI (cfiCond162) V10 load(1, XDATA, add(CFA_XSP16, literal(-11)))
          CFI (cfiCond162) V11 load(1, XDATA, add(CFA_XSP16, literal(-10)))
          CFI (cfiCond162) V12 load(1, XDATA, add(CFA_XSP16, literal(-9)))
          CFI (cfiCond162) V13 load(1, XDATA, add(CFA_XSP16, literal(-8)))
          CFI (cfiCond162) V14 load(1, XDATA, add(CFA_XSP16, literal(-7)))
          CFI (cfiCond162) R7 load(1, XDATA, add(CFA_XSP16, literal(-6)))
          CFI (cfiCond162) ?RET_LOW load(1, XDATA, add(CFA_XSP16, literal(-5)))
          CFI (cfiCond162) ?RET_HIGH load(1, XDATA, add(CFA_XSP16, literal(-4)))
          CFI (cfiCond162) ?BRET_EXT load(1, XDATA, add(CFA_XSP16, literal(-3)))
          CFI (cfiCond162) DPL0 load(1, XDATA, add(CFA_XSP16, literal(-2)))
          CFI (cfiCond162) DPH0 load(1, XDATA, add(CFA_XSP16, literal(-1)))
          CFI (cfiCond162) CFA_SP SP+0
          CFI (cfiCond162) CFA_XSP16 add(XSP16, 23)
          CFI Block cfiCond163 Using cfiCommon0
          CFI (cfiCond163) Function MT_AfIncomingMsg
          CFI (cfiCond163) Conditional ??CrossCallReturnLabel_123, ??CrossCallReturnLabel_112
          CFI (cfiCond163) R6 load(1, XDATA, add(CFA_XSP16, literal(-23)))
          CFI (cfiCond163) VB load(1, XDATA, add(CFA_XSP16, literal(-22)))
          CFI (cfiCond163) V0 load(1, XDATA, add(CFA_XSP16, literal(-21)))
          CFI (cfiCond163) V1 load(1, XDATA, add(CFA_XSP16, literal(-20)))
          CFI (cfiCond163) V2 load(1, XDATA, add(CFA_XSP16, literal(-19)))
          CFI (cfiCond163) V3 load(1, XDATA, add(CFA_XSP16, literal(-18)))
          CFI (cfiCond163) V4 load(1, XDATA, add(CFA_XSP16, literal(-17)))
          CFI (cfiCond163) V5 load(1, XDATA, add(CFA_XSP16, literal(-16)))
          CFI (cfiCond163) V6 load(1, XDATA, add(CFA_XSP16, literal(-15)))
          CFI (cfiCond163) V7 load(1, XDATA, add(CFA_XSP16, literal(-14)))
          CFI (cfiCond163) V8 load(1, XDATA, add(CFA_XSP16, literal(-13)))
          CFI (cfiCond163) V9 load(1, XDATA, add(CFA_XSP16, literal(-12)))
          CFI (cfiCond163) V10 load(1, XDATA, add(CFA_XSP16, literal(-11)))
          CFI (cfiCond163) V11 load(1, XDATA, add(CFA_XSP16, literal(-10)))
          CFI (cfiCond163) V12 load(1, XDATA, add(CFA_XSP16, literal(-9)))
          CFI (cfiCond163) V13 load(1, XDATA, add(CFA_XSP16, literal(-8)))
          CFI (cfiCond163) V14 load(1, XDATA, add(CFA_XSP16, literal(-7)))
          CFI (cfiCond163) R7 load(1, XDATA, add(CFA_XSP16, literal(-6)))
          CFI (cfiCond163) ?RET_LOW load(1, XDATA, add(CFA_XSP16, literal(-5)))
          CFI (cfiCond163) ?RET_HIGH load(1, XDATA, add(CFA_XSP16, literal(-4)))
          CFI (cfiCond163) ?BRET_EXT load(1, XDATA, add(CFA_XSP16, literal(-3)))
          CFI (cfiCond163) DPL0 load(1, XDATA, add(CFA_XSP16, literal(-2)))
          CFI (cfiCond163) DPH0 load(1, XDATA, add(CFA_XSP16, literal(-1)))
          CFI (cfiCond163) CFA_SP SP+0
          CFI (cfiCond163) CFA_XSP16 add(XSP16, 23)
          CFI Block cfiCond164 Using cfiCommon0
          CFI (cfiCond164) Function MT_AfIncomingMsg
          CFI (cfiCond164) Conditional ??CrossCallReturnLabel_123, ??CrossCallReturnLabel_113
          CFI (cfiCond164) R6 load(1, XDATA, add(CFA_XSP16, literal(-23)))
          CFI (cfiCond164) VB load(1, XDATA, add(CFA_XSP16, literal(-22)))
          CFI (cfiCond164) V0 load(1, XDATA, add(CFA_XSP16, literal(-21)))
          CFI (cfiCond164) V1 load(1, XDATA, add(CFA_XSP16, literal(-20)))
          CFI (cfiCond164) V2 load(1, XDATA, add(CFA_XSP16, literal(-19)))
          CFI (cfiCond164) V3 load(1, XDATA, add(CFA_XSP16, literal(-18)))
          CFI (cfiCond164) V4 load(1, XDATA, add(CFA_XSP16, literal(-17)))
          CFI (cfiCond164) V5 load(1, XDATA, add(CFA_XSP16, literal(-16)))
          CFI (cfiCond164) V6 load(1, XDATA, add(CFA_XSP16, literal(-15)))
          CFI (cfiCond164) V7 load(1, XDATA, add(CFA_XSP16, literal(-14)))
          CFI (cfiCond164) V8 load(1, XDATA, add(CFA_XSP16, literal(-13)))
          CFI (cfiCond164) V9 load(1, XDATA, add(CFA_XSP16, literal(-12)))
          CFI (cfiCond164) V10 load(1, XDATA, add(CFA_XSP16, literal(-11)))
          CFI (cfiCond164) V11 load(1, XDATA, add(CFA_XSP16, literal(-10)))
          CFI (cfiCond164) V12 load(1, XDATA, add(CFA_XSP16, literal(-9)))
          CFI (cfiCond164) V13 load(1, XDATA, add(CFA_XSP16, literal(-8)))
          CFI (cfiCond164) V14 load(1, XDATA, add(CFA_XSP16, literal(-7)))
          CFI (cfiCond164) R7 load(1, XDATA, add(CFA_XSP16, literal(-6)))
          CFI (cfiCond164) ?RET_LOW load(1, XDATA, add(CFA_XSP16, literal(-5)))
          CFI (cfiCond164) ?RET_HIGH load(1, XDATA, add(CFA_XSP16, literal(-4)))
          CFI (cfiCond164) ?BRET_EXT load(1, XDATA, add(CFA_XSP16, literal(-3)))
          CFI (cfiCond164) DPL0 load(1, XDATA, add(CFA_XSP16, literal(-2)))
          CFI (cfiCond164) DPH0 load(1, XDATA, add(CFA_XSP16, literal(-1)))
          CFI (cfiCond164) CFA_SP SP+0
          CFI (cfiCond164) CFA_XSP16 add(XSP16, 23)
          CFI Block cfiCond165 Using cfiCommon0
          CFI (cfiCond165) Function MT_AfIncomingMsg
          CFI (cfiCond165) Conditional ??CrossCallReturnLabel_123, ??CrossCallReturnLabel_114
          CFI (cfiCond165) R6 load(1, XDATA, add(CFA_XSP16, literal(-23)))
          CFI (cfiCond165) VB load(1, XDATA, add(CFA_XSP16, literal(-22)))
          CFI (cfiCond165) V0 load(1, XDATA, add(CFA_XSP16, literal(-21)))
          CFI (cfiCond165) V1 load(1, XDATA, add(CFA_XSP16, literal(-20)))
          CFI (cfiCond165) V2 load(1, XDATA, add(CFA_XSP16, literal(-19)))
          CFI (cfiCond165) V3 load(1, XDATA, add(CFA_XSP16, literal(-18)))
          CFI (cfiCond165) V4 load(1, XDATA, add(CFA_XSP16, literal(-17)))
          CFI (cfiCond165) V5 load(1, XDATA, add(CFA_XSP16, literal(-16)))
          CFI (cfiCond165) V6 load(1, XDATA, add(CFA_XSP16, literal(-15)))
          CFI (cfiCond165) V7 load(1, XDATA, add(CFA_XSP16, literal(-14)))
          CFI (cfiCond165) V8 load(1, XDATA, add(CFA_XSP16, literal(-13)))
          CFI (cfiCond165) V9 load(1, XDATA, add(CFA_XSP16, literal(-12)))
          CFI (cfiCond165) V10 load(1, XDATA, add(CFA_XSP16, literal(-11)))
          CFI (cfiCond165) V11 load(1, XDATA, add(CFA_XSP16, literal(-10)))
          CFI (cfiCond165) V12 load(1, XDATA, add(CFA_XSP16, literal(-9)))
          CFI (cfiCond165) V13 load(1, XDATA, add(CFA_XSP16, literal(-8)))
          CFI (cfiCond165) V14 load(1, XDATA, add(CFA_XSP16, literal(-7)))
          CFI (cfiCond165) R7 load(1, XDATA, add(CFA_XSP16, literal(-6)))
          CFI (cfiCond165) ?RET_LOW load(1, XDATA, add(CFA_XSP16, literal(-5)))
          CFI (cfiCond165) ?RET_HIGH load(1, XDATA, add(CFA_XSP16, literal(-4)))
          CFI (cfiCond165) ?BRET_EXT load(1, XDATA, add(CFA_XSP16, literal(-3)))
          CFI (cfiCond165) DPL0 load(1, XDATA, add(CFA_XSP16, literal(-2)))
          CFI (cfiCond165) DPH0 load(1, XDATA, add(CFA_XSP16, literal(-1)))
          CFI (cfiCond165) CFA_SP SP+0
          CFI (cfiCond165) CFA_XSP16 add(XSP16, 23)
          CFI Block cfiCond166 Using cfiCommon0
          CFI (cfiCond166) Function MT_AfIncomingMsg
          CFI (cfiCond166) Conditional ??CrossCallReturnLabel_123, ??CrossCallReturnLabel_115
          CFI (cfiCond166) R6 load(1, XDATA, add(CFA_XSP16, literal(-23)))
          CFI (cfiCond166) VB load(1, XDATA, add(CFA_XSP16, literal(-22)))
          CFI (cfiCond166) V0 load(1, XDATA, add(CFA_XSP16, literal(-21)))
          CFI (cfiCond166) V1 load(1, XDATA, add(CFA_XSP16, literal(-20)))
          CFI (cfiCond166) V2 load(1, XDATA, add(CFA_XSP16, literal(-19)))
          CFI (cfiCond166) V3 load(1, XDATA, add(CFA_XSP16, literal(-18)))
          CFI (cfiCond166) V4 load(1, XDATA, add(CFA_XSP16, literal(-17)))
          CFI (cfiCond166) V5 load(1, XDATA, add(CFA_XSP16, literal(-16)))
          CFI (cfiCond166) V6 load(1, XDATA, add(CFA_XSP16, literal(-15)))
          CFI (cfiCond166) V7 load(1, XDATA, add(CFA_XSP16, literal(-14)))
          CFI (cfiCond166) V8 load(1, XDATA, add(CFA_XSP16, literal(-13)))
          CFI (cfiCond166) V9 load(1, XDATA, add(CFA_XSP16, literal(-12)))
          CFI (cfiCond166) V10 load(1, XDATA, add(CFA_XSP16, literal(-11)))
          CFI (cfiCond166) V11 load(1, XDATA, add(CFA_XSP16, literal(-10)))
          CFI (cfiCond166) V12 load(1, XDATA, add(CFA_XSP16, literal(-9)))
          CFI (cfiCond166) V13 load(1, XDATA, add(CFA_XSP16, literal(-8)))
          CFI (cfiCond166) V14 load(1, XDATA, add(CFA_XSP16, literal(-7)))
          CFI (cfiCond166) R7 load(1, XDATA, add(CFA_XSP16, literal(-6)))
          CFI (cfiCond166) ?RET_LOW load(1, XDATA, add(CFA_XSP16, literal(-5)))
          CFI (cfiCond166) ?RET_HIGH load(1, XDATA, add(CFA_XSP16, literal(-4)))
          CFI (cfiCond166) ?BRET_EXT load(1, XDATA, add(CFA_XSP16, literal(-3)))
          CFI (cfiCond166) DPL0 load(1, XDATA, add(CFA_XSP16, literal(-2)))
          CFI (cfiCond166) DPH0 load(1, XDATA, add(CFA_XSP16, literal(-1)))
          CFI (cfiCond166) CFA_SP SP+0
          CFI (cfiCond166) CFA_XSP16 add(XSP16, 23)
          CFI Block cfiPicker167 Using cfiCommon1
          CFI (cfiPicker167) NoFunction
          CFI (cfiPicker167) Picker
        LCALL   ?Subroutine44 & 0xFFFF
          CFI EndBlock cfiCond157
          CFI EndBlock cfiCond158
          CFI EndBlock cfiCond159
          CFI EndBlock cfiCond160
          CFI EndBlock cfiCond161
          CFI EndBlock cfiCond162
          CFI EndBlock cfiCond163
          CFI EndBlock cfiCond164
          CFI EndBlock cfiCond165
          CFI EndBlock cfiCond166
          CFI EndBlock cfiPicker167
??CrossCallReturnLabel_118:
        REQUIRE ??Subroutine52_0
        ; // Fall through to label ??Subroutine52_0

        RSEG BANKED_CODE:CODE:NOROOT(0)
??Subroutine52_0:
          CFI Block cfiCond168 Using cfiCommon0
          CFI Function MT_AfIncomingMsg
          CFI Conditional ??CrossCallReturnLabel_119, ??CrossCallReturnLabel_43
          CFI R6 load(1, XDATA, add(CFA_XSP16, literal(-23)))
          CFI VB load(1, XDATA, add(CFA_XSP16, literal(-22)))
          CFI V0 load(1, XDATA, add(CFA_XSP16, literal(-21)))
          CFI V1 load(1, XDATA, add(CFA_XSP16, literal(-20)))
          CFI V2 load(1, XDATA, add(CFA_XSP16, literal(-19)))
          CFI V3 load(1, XDATA, add(CFA_XSP16, literal(-18)))
          CFI V4 load(1, XDATA, add(CFA_XSP16, literal(-17)))
          CFI V5 load(1, XDATA, add(CFA_XSP16, literal(-16)))
          CFI V6 load(1, XDATA, add(CFA_XSP16, literal(-15)))
          CFI V7 load(1, XDATA, add(CFA_XSP16, literal(-14)))
          CFI V8 load(1, XDATA, add(CFA_XSP16, literal(-13)))
          CFI V9 load(1, XDATA, add(CFA_XSP16, literal(-12)))
          CFI V10 load(1, XDATA, add(CFA_XSP16, literal(-11)))
          CFI V11 load(1, XDATA, add(CFA_XSP16, literal(-10)))
          CFI V12 load(1, XDATA, add(CFA_XSP16, literal(-9)))
          CFI V13 load(1, XDATA, add(CFA_XSP16, literal(-8)))
          CFI V14 load(1, XDATA, add(CFA_XSP16, literal(-7)))
          CFI R7 load(1, XDATA, add(CFA_XSP16, literal(-6)))
          CFI ?RET_LOW load(1, XDATA, add(CFA_XSP16, literal(-5)))
          CFI ?RET_HIGH load(1, XDATA, add(CFA_XSP16, literal(-4)))
          CFI ?BRET_EXT load(1, XDATA, add(CFA_XSP16, literal(-3)))
          CFI DPL0 load(1, XDATA, add(CFA_XSP16, literal(-2)))
          CFI DPH0 load(1, XDATA, add(CFA_XSP16, literal(-1)))
          CFI CFA_SP SP+0
          CFI CFA_XSP16 add(XSP16, 23)
          CFI Block cfiCond169 Using cfiCommon0
          CFI (cfiCond169) Function MT_AfIncomingMsg
          CFI (cfiCond169) Conditional ??CrossCallReturnLabel_119, ??CrossCallReturnLabel_44
          CFI (cfiCond169) R6 load(1, XDATA, add(CFA_XSP16, literal(-23)))
          CFI (cfiCond169) VB load(1, XDATA, add(CFA_XSP16, literal(-22)))
          CFI (cfiCond169) V0 load(1, XDATA, add(CFA_XSP16, literal(-21)))
          CFI (cfiCond169) V1 load(1, XDATA, add(CFA_XSP16, literal(-20)))
          CFI (cfiCond169) V2 load(1, XDATA, add(CFA_XSP16, literal(-19)))
          CFI (cfiCond169) V3 load(1, XDATA, add(CFA_XSP16, literal(-18)))
          CFI (cfiCond169) V4 load(1, XDATA, add(CFA_XSP16, literal(-17)))
          CFI (cfiCond169) V5 load(1, XDATA, add(CFA_XSP16, literal(-16)))
          CFI (cfiCond169) V6 load(1, XDATA, add(CFA_XSP16, literal(-15)))
          CFI (cfiCond169) V7 load(1, XDATA, add(CFA_XSP16, literal(-14)))
          CFI (cfiCond169) V8 load(1, XDATA, add(CFA_XSP16, literal(-13)))
          CFI (cfiCond169) V9 load(1, XDATA, add(CFA_XSP16, literal(-12)))
          CFI (cfiCond169) V10 load(1, XDATA, add(CFA_XSP16, literal(-11)))
          CFI (cfiCond169) V11 load(1, XDATA, add(CFA_XSP16, literal(-10)))
          CFI (cfiCond169) V12 load(1, XDATA, add(CFA_XSP16, literal(-9)))
          CFI (cfiCond169) V13 load(1, XDATA, add(CFA_XSP16, literal(-8)))
          CFI (cfiCond169) V14 load(1, XDATA, add(CFA_XSP16, literal(-7)))
          CFI (cfiCond169) R7 load(1, XDATA, add(CFA_XSP16, literal(-6)))
          CFI (cfiCond169) ?RET_LOW load(1, XDATA, add(CFA_XSP16, literal(-5)))
          CFI (cfiCond169) ?RET_HIGH load(1, XDATA, add(CFA_XSP16, literal(-4)))
          CFI (cfiCond169) ?BRET_EXT load(1, XDATA, add(CFA_XSP16, literal(-3)))
          CFI (cfiCond169) DPL0 load(1, XDATA, add(CFA_XSP16, literal(-2)))
          CFI (cfiCond169) DPH0 load(1, XDATA, add(CFA_XSP16, literal(-1)))
          CFI (cfiCond169) CFA_SP SP+0
          CFI (cfiCond169) CFA_XSP16 add(XSP16, 23)
          CFI Block cfiCond170 Using cfiCommon0
          CFI (cfiCond170) Function MT_AfIncomingMsg
          CFI (cfiCond170) Conditional ??CrossCallReturnLabel_119, ??CrossCallReturnLabel_45
          CFI (cfiCond170) R6 load(1, XDATA, add(CFA_XSP16, literal(-23)))
          CFI (cfiCond170) VB load(1, XDATA, add(CFA_XSP16, literal(-22)))
          CFI (cfiCond170) V0 load(1, XDATA, add(CFA_XSP16, literal(-21)))
          CFI (cfiCond170) V1 load(1, XDATA, add(CFA_XSP16, literal(-20)))
          CFI (cfiCond170) V2 load(1, XDATA, add(CFA_XSP16, literal(-19)))
          CFI (cfiCond170) V3 load(1, XDATA, add(CFA_XSP16, literal(-18)))
          CFI (cfiCond170) V4 load(1, XDATA, add(CFA_XSP16, literal(-17)))
          CFI (cfiCond170) V5 load(1, XDATA, add(CFA_XSP16, literal(-16)))
          CFI (cfiCond170) V6 load(1, XDATA, add(CFA_XSP16, literal(-15)))
          CFI (cfiCond170) V7 load(1, XDATA, add(CFA_XSP16, literal(-14)))
          CFI (cfiCond170) V8 load(1, XDATA, add(CFA_XSP16, literal(-13)))
          CFI (cfiCond170) V9 load(1, XDATA, add(CFA_XSP16, literal(-12)))
          CFI (cfiCond170) V10 load(1, XDATA, add(CFA_XSP16, literal(-11)))
          CFI (cfiCond170) V11 load(1, XDATA, add(CFA_XSP16, literal(-10)))
          CFI (cfiCond170) V12 load(1, XDATA, add(CFA_XSP16, literal(-9)))
          CFI (cfiCond170) V13 load(1, XDATA, add(CFA_XSP16, literal(-8)))
          CFI (cfiCond170) V14 load(1, XDATA, add(CFA_XSP16, literal(-7)))
          CFI (cfiCond170) R7 load(1, XDATA, add(CFA_XSP16, literal(-6)))
          CFI (cfiCond170) ?RET_LOW load(1, XDATA, add(CFA_XSP16, literal(-5)))
          CFI (cfiCond170) ?RET_HIGH load(1, XDATA, add(CFA_XSP16, literal(-4)))
          CFI (cfiCond170) ?BRET_EXT load(1, XDATA, add(CFA_XSP16, literal(-3)))
          CFI (cfiCond170) DPL0 load(1, XDATA, add(CFA_XSP16, literal(-2)))
          CFI (cfiCond170) DPH0 load(1, XDATA, add(CFA_XSP16, literal(-1)))
          CFI (cfiCond170) CFA_SP SP+0
          CFI (cfiCond170) CFA_XSP16 add(XSP16, 23)
          CFI Block cfiCond171 Using cfiCommon0
          CFI (cfiCond171) Function MT_AfIncomingMsg
          CFI (cfiCond171) Conditional ??CrossCallReturnLabel_119, ??CrossCallReturnLabel_46
          CFI (cfiCond171) R6 load(1, XDATA, add(CFA_XSP16, literal(-23)))
          CFI (cfiCond171) VB load(1, XDATA, add(CFA_XSP16, literal(-22)))
          CFI (cfiCond171) V0 load(1, XDATA, add(CFA_XSP16, literal(-21)))
          CFI (cfiCond171) V1 load(1, XDATA, add(CFA_XSP16, literal(-20)))
          CFI (cfiCond171) V2 load(1, XDATA, add(CFA_XSP16, literal(-19)))
          CFI (cfiCond171) V3 load(1, XDATA, add(CFA_XSP16, literal(-18)))
          CFI (cfiCond171) V4 load(1, XDATA, add(CFA_XSP16, literal(-17)))
          CFI (cfiCond171) V5 load(1, XDATA, add(CFA_XSP16, literal(-16)))
          CFI (cfiCond171) V6 load(1, XDATA, add(CFA_XSP16, literal(-15)))
          CFI (cfiCond171) V7 load(1, XDATA, add(CFA_XSP16, literal(-14)))
          CFI (cfiCond171) V8 load(1, XDATA, add(CFA_XSP16, literal(-13)))
          CFI (cfiCond171) V9 load(1, XDATA, add(CFA_XSP16, literal(-12)))
          CFI (cfiCond171) V10 load(1, XDATA, add(CFA_XSP16, literal(-11)))
          CFI (cfiCond171) V11 load(1, XDATA, add(CFA_XSP16, literal(-10)))
          CFI (cfiCond171) V12 load(1, XDATA, add(CFA_XSP16, literal(-9)))
          CFI (cfiCond171) V13 load(1, XDATA, add(CFA_XSP16, literal(-8)))
          CFI (cfiCond171) V14 load(1, XDATA, add(CFA_XSP16, literal(-7)))
          CFI (cfiCond171) R7 load(1, XDATA, add(CFA_XSP16, literal(-6)))
          CFI (cfiCond171) ?RET_LOW load(1, XDATA, add(CFA_XSP16, literal(-5)))
          CFI (cfiCond171) ?RET_HIGH load(1, XDATA, add(CFA_XSP16, literal(-4)))
          CFI (cfiCond171) ?BRET_EXT load(1, XDATA, add(CFA_XSP16, literal(-3)))
          CFI (cfiCond171) DPL0 load(1, XDATA, add(CFA_XSP16, literal(-2)))
          CFI (cfiCond171) DPH0 load(1, XDATA, add(CFA_XSP16, literal(-1)))
          CFI (cfiCond171) CFA_SP SP+0
          CFI (cfiCond171) CFA_XSP16 add(XSP16, 23)
          CFI Block cfiCond172 Using cfiCommon0
          CFI (cfiCond172) Function MT_AfIncomingMsg
          CFI (cfiCond172) Conditional ??CrossCallReturnLabel_120, ??CrossCallReturnLabel_97
          CFI (cfiCond172) R6 load(1, XDATA, add(CFA_XSP16, literal(-23)))
          CFI (cfiCond172) VB load(1, XDATA, add(CFA_XSP16, literal(-22)))
          CFI (cfiCond172) V0 load(1, XDATA, add(CFA_XSP16, literal(-21)))
          CFI (cfiCond172) V1 load(1, XDATA, add(CFA_XSP16, literal(-20)))
          CFI (cfiCond172) V2 load(1, XDATA, add(CFA_XSP16, literal(-19)))
          CFI (cfiCond172) V3 load(1, XDATA, add(CFA_XSP16, literal(-18)))
          CFI (cfiCond172) V4 load(1, XDATA, add(CFA_XSP16, literal(-17)))
          CFI (cfiCond172) V5 load(1, XDATA, add(CFA_XSP16, literal(-16)))
          CFI (cfiCond172) V6 load(1, XDATA, add(CFA_XSP16, literal(-15)))
          CFI (cfiCond172) V7 load(1, XDATA, add(CFA_XSP16, literal(-14)))
          CFI (cfiCond172) V8 load(1, XDATA, add(CFA_XSP16, literal(-13)))
          CFI (cfiCond172) V9 load(1, XDATA, add(CFA_XSP16, literal(-12)))
          CFI (cfiCond172) V10 load(1, XDATA, add(CFA_XSP16, literal(-11)))
          CFI (cfiCond172) V11 load(1, XDATA, add(CFA_XSP16, literal(-10)))
          CFI (cfiCond172) V12 load(1, XDATA, add(CFA_XSP16, literal(-9)))
          CFI (cfiCond172) V13 load(1, XDATA, add(CFA_XSP16, literal(-8)))
          CFI (cfiCond172) V14 load(1, XDATA, add(CFA_XSP16, literal(-7)))
          CFI (cfiCond172) R7 load(1, XDATA, add(CFA_XSP16, literal(-6)))
          CFI (cfiCond172) ?RET_LOW load(1, XDATA, add(CFA_XSP16, literal(-5)))
          CFI (cfiCond172) ?RET_HIGH load(1, XDATA, add(CFA_XSP16, literal(-4)))
          CFI (cfiCond172) ?BRET_EXT load(1, XDATA, add(CFA_XSP16, literal(-3)))
          CFI (cfiCond172) DPL0 load(1, XDATA, add(CFA_XSP16, literal(-2)))
          CFI (cfiCond172) DPH0 load(1, XDATA, add(CFA_XSP16, literal(-1)))
          CFI (cfiCond172) CFA_SP SP+0
          CFI (cfiCond172) CFA_XSP16 add(XSP16, 23)
          CFI Block cfiCond173 Using cfiCommon0
          CFI (cfiCond173) Function MT_AfIncomingMsg
          CFI (cfiCond173) Conditional ??CrossCallReturnLabel_120, ??CrossCallReturnLabel_98
          CFI (cfiCond173) R6 load(1, XDATA, add(CFA_XSP16, literal(-23)))
          CFI (cfiCond173) VB load(1, XDATA, add(CFA_XSP16, literal(-22)))
          CFI (cfiCond173) V0 load(1, XDATA, add(CFA_XSP16, literal(-21)))
          CFI (cfiCond173) V1 load(1, XDATA, add(CFA_XSP16, literal(-20)))
          CFI (cfiCond173) V2 load(1, XDATA, add(CFA_XSP16, literal(-19)))
          CFI (cfiCond173) V3 load(1, XDATA, add(CFA_XSP16, literal(-18)))
          CFI (cfiCond173) V4 load(1, XDATA, add(CFA_XSP16, literal(-17)))
          CFI (cfiCond173) V5 load(1, XDATA, add(CFA_XSP16, literal(-16)))
          CFI (cfiCond173) V6 load(1, XDATA, add(CFA_XSP16, literal(-15)))
          CFI (cfiCond173) V7 load(1, XDATA, add(CFA_XSP16, literal(-14)))
          CFI (cfiCond173) V8 load(1, XDATA, add(CFA_XSP16, literal(-13)))
          CFI (cfiCond173) V9 load(1, XDATA, add(CFA_XSP16, literal(-12)))
          CFI (cfiCond173) V10 load(1, XDATA, add(CFA_XSP16, literal(-11)))
          CFI (cfiCond173) V11 load(1, XDATA, add(CFA_XSP16, literal(-10)))
          CFI (cfiCond173) V12 load(1, XDATA, add(CFA_XSP16, literal(-9)))
          CFI (cfiCond173) V13 load(1, XDATA, add(CFA_XSP16, literal(-8)))
          CFI (cfiCond173) V14 load(1, XDATA, add(CFA_XSP16, literal(-7)))
          CFI (cfiCond173) R7 load(1, XDATA, add(CFA_XSP16, literal(-6)))
          CFI (cfiCond173) ?RET_LOW load(1, XDATA, add(CFA_XSP16, literal(-5)))
          CFI (cfiCond173) ?RET_HIGH load(1, XDATA, add(CFA_XSP16, literal(-4)))
          CFI (cfiCond173) ?BRET_EXT load(1, XDATA, add(CFA_XSP16, literal(-3)))
          CFI (cfiCond173) DPL0 load(1, XDATA, add(CFA_XSP16, literal(-2)))
          CFI (cfiCond173) DPH0 load(1, XDATA, add(CFA_XSP16, literal(-1)))
          CFI (cfiCond173) CFA_SP SP+0
          CFI (cfiCond173) CFA_XSP16 add(XSP16, 23)
          CFI Block cfiCond174 Using cfiCommon0
          CFI (cfiCond174) Function MT_AfIncomingMsg
          CFI (cfiCond174) Conditional ??CrossCallReturnLabel_120, ??CrossCallReturnLabel_99
          CFI (cfiCond174) R6 load(1, XDATA, add(CFA_XSP16, literal(-23)))
          CFI (cfiCond174) VB load(1, XDATA, add(CFA_XSP16, literal(-22)))
          CFI (cfiCond174) V0 load(1, XDATA, add(CFA_XSP16, literal(-21)))
          CFI (cfiCond174) V1 load(1, XDATA, add(CFA_XSP16, literal(-20)))
          CFI (cfiCond174) V2 load(1, XDATA, add(CFA_XSP16, literal(-19)))
          CFI (cfiCond174) V3 load(1, XDATA, add(CFA_XSP16, literal(-18)))
          CFI (cfiCond174) V4 load(1, XDATA, add(CFA_XSP16, literal(-17)))
          CFI (cfiCond174) V5 load(1, XDATA, add(CFA_XSP16, literal(-16)))
          CFI (cfiCond174) V6 load(1, XDATA, add(CFA_XSP16, literal(-15)))
          CFI (cfiCond174) V7 load(1, XDATA, add(CFA_XSP16, literal(-14)))
          CFI (cfiCond174) V8 load(1, XDATA, add(CFA_XSP16, literal(-13)))
          CFI (cfiCond174) V9 load(1, XDATA, add(CFA_XSP16, literal(-12)))
          CFI (cfiCond174) V10 load(1, XDATA, add(CFA_XSP16, literal(-11)))
          CFI (cfiCond174) V11 load(1, XDATA, add(CFA_XSP16, literal(-10)))
          CFI (cfiCond174) V12 load(1, XDATA, add(CFA_XSP16, literal(-9)))
          CFI (cfiCond174) V13 load(1, XDATA, add(CFA_XSP16, literal(-8)))
          CFI (cfiCond174) V14 load(1, XDATA, add(CFA_XSP16, literal(-7)))
          CFI (cfiCond174) R7 load(1, XDATA, add(CFA_XSP16, literal(-6)))
          CFI (cfiCond174) ?RET_LOW load(1, XDATA, add(CFA_XSP16, literal(-5)))
          CFI (cfiCond174) ?RET_HIGH load(1, XDATA, add(CFA_XSP16, literal(-4)))
          CFI (cfiCond174) ?BRET_EXT load(1, XDATA, add(CFA_XSP16, literal(-3)))
          CFI (cfiCond174) DPL0 load(1, XDATA, add(CFA_XSP16, literal(-2)))
          CFI (cfiCond174) DPH0 load(1, XDATA, add(CFA_XSP16, literal(-1)))
          CFI (cfiCond174) CFA_SP SP+0
          CFI (cfiCond174) CFA_XSP16 add(XSP16, 23)
          CFI Block cfiCond175 Using cfiCommon0
          CFI (cfiCond175) Function MT_AfIncomingMsg
          CFI (cfiCond175) Conditional ??CrossCallReturnLabel_122, ??CrossCallReturnLabel_2
          CFI (cfiCond175) R6 load(1, XDATA, add(CFA_XSP16, literal(-23)))
          CFI (cfiCond175) VB load(1, XDATA, add(CFA_XSP16, literal(-22)))
          CFI (cfiCond175) V0 load(1, XDATA, add(CFA_XSP16, literal(-21)))
          CFI (cfiCond175) V1 load(1, XDATA, add(CFA_XSP16, literal(-20)))
          CFI (cfiCond175) V2 load(1, XDATA, add(CFA_XSP16, literal(-19)))
          CFI (cfiCond175) V3 load(1, XDATA, add(CFA_XSP16, literal(-18)))
          CFI (cfiCond175) V4 load(1, XDATA, add(CFA_XSP16, literal(-17)))
          CFI (cfiCond175) V5 load(1, XDATA, add(CFA_XSP16, literal(-16)))
          CFI (cfiCond175) V6 load(1, XDATA, add(CFA_XSP16, literal(-15)))
          CFI (cfiCond175) V7 load(1, XDATA, add(CFA_XSP16, literal(-14)))
          CFI (cfiCond175) V8 load(1, XDATA, add(CFA_XSP16, literal(-13)))
          CFI (cfiCond175) V9 load(1, XDATA, add(CFA_XSP16, literal(-12)))
          CFI (cfiCond175) V10 load(1, XDATA, add(CFA_XSP16, literal(-11)))
          CFI (cfiCond175) V11 load(1, XDATA, add(CFA_XSP16, literal(-10)))
          CFI (cfiCond175) V12 load(1, XDATA, add(CFA_XSP16, literal(-9)))
          CFI (cfiCond175) V13 load(1, XDATA, add(CFA_XSP16, literal(-8)))
          CFI (cfiCond175) V14 load(1, XDATA, add(CFA_XSP16, literal(-7)))
          CFI (cfiCond175) R7 load(1, XDATA, add(CFA_XSP16, literal(-6)))
          CFI (cfiCond175) ?RET_LOW load(1, XDATA, add(CFA_XSP16, literal(-5)))
          CFI (cfiCond175) ?RET_HIGH load(1, XDATA, add(CFA_XSP16, literal(-4)))
          CFI (cfiCond175) ?BRET_EXT load(1, XDATA, add(CFA_XSP16, literal(-3)))
          CFI (cfiCond175) DPL0 load(1, XDATA, add(CFA_XSP16, literal(-2)))
          CFI (cfiCond175) DPH0 load(1, XDATA, add(CFA_XSP16, literal(-1)))
          CFI (cfiCond175) CFA_SP SP+0
          CFI (cfiCond175) CFA_XSP16 add(XSP16, 23)
          CFI Block cfiCond176 Using cfiCommon0
          CFI (cfiCond176) Function MT_AfIncomingMsg
          CFI (cfiCond176) Conditional ??CrossCallReturnLabel_122, ??CrossCallReturnLabel_3
          CFI (cfiCond176) R6 load(1, XDATA, add(CFA_XSP16, literal(-23)))
          CFI (cfiCond176) VB load(1, XDATA, add(CFA_XSP16, literal(-22)))
          CFI (cfiCond176) V0 load(1, XDATA, add(CFA_XSP16, literal(-21)))
          CFI (cfiCond176) V1 load(1, XDATA, add(CFA_XSP16, literal(-20)))
          CFI (cfiCond176) V2 load(1, XDATA, add(CFA_XSP16, literal(-19)))
          CFI (cfiCond176) V3 load(1, XDATA, add(CFA_XSP16, literal(-18)))
          CFI (cfiCond176) V4 load(1, XDATA, add(CFA_XSP16, literal(-17)))
          CFI (cfiCond176) V5 load(1, XDATA, add(CFA_XSP16, literal(-16)))
          CFI (cfiCond176) V6 load(1, XDATA, add(CFA_XSP16, literal(-15)))
          CFI (cfiCond176) V7 load(1, XDATA, add(CFA_XSP16, literal(-14)))
          CFI (cfiCond176) V8 load(1, XDATA, add(CFA_XSP16, literal(-13)))
          CFI (cfiCond176) V9 load(1, XDATA, add(CFA_XSP16, literal(-12)))
          CFI (cfiCond176) V10 load(1, XDATA, add(CFA_XSP16, literal(-11)))
          CFI (cfiCond176) V11 load(1, XDATA, add(CFA_XSP16, literal(-10)))
          CFI (cfiCond176) V12 load(1, XDATA, add(CFA_XSP16, literal(-9)))
          CFI (cfiCond176) V13 load(1, XDATA, add(CFA_XSP16, literal(-8)))
          CFI (cfiCond176) V14 load(1, XDATA, add(CFA_XSP16, literal(-7)))
          CFI (cfiCond176) R7 load(1, XDATA, add(CFA_XSP16, literal(-6)))
          CFI (cfiCond176) ?RET_LOW load(1, XDATA, add(CFA_XSP16, literal(-5)))
          CFI (cfiCond176) ?RET_HIGH load(1, XDATA, add(CFA_XSP16, literal(-4)))
          CFI (cfiCond176) ?BRET_EXT load(1, XDATA, add(CFA_XSP16, literal(-3)))
          CFI (cfiCond176) DPL0 load(1, XDATA, add(CFA_XSP16, literal(-2)))
          CFI (cfiCond176) DPH0 load(1, XDATA, add(CFA_XSP16, literal(-1)))
          CFI (cfiCond176) CFA_SP SP+0
          CFI (cfiCond176) CFA_XSP16 add(XSP16, 23)
          CFI Block cfiCond177 Using cfiCommon0
          CFI (cfiCond177) Function MT_AfIncomingMsg
          CFI (cfiCond177) Conditional ??CrossCallReturnLabel_121, ??CrossCallReturnLabel_0
          CFI (cfiCond177) R6 load(1, XDATA, add(CFA_XSP16, literal(-23)))
          CFI (cfiCond177) VB load(1, XDATA, add(CFA_XSP16, literal(-22)))
          CFI (cfiCond177) V0 load(1, XDATA, add(CFA_XSP16, literal(-21)))
          CFI (cfiCond177) V1 load(1, XDATA, add(CFA_XSP16, literal(-20)))
          CFI (cfiCond177) V2 load(1, XDATA, add(CFA_XSP16, literal(-19)))
          CFI (cfiCond177) V3 load(1, XDATA, add(CFA_XSP16, literal(-18)))
          CFI (cfiCond177) V4 load(1, XDATA, add(CFA_XSP16, literal(-17)))
          CFI (cfiCond177) V5 load(1, XDATA, add(CFA_XSP16, literal(-16)))
          CFI (cfiCond177) V6 load(1, XDATA, add(CFA_XSP16, literal(-15)))
          CFI (cfiCond177) V7 load(1, XDATA, add(CFA_XSP16, literal(-14)))
          CFI (cfiCond177) V8 load(1, XDATA, add(CFA_XSP16, literal(-13)))
          CFI (cfiCond177) V9 load(1, XDATA, add(CFA_XSP16, literal(-12)))
          CFI (cfiCond177) V10 load(1, XDATA, add(CFA_XSP16, literal(-11)))
          CFI (cfiCond177) V11 load(1, XDATA, add(CFA_XSP16, literal(-10)))
          CFI (cfiCond177) V12 load(1, XDATA, add(CFA_XSP16, literal(-9)))
          CFI (cfiCond177) V13 load(1, XDATA, add(CFA_XSP16, literal(-8)))
          CFI (cfiCond177) V14 load(1, XDATA, add(CFA_XSP16, literal(-7)))
          CFI (cfiCond177) R7 load(1, XDATA, add(CFA_XSP16, literal(-6)))
          CFI (cfiCond177) ?RET_LOW load(1, XDATA, add(CFA_XSP16, literal(-5)))
          CFI (cfiCond177) ?RET_HIGH load(1, XDATA, add(CFA_XSP16, literal(-4)))
          CFI (cfiCond177) ?BRET_EXT load(1, XDATA, add(CFA_XSP16, literal(-3)))
          CFI (cfiCond177) DPL0 load(1, XDATA, add(CFA_XSP16, literal(-2)))
          CFI (cfiCond177) DPH0 load(1, XDATA, add(CFA_XSP16, literal(-1)))
          CFI (cfiCond177) CFA_SP SP+0
          CFI (cfiCond177) CFA_XSP16 add(XSP16, 23)
          CFI Block cfiCond178 Using cfiCommon0
          CFI (cfiCond178) Function MT_AfIncomingMsg
          CFI (cfiCond178) Conditional ??CrossCallReturnLabel_121, ??CrossCallReturnLabel_1
          CFI (cfiCond178) R6 load(1, XDATA, add(CFA_XSP16, literal(-23)))
          CFI (cfiCond178) VB load(1, XDATA, add(CFA_XSP16, literal(-22)))
          CFI (cfiCond178) V0 load(1, XDATA, add(CFA_XSP16, literal(-21)))
          CFI (cfiCond178) V1 load(1, XDATA, add(CFA_XSP16, literal(-20)))
          CFI (cfiCond178) V2 load(1, XDATA, add(CFA_XSP16, literal(-19)))
          CFI (cfiCond178) V3 load(1, XDATA, add(CFA_XSP16, literal(-18)))
          CFI (cfiCond178) V4 load(1, XDATA, add(CFA_XSP16, literal(-17)))
          CFI (cfiCond178) V5 load(1, XDATA, add(CFA_XSP16, literal(-16)))
          CFI (cfiCond178) V6 load(1, XDATA, add(CFA_XSP16, literal(-15)))
          CFI (cfiCond178) V7 load(1, XDATA, add(CFA_XSP16, literal(-14)))
          CFI (cfiCond178) V8 load(1, XDATA, add(CFA_XSP16, literal(-13)))
          CFI (cfiCond178) V9 load(1, XDATA, add(CFA_XSP16, literal(-12)))
          CFI (cfiCond178) V10 load(1, XDATA, add(CFA_XSP16, literal(-11)))
          CFI (cfiCond178) V11 load(1, XDATA, add(CFA_XSP16, literal(-10)))
          CFI (cfiCond178) V12 load(1, XDATA, add(CFA_XSP16, literal(-9)))
          CFI (cfiCond178) V13 load(1, XDATA, add(CFA_XSP16, literal(-8)))
          CFI (cfiCond178) V14 load(1, XDATA, add(CFA_XSP16, literal(-7)))
          CFI (cfiCond178) R7 load(1, XDATA, add(CFA_XSP16, literal(-6)))
          CFI (cfiCond178) ?RET_LOW load(1, XDATA, add(CFA_XSP16, literal(-5)))
          CFI (cfiCond178) ?RET_HIGH load(1, XDATA, add(CFA_XSP16, literal(-4)))
          CFI (cfiCond178) ?BRET_EXT load(1, XDATA, add(CFA_XSP16, literal(-3)))
          CFI (cfiCond178) DPL0 load(1, XDATA, add(CFA_XSP16, literal(-2)))
          CFI (cfiCond178) DPH0 load(1, XDATA, add(CFA_XSP16, literal(-1)))
          CFI (cfiCond178) CFA_SP SP+0
          CFI (cfiCond178) CFA_XSP16 add(XSP16, 23)
          CFI Block cfiCond179 Using cfiCommon0
          CFI (cfiCond179) Function MT_AfIncomingMsg
          CFI (cfiCond179) Conditional ??CrossCallReturnLabel_123, ??CrossCallReturnLabel_110
          CFI (cfiCond179) R6 load(1, XDATA, add(CFA_XSP16, literal(-23)))
          CFI (cfiCond179) VB load(1, XDATA, add(CFA_XSP16, literal(-22)))
          CFI (cfiCond179) V0 load(1, XDATA, add(CFA_XSP16, literal(-21)))
          CFI (cfiCond179) V1 load(1, XDATA, add(CFA_XSP16, literal(-20)))
          CFI (cfiCond179) V2 load(1, XDATA, add(CFA_XSP16, literal(-19)))
          CFI (cfiCond179) V3 load(1, XDATA, add(CFA_XSP16, literal(-18)))
          CFI (cfiCond179) V4 load(1, XDATA, add(CFA_XSP16, literal(-17)))
          CFI (cfiCond179) V5 load(1, XDATA, add(CFA_XSP16, literal(-16)))
          CFI (cfiCond179) V6 load(1, XDATA, add(CFA_XSP16, literal(-15)))
          CFI (cfiCond179) V7 load(1, XDATA, add(CFA_XSP16, literal(-14)))
          CFI (cfiCond179) V8 load(1, XDATA, add(CFA_XSP16, literal(-13)))
          CFI (cfiCond179) V9 load(1, XDATA, add(CFA_XSP16, literal(-12)))
          CFI (cfiCond179) V10 load(1, XDATA, add(CFA_XSP16, literal(-11)))
          CFI (cfiCond179) V11 load(1, XDATA, add(CFA_XSP16, literal(-10)))
          CFI (cfiCond179) V12 load(1, XDATA, add(CFA_XSP16, literal(-9)))
          CFI (cfiCond179) V13 load(1, XDATA, add(CFA_XSP16, literal(-8)))
          CFI (cfiCond179) V14 load(1, XDATA, add(CFA_XSP16, literal(-7)))
          CFI (cfiCond179) R7 load(1, XDATA, add(CFA_XSP16, literal(-6)))
          CFI (cfiCond179) ?RET_LOW load(1, XDATA, add(CFA_XSP16, literal(-5)))
          CFI (cfiCond179) ?RET_HIGH load(1, XDATA, add(CFA_XSP16, literal(-4)))
          CFI (cfiCond179) ?BRET_EXT load(1, XDATA, add(CFA_XSP16, literal(-3)))
          CFI (cfiCond179) DPL0 load(1, XDATA, add(CFA_XSP16, literal(-2)))
          CFI (cfiCond179) DPH0 load(1, XDATA, add(CFA_XSP16, literal(-1)))
          CFI (cfiCond179) CFA_SP SP+0
          CFI (cfiCond179) CFA_XSP16 add(XSP16, 23)
          CFI Block cfiCond180 Using cfiCommon0
          CFI (cfiCond180) Function MT_AfIncomingMsg
          CFI (cfiCond180) Conditional ??CrossCallReturnLabel_123, ??CrossCallReturnLabel_111
          CFI (cfiCond180) R6 load(1, XDATA, add(CFA_XSP16, literal(-23)))
          CFI (cfiCond180) VB load(1, XDATA, add(CFA_XSP16, literal(-22)))
          CFI (cfiCond180) V0 load(1, XDATA, add(CFA_XSP16, literal(-21)))
          CFI (cfiCond180) V1 load(1, XDATA, add(CFA_XSP16, literal(-20)))
          CFI (cfiCond180) V2 load(1, XDATA, add(CFA_XSP16, literal(-19)))
          CFI (cfiCond180) V3 load(1, XDATA, add(CFA_XSP16, literal(-18)))
          CFI (cfiCond180) V4 load(1, XDATA, add(CFA_XSP16, literal(-17)))
          CFI (cfiCond180) V5 load(1, XDATA, add(CFA_XSP16, literal(-16)))
          CFI (cfiCond180) V6 load(1, XDATA, add(CFA_XSP16, literal(-15)))
          CFI (cfiCond180) V7 load(1, XDATA, add(CFA_XSP16, literal(-14)))
          CFI (cfiCond180) V8 load(1, XDATA, add(CFA_XSP16, literal(-13)))
          CFI (cfiCond180) V9 load(1, XDATA, add(CFA_XSP16, literal(-12)))
          CFI (cfiCond180) V10 load(1, XDATA, add(CFA_XSP16, literal(-11)))
          CFI (cfiCond180) V11 load(1, XDATA, add(CFA_XSP16, literal(-10)))
          CFI (cfiCond180) V12 load(1, XDATA, add(CFA_XSP16, literal(-9)))
          CFI (cfiCond180) V13 load(1, XDATA, add(CFA_XSP16, literal(-8)))
          CFI (cfiCond180) V14 load(1, XDATA, add(CFA_XSP16, literal(-7)))
          CFI (cfiCond180) R7 load(1, XDATA, add(CFA_XSP16, literal(-6)))
          CFI (cfiCond180) ?RET_LOW load(1, XDATA, add(CFA_XSP16, literal(-5)))
          CFI (cfiCond180) ?RET_HIGH load(1, XDATA, add(CFA_XSP16, literal(-4)))
          CFI (cfiCond180) ?BRET_EXT load(1, XDATA, add(CFA_XSP16, literal(-3)))
          CFI (cfiCond180) DPL0 load(1, XDATA, add(CFA_XSP16, literal(-2)))
          CFI (cfiCond180) DPH0 load(1, XDATA, add(CFA_XSP16, literal(-1)))
          CFI (cfiCond180) CFA_SP SP+0
          CFI (cfiCond180) CFA_XSP16 add(XSP16, 23)
          CFI Block cfiCond181 Using cfiCommon0
          CFI (cfiCond181) Function MT_AfIncomingMsg
          CFI (cfiCond181) Conditional ??CrossCallReturnLabel_123, ??CrossCallReturnLabel_112
          CFI (cfiCond181) R6 load(1, XDATA, add(CFA_XSP16, literal(-23)))
          CFI (cfiCond181) VB load(1, XDATA, add(CFA_XSP16, literal(-22)))
          CFI (cfiCond181) V0 load(1, XDATA, add(CFA_XSP16, literal(-21)))
          CFI (cfiCond181) V1 load(1, XDATA, add(CFA_XSP16, literal(-20)))
          CFI (cfiCond181) V2 load(1, XDATA, add(CFA_XSP16, literal(-19)))
          CFI (cfiCond181) V3 load(1, XDATA, add(CFA_XSP16, literal(-18)))
          CFI (cfiCond181) V4 load(1, XDATA, add(CFA_XSP16, literal(-17)))
          CFI (cfiCond181) V5 load(1, XDATA, add(CFA_XSP16, literal(-16)))
          CFI (cfiCond181) V6 load(1, XDATA, add(CFA_XSP16, literal(-15)))
          CFI (cfiCond181) V7 load(1, XDATA, add(CFA_XSP16, literal(-14)))
          CFI (cfiCond181) V8 load(1, XDATA, add(CFA_XSP16, literal(-13)))
          CFI (cfiCond181) V9 load(1, XDATA, add(CFA_XSP16, literal(-12)))
          CFI (cfiCond181) V10 load(1, XDATA, add(CFA_XSP16, literal(-11)))
          CFI (cfiCond181) V11 load(1, XDATA, add(CFA_XSP16, literal(-10)))
          CFI (cfiCond181) V12 load(1, XDATA, add(CFA_XSP16, literal(-9)))
          CFI (cfiCond181) V13 load(1, XDATA, add(CFA_XSP16, literal(-8)))
          CFI (cfiCond181) V14 load(1, XDATA, add(CFA_XSP16, literal(-7)))
          CFI (cfiCond181) R7 load(1, XDATA, add(CFA_XSP16, literal(-6)))
          CFI (cfiCond181) ?RET_LOW load(1, XDATA, add(CFA_XSP16, literal(-5)))
          CFI (cfiCond181) ?RET_HIGH load(1, XDATA, add(CFA_XSP16, literal(-4)))
          CFI (cfiCond181) ?BRET_EXT load(1, XDATA, add(CFA_XSP16, literal(-3)))
          CFI (cfiCond181) DPL0 load(1, XDATA, add(CFA_XSP16, literal(-2)))
          CFI (cfiCond181) DPH0 load(1, XDATA, add(CFA_XSP16, literal(-1)))
          CFI (cfiCond181) CFA_SP SP+0
          CFI (cfiCond181) CFA_XSP16 add(XSP16, 23)
          CFI Block cfiCond182 Using cfiCommon0
          CFI (cfiCond182) Function MT_AfIncomingMsg
          CFI (cfiCond182) Conditional ??CrossCallReturnLabel_123, ??CrossCallReturnLabel_113
          CFI (cfiCond182) R6 load(1, XDATA, add(CFA_XSP16, literal(-23)))
          CFI (cfiCond182) VB load(1, XDATA, add(CFA_XSP16, literal(-22)))
          CFI (cfiCond182) V0 load(1, XDATA, add(CFA_XSP16, literal(-21)))
          CFI (cfiCond182) V1 load(1, XDATA, add(CFA_XSP16, literal(-20)))
          CFI (cfiCond182) V2 load(1, XDATA, add(CFA_XSP16, literal(-19)))
          CFI (cfiCond182) V3 load(1, XDATA, add(CFA_XSP16, literal(-18)))
          CFI (cfiCond182) V4 load(1, XDATA, add(CFA_XSP16, literal(-17)))
          CFI (cfiCond182) V5 load(1, XDATA, add(CFA_XSP16, literal(-16)))
          CFI (cfiCond182) V6 load(1, XDATA, add(CFA_XSP16, literal(-15)))
          CFI (cfiCond182) V7 load(1, XDATA, add(CFA_XSP16, literal(-14)))
          CFI (cfiCond182) V8 load(1, XDATA, add(CFA_XSP16, literal(-13)))
          CFI (cfiCond182) V9 load(1, XDATA, add(CFA_XSP16, literal(-12)))
          CFI (cfiCond182) V10 load(1, XDATA, add(CFA_XSP16, literal(-11)))
          CFI (cfiCond182) V11 load(1, XDATA, add(CFA_XSP16, literal(-10)))
          CFI (cfiCond182) V12 load(1, XDATA, add(CFA_XSP16, literal(-9)))
          CFI (cfiCond182) V13 load(1, XDATA, add(CFA_XSP16, literal(-8)))
          CFI (cfiCond182) V14 load(1, XDATA, add(CFA_XSP16, literal(-7)))
          CFI (cfiCond182) R7 load(1, XDATA, add(CFA_XSP16, literal(-6)))
          CFI (cfiCond182) ?RET_LOW load(1, XDATA, add(CFA_XSP16, literal(-5)))
          CFI (cfiCond182) ?RET_HIGH load(1, XDATA, add(CFA_XSP16, literal(-4)))
          CFI (cfiCond182) ?BRET_EXT load(1, XDATA, add(CFA_XSP16, literal(-3)))
          CFI (cfiCond182) DPL0 load(1, XDATA, add(CFA_XSP16, literal(-2)))
          CFI (cfiCond182) DPH0 load(1, XDATA, add(CFA_XSP16, literal(-1)))
          CFI (cfiCond182) CFA_SP SP+0
          CFI (cfiCond182) CFA_XSP16 add(XSP16, 23)
          CFI Block cfiCond183 Using cfiCommon0
          CFI (cfiCond183) Function MT_AfIncomingMsg
          CFI (cfiCond183) Conditional ??CrossCallReturnLabel_123, ??CrossCallReturnLabel_114
          CFI (cfiCond183) R6 load(1, XDATA, add(CFA_XSP16, literal(-23)))
          CFI (cfiCond183) VB load(1, XDATA, add(CFA_XSP16, literal(-22)))
          CFI (cfiCond183) V0 load(1, XDATA, add(CFA_XSP16, literal(-21)))
          CFI (cfiCond183) V1 load(1, XDATA, add(CFA_XSP16, literal(-20)))
          CFI (cfiCond183) V2 load(1, XDATA, add(CFA_XSP16, literal(-19)))
          CFI (cfiCond183) V3 load(1, XDATA, add(CFA_XSP16, literal(-18)))
          CFI (cfiCond183) V4 load(1, XDATA, add(CFA_XSP16, literal(-17)))
          CFI (cfiCond183) V5 load(1, XDATA, add(CFA_XSP16, literal(-16)))
          CFI (cfiCond183) V6 load(1, XDATA, add(CFA_XSP16, literal(-15)))
          CFI (cfiCond183) V7 load(1, XDATA, add(CFA_XSP16, literal(-14)))
          CFI (cfiCond183) V8 load(1, XDATA, add(CFA_XSP16, literal(-13)))
          CFI (cfiCond183) V9 load(1, XDATA, add(CFA_XSP16, literal(-12)))
          CFI (cfiCond183) V10 load(1, XDATA, add(CFA_XSP16, literal(-11)))
          CFI (cfiCond183) V11 load(1, XDATA, add(CFA_XSP16, literal(-10)))
          CFI (cfiCond183) V12 load(1, XDATA, add(CFA_XSP16, literal(-9)))
          CFI (cfiCond183) V13 load(1, XDATA, add(CFA_XSP16, literal(-8)))
          CFI (cfiCond183) V14 load(1, XDATA, add(CFA_XSP16, literal(-7)))
          CFI (cfiCond183) R7 load(1, XDATA, add(CFA_XSP16, literal(-6)))
          CFI (cfiCond183) ?RET_LOW load(1, XDATA, add(CFA_XSP16, literal(-5)))
          CFI (cfiCond183) ?RET_HIGH load(1, XDATA, add(CFA_XSP16, literal(-4)))
          CFI (cfiCond183) ?BRET_EXT load(1, XDATA, add(CFA_XSP16, literal(-3)))
          CFI (cfiCond183) DPL0 load(1, XDATA, add(CFA_XSP16, literal(-2)))
          CFI (cfiCond183) DPH0 load(1, XDATA, add(CFA_XSP16, literal(-1)))
          CFI (cfiCond183) CFA_SP SP+0
          CFI (cfiCond183) CFA_XSP16 add(XSP16, 23)
          CFI Block cfiCond184 Using cfiCommon0
          CFI (cfiCond184) Function MT_AfIncomingMsg
          CFI (cfiCond184) Conditional ??CrossCallReturnLabel_123, ??CrossCallReturnLabel_115
          CFI (cfiCond184) R6 load(1, XDATA, add(CFA_XSP16, literal(-23)))
          CFI (cfiCond184) VB load(1, XDATA, add(CFA_XSP16, literal(-22)))
          CFI (cfiCond184) V0 load(1, XDATA, add(CFA_XSP16, literal(-21)))
          CFI (cfiCond184) V1 load(1, XDATA, add(CFA_XSP16, literal(-20)))
          CFI (cfiCond184) V2 load(1, XDATA, add(CFA_XSP16, literal(-19)))
          CFI (cfiCond184) V3 load(1, XDATA, add(CFA_XSP16, literal(-18)))
          CFI (cfiCond184) V4 load(1, XDATA, add(CFA_XSP16, literal(-17)))
          CFI (cfiCond184) V5 load(1, XDATA, add(CFA_XSP16, literal(-16)))
          CFI (cfiCond184) V6 load(1, XDATA, add(CFA_XSP16, literal(-15)))
          CFI (cfiCond184) V7 load(1, XDATA, add(CFA_XSP16, literal(-14)))
          CFI (cfiCond184) V8 load(1, XDATA, add(CFA_XSP16, literal(-13)))
          CFI (cfiCond184) V9 load(1, XDATA, add(CFA_XSP16, literal(-12)))
          CFI (cfiCond184) V10 load(1, XDATA, add(CFA_XSP16, literal(-11)))
          CFI (cfiCond184) V11 load(1, XDATA, add(CFA_XSP16, literal(-10)))
          CFI (cfiCond184) V12 load(1, XDATA, add(CFA_XSP16, literal(-9)))
          CFI (cfiCond184) V13 load(1, XDATA, add(CFA_XSP16, literal(-8)))
          CFI (cfiCond184) V14 load(1, XDATA, add(CFA_XSP16, literal(-7)))
          CFI (cfiCond184) R7 load(1, XDATA, add(CFA_XSP16, literal(-6)))
          CFI (cfiCond184) ?RET_LOW load(1, XDATA, add(CFA_XSP16, literal(-5)))
          CFI (cfiCond184) ?RET_HIGH load(1, XDATA, add(CFA_XSP16, literal(-4)))
          CFI (cfiCond184) ?BRET_EXT load(1, XDATA, add(CFA_XSP16, literal(-3)))
          CFI (cfiCond184) DPL0 load(1, XDATA, add(CFA_XSP16, literal(-2)))
          CFI (cfiCond184) DPH0 load(1, XDATA, add(CFA_XSP16, literal(-1)))
          CFI (cfiCond184) CFA_SP SP+0
          CFI (cfiCond184) CFA_XSP16 add(XSP16, 23)
          CFI Block cfiPicker185 Using cfiCommon1
          CFI (cfiPicker185) NoFunction
          CFI (cfiPicker185) Picker
        MOVX    @DPTR,A
        INC     DPTR
        MOV     ?V0 + 6,DPL
        MOV     ?V0 + 7,DPH
        RET
          CFI EndBlock cfiCond168
          CFI EndBlock cfiCond169
          CFI EndBlock cfiCond170
          CFI EndBlock cfiCond171
          CFI EndBlock cfiCond172
          CFI EndBlock cfiCond173
          CFI EndBlock cfiCond174
          CFI EndBlock cfiCond175
          CFI EndBlock cfiCond176
          CFI EndBlock cfiCond177
          CFI EndBlock cfiCond178
          CFI EndBlock cfiCond179
          CFI EndBlock cfiCond180
          CFI EndBlock cfiCond181
          CFI EndBlock cfiCond182
          CFI EndBlock cfiCond183
          CFI EndBlock cfiCond184
          CFI EndBlock cfiPicker185

        RSEG BANKED_CODE:CODE:NOROOT(0)
?Subroutine4:
          CFI Block cfiCond186 Using cfiCommon0
          CFI Function MT_AfIncomingMsg
          CFI Conditional ??CrossCallReturnLabel_0
          CFI R6 load(1, XDATA, add(CFA_XSP16, literal(-23)))
          CFI VB load(1, XDATA, add(CFA_XSP16, literal(-22)))
          CFI V0 load(1, XDATA, add(CFA_XSP16, literal(-21)))
          CFI V1 load(1, XDATA, add(CFA_XSP16, literal(-20)))
          CFI V2 load(1, XDATA, add(CFA_XSP16, literal(-19)))
          CFI V3 load(1, XDATA, add(CFA_XSP16, literal(-18)))
          CFI V4 load(1, XDATA, add(CFA_XSP16, literal(-17)))
          CFI V5 load(1, XDATA, add(CFA_XSP16, literal(-16)))
          CFI V6 load(1, XDATA, add(CFA_XSP16, literal(-15)))
          CFI V7 load(1, XDATA, add(CFA_XSP16, literal(-14)))
          CFI V8 load(1, XDATA, add(CFA_XSP16, literal(-13)))
          CFI V9 load(1, XDATA, add(CFA_XSP16, literal(-12)))
          CFI V10 load(1, XDATA, add(CFA_XSP16, literal(-11)))
          CFI V11 load(1, XDATA, add(CFA_XSP16, literal(-10)))
          CFI V12 load(1, XDATA, add(CFA_XSP16, literal(-9)))
          CFI V13 load(1, XDATA, add(CFA_XSP16, literal(-8)))
          CFI V14 load(1, XDATA, add(CFA_XSP16, literal(-7)))
          CFI R7 load(1, XDATA, add(CFA_XSP16, literal(-6)))
          CFI ?RET_LOW load(1, XDATA, add(CFA_XSP16, literal(-5)))
          CFI ?RET_HIGH load(1, XDATA, add(CFA_XSP16, literal(-4)))
          CFI ?BRET_EXT load(1, XDATA, add(CFA_XSP16, literal(-3)))
          CFI DPL0 load(1, XDATA, add(CFA_XSP16, literal(-2)))
          CFI DPH0 load(1, XDATA, add(CFA_XSP16, literal(-1)))
          CFI CFA_SP SP+0
          CFI CFA_XSP16 add(XSP16, 23)
          CFI Block cfiCond187 Using cfiCommon0
          CFI (cfiCond187) Function MT_AfIncomingMsg
          CFI (cfiCond187) Conditional ??CrossCallReturnLabel_1
          CFI (cfiCond187) R6 load(1, XDATA, add(CFA_XSP16, literal(-23)))
          CFI (cfiCond187) VB load(1, XDATA, add(CFA_XSP16, literal(-22)))
          CFI (cfiCond187) V0 load(1, XDATA, add(CFA_XSP16, literal(-21)))
          CFI (cfiCond187) V1 load(1, XDATA, add(CFA_XSP16, literal(-20)))
          CFI (cfiCond187) V2 load(1, XDATA, add(CFA_XSP16, literal(-19)))
          CFI (cfiCond187) V3 load(1, XDATA, add(CFA_XSP16, literal(-18)))
          CFI (cfiCond187) V4 load(1, XDATA, add(CFA_XSP16, literal(-17)))
          CFI (cfiCond187) V5 load(1, XDATA, add(CFA_XSP16, literal(-16)))
          CFI (cfiCond187) V6 load(1, XDATA, add(CFA_XSP16, literal(-15)))
          CFI (cfiCond187) V7 load(1, XDATA, add(CFA_XSP16, literal(-14)))
          CFI (cfiCond187) V8 load(1, XDATA, add(CFA_XSP16, literal(-13)))
          CFI (cfiCond187) V9 load(1, XDATA, add(CFA_XSP16, literal(-12)))
          CFI (cfiCond187) V10 load(1, XDATA, add(CFA_XSP16, literal(-11)))
          CFI (cfiCond187) V11 load(1, XDATA, add(CFA_XSP16, literal(-10)))
          CFI (cfiCond187) V12 load(1, XDATA, add(CFA_XSP16, literal(-9)))
          CFI (cfiCond187) V13 load(1, XDATA, add(CFA_XSP16, literal(-8)))
          CFI (cfiCond187) V14 load(1, XDATA, add(CFA_XSP16, literal(-7)))
          CFI (cfiCond187) R7 load(1, XDATA, add(CFA_XSP16, literal(-6)))
          CFI (cfiCond187) ?RET_LOW load(1, XDATA, add(CFA_XSP16, literal(-5)))
          CFI (cfiCond187) ?RET_HIGH load(1, XDATA, add(CFA_XSP16, literal(-4)))
          CFI (cfiCond187) ?BRET_EXT load(1, XDATA, add(CFA_XSP16, literal(-3)))
          CFI (cfiCond187) DPL0 load(1, XDATA, add(CFA_XSP16, literal(-2)))
          CFI (cfiCond187) DPH0 load(1, XDATA, add(CFA_XSP16, literal(-1)))
          CFI (cfiCond187) CFA_SP SP+0
          CFI (cfiCond187) CFA_XSP16 add(XSP16, 23)
          CFI Block cfiPicker188 Using cfiCommon1
          CFI (cfiPicker188) NoFunction
          CFI (cfiPicker188) Picker
        MOV     R0,A
        MOV     A,?V0 + 3
        ADDC    A,#0x0
        MOV     R1,A
        MOV     DPL,R0
        MOV     DPH,R1
        LCALL   ?Subroutine38 & 0xFFFF
??CrossCallReturnLabel_121:
        MOV     DPL,R0
        MOV     DPH,R1
        INC     DPTR
        RET
          CFI EndBlock cfiCond186
          CFI EndBlock cfiCond187
          CFI EndBlock cfiPicker188

        RSEG BANKED_CODE:CODE:NOROOT(0)
?Subroutine2:
          CFI Block cfiCond189 Using cfiCommon0
          CFI Function MT_AfIncomingMsg
          CFI Conditional ??CrossCallReturnLabel_110
          CFI R6 load(1, XDATA, add(CFA_XSP16, literal(-23)))
          CFI VB load(1, XDATA, add(CFA_XSP16, literal(-22)))
          CFI V0 load(1, XDATA, add(CFA_XSP16, literal(-21)))
          CFI V1 load(1, XDATA, add(CFA_XSP16, literal(-20)))
          CFI V2 load(1, XDATA, add(CFA_XSP16, literal(-19)))
          CFI V3 load(1, XDATA, add(CFA_XSP16, literal(-18)))
          CFI V4 load(1, XDATA, add(CFA_XSP16, literal(-17)))
          CFI V5 load(1, XDATA, add(CFA_XSP16, literal(-16)))
          CFI V6 load(1, XDATA, add(CFA_XSP16, literal(-15)))
          CFI V7 load(1, XDATA, add(CFA_XSP16, literal(-14)))
          CFI V8 load(1, XDATA, add(CFA_XSP16, literal(-13)))
          CFI V9 load(1, XDATA, add(CFA_XSP16, literal(-12)))
          CFI V10 load(1, XDATA, add(CFA_XSP16, literal(-11)))
          CFI V11 load(1, XDATA, add(CFA_XSP16, literal(-10)))
          CFI V12 load(1, XDATA, add(CFA_XSP16, literal(-9)))
          CFI V13 load(1, XDATA, add(CFA_XSP16, literal(-8)))
          CFI V14 load(1, XDATA, add(CFA_XSP16, literal(-7)))
          CFI R7 load(1, XDATA, add(CFA_XSP16, literal(-6)))
          CFI ?RET_LOW load(1, XDATA, add(CFA_XSP16, literal(-5)))
          CFI ?RET_HIGH load(1, XDATA, add(CFA_XSP16, literal(-4)))
          CFI ?BRET_EXT load(1, XDATA, add(CFA_XSP16, literal(-3)))
          CFI DPL0 load(1, XDATA, add(CFA_XSP16, literal(-2)))
          CFI DPH0 load(1, XDATA, add(CFA_XSP16, literal(-1)))
          CFI CFA_SP SP+0
          CFI CFA_XSP16 add(XSP16, 23)
          CFI Block cfiCond190 Using cfiCommon0
          CFI (cfiCond190) Function MT_AfIncomingMsg
          CFI (cfiCond190) Conditional ??CrossCallReturnLabel_111
          CFI (cfiCond190) R6 load(1, XDATA, add(CFA_XSP16, literal(-23)))
          CFI (cfiCond190) VB load(1, XDATA, add(CFA_XSP16, literal(-22)))
          CFI (cfiCond190) V0 load(1, XDATA, add(CFA_XSP16, literal(-21)))
          CFI (cfiCond190) V1 load(1, XDATA, add(CFA_XSP16, literal(-20)))
          CFI (cfiCond190) V2 load(1, XDATA, add(CFA_XSP16, literal(-19)))
          CFI (cfiCond190) V3 load(1, XDATA, add(CFA_XSP16, literal(-18)))
          CFI (cfiCond190) V4 load(1, XDATA, add(CFA_XSP16, literal(-17)))
          CFI (cfiCond190) V5 load(1, XDATA, add(CFA_XSP16, literal(-16)))
          CFI (cfiCond190) V6 load(1, XDATA, add(CFA_XSP16, literal(-15)))
          CFI (cfiCond190) V7 load(1, XDATA, add(CFA_XSP16, literal(-14)))
          CFI (cfiCond190) V8 load(1, XDATA, add(CFA_XSP16, literal(-13)))
          CFI (cfiCond190) V9 load(1, XDATA, add(CFA_XSP16, literal(-12)))
          CFI (cfiCond190) V10 load(1, XDATA, add(CFA_XSP16, literal(-11)))
          CFI (cfiCond190) V11 load(1, XDATA, add(CFA_XSP16, literal(-10)))
          CFI (cfiCond190) V12 load(1, XDATA, add(CFA_XSP16, literal(-9)))
          CFI (cfiCond190) V13 load(1, XDATA, add(CFA_XSP16, literal(-8)))
          CFI (cfiCond190) V14 load(1, XDATA, add(CFA_XSP16, literal(-7)))
          CFI (cfiCond190) R7 load(1, XDATA, add(CFA_XSP16, literal(-6)))
          CFI (cfiCond190) ?RET_LOW load(1, XDATA, add(CFA_XSP16, literal(-5)))
          CFI (cfiCond190) ?RET_HIGH load(1, XDATA, add(CFA_XSP16, literal(-4)))
          CFI (cfiCond190) ?BRET_EXT load(1, XDATA, add(CFA_XSP16, literal(-3)))
          CFI (cfiCond190) DPL0 load(1, XDATA, add(CFA_XSP16, literal(-2)))
          CFI (cfiCond190) DPH0 load(1, XDATA, add(CFA_XSP16, literal(-1)))
          CFI (cfiCond190) CFA_SP SP+0
          CFI (cfiCond190) CFA_XSP16 add(XSP16, 23)
          CFI Block cfiCond191 Using cfiCommon0
          CFI (cfiCond191) Function MT_AfIncomingMsg
          CFI (cfiCond191) Conditional ??CrossCallReturnLabel_112
          CFI (cfiCond191) R6 load(1, XDATA, add(CFA_XSP16, literal(-23)))
          CFI (cfiCond191) VB load(1, XDATA, add(CFA_XSP16, literal(-22)))
          CFI (cfiCond191) V0 load(1, XDATA, add(CFA_XSP16, literal(-21)))
          CFI (cfiCond191) V1 load(1, XDATA, add(CFA_XSP16, literal(-20)))
          CFI (cfiCond191) V2 load(1, XDATA, add(CFA_XSP16, literal(-19)))
          CFI (cfiCond191) V3 load(1, XDATA, add(CFA_XSP16, literal(-18)))
          CFI (cfiCond191) V4 load(1, XDATA, add(CFA_XSP16, literal(-17)))
          CFI (cfiCond191) V5 load(1, XDATA, add(CFA_XSP16, literal(-16)))
          CFI (cfiCond191) V6 load(1, XDATA, add(CFA_XSP16, literal(-15)))
          CFI (cfiCond191) V7 load(1, XDATA, add(CFA_XSP16, literal(-14)))
          CFI (cfiCond191) V8 load(1, XDATA, add(CFA_XSP16, literal(-13)))
          CFI (cfiCond191) V9 load(1, XDATA, add(CFA_XSP16, literal(-12)))
          CFI (cfiCond191) V10 load(1, XDATA, add(CFA_XSP16, literal(-11)))
          CFI (cfiCond191) V11 load(1, XDATA, add(CFA_XSP16, literal(-10)))
          CFI (cfiCond191) V12 load(1, XDATA, add(CFA_XSP16, literal(-9)))
          CFI (cfiCond191) V13 load(1, XDATA, add(CFA_XSP16, literal(-8)))
          CFI (cfiCond191) V14 load(1, XDATA, add(CFA_XSP16, literal(-7)))
          CFI (cfiCond191) R7 load(1, XDATA, add(CFA_XSP16, literal(-6)))
          CFI (cfiCond191) ?RET_LOW load(1, XDATA, add(CFA_XSP16, literal(-5)))
          CFI (cfiCond191) ?RET_HIGH load(1, XDATA, add(CFA_XSP16, literal(-4)))
          CFI (cfiCond191) ?BRET_EXT load(1, XDATA, add(CFA_XSP16, literal(-3)))
          CFI (cfiCond191) DPL0 load(1, XDATA, add(CFA_XSP16, literal(-2)))
          CFI (cfiCond191) DPH0 load(1, XDATA, add(CFA_XSP16, literal(-1)))
          CFI (cfiCond191) CFA_SP SP+0
          CFI (cfiCond191) CFA_XSP16 add(XSP16, 23)
          CFI Block cfiCond192 Using cfiCommon0
          CFI (cfiCond192) Function MT_AfIncomingMsg
          CFI (cfiCond192) Conditional ??CrossCallReturnLabel_113
          CFI (cfiCond192) R6 load(1, XDATA, add(CFA_XSP16, literal(-23)))
          CFI (cfiCond192) VB load(1, XDATA, add(CFA_XSP16, literal(-22)))
          CFI (cfiCond192) V0 load(1, XDATA, add(CFA_XSP16, literal(-21)))
          CFI (cfiCond192) V1 load(1, XDATA, add(CFA_XSP16, literal(-20)))
          CFI (cfiCond192) V2 load(1, XDATA, add(CFA_XSP16, literal(-19)))
          CFI (cfiCond192) V3 load(1, XDATA, add(CFA_XSP16, literal(-18)))
          CFI (cfiCond192) V4 load(1, XDATA, add(CFA_XSP16, literal(-17)))
          CFI (cfiCond192) V5 load(1, XDATA, add(CFA_XSP16, literal(-16)))
          CFI (cfiCond192) V6 load(1, XDATA, add(CFA_XSP16, literal(-15)))
          CFI (cfiCond192) V7 load(1, XDATA, add(CFA_XSP16, literal(-14)))
          CFI (cfiCond192) V8 load(1, XDATA, add(CFA_XSP16, literal(-13)))
          CFI (cfiCond192) V9 load(1, XDATA, add(CFA_XSP16, literal(-12)))
          CFI (cfiCond192) V10 load(1, XDATA, add(CFA_XSP16, literal(-11)))
          CFI (cfiCond192) V11 load(1, XDATA, add(CFA_XSP16, literal(-10)))
          CFI (cfiCond192) V12 load(1, XDATA, add(CFA_XSP16, literal(-9)))
          CFI (cfiCond192) V13 load(1, XDATA, add(CFA_XSP16, literal(-8)))
          CFI (cfiCond192) V14 load(1, XDATA, add(CFA_XSP16, literal(-7)))
          CFI (cfiCond192) R7 load(1, XDATA, add(CFA_XSP16, literal(-6)))
          CFI (cfiCond192) ?RET_LOW load(1, XDATA, add(CFA_XSP16, literal(-5)))
          CFI (cfiCond192) ?RET_HIGH load(1, XDATA, add(CFA_XSP16, literal(-4)))
          CFI (cfiCond192) ?BRET_EXT load(1, XDATA, add(CFA_XSP16, literal(-3)))
          CFI (cfiCond192) DPL0 load(1, XDATA, add(CFA_XSP16, literal(-2)))
          CFI (cfiCond192) DPH0 load(1, XDATA, add(CFA_XSP16, literal(-1)))
          CFI (cfiCond192) CFA_SP SP+0
          CFI (cfiCond192) CFA_XSP16 add(XSP16, 23)
          CFI Block cfiPicker193 Using cfiCommon1
          CFI (cfiPicker193) NoFunction
          CFI (cfiPicker193) Picker
        MOV     DPL,A
        MOV     A,?V0 + 3
        LCALL   ??Subroutine55_0 & 0xFFFF
          CFI EndBlock cfiCond189
          CFI EndBlock cfiCond190
          CFI EndBlock cfiCond191
          CFI EndBlock cfiCond192
          CFI EndBlock cfiPicker193
??CrossCallReturnLabel_131:
        REQUIRE ??Subroutine53_0
        ; // Fall through to label ??Subroutine53_0

        RSEG BANKED_CODE:CODE:NOROOT(0)
??Subroutine53_0:
          CFI Block cfiCond194 Using cfiCommon0
          CFI Function MT_AfIncomingMsg
          CFI Conditional ??CrossCallReturnLabel_114
          CFI R6 load(1, XDATA, add(CFA_XSP16, literal(-23)))
          CFI VB load(1, XDATA, add(CFA_XSP16, literal(-22)))
          CFI V0 load(1, XDATA, add(CFA_XSP16, literal(-21)))
          CFI V1 load(1, XDATA, add(CFA_XSP16, literal(-20)))
          CFI V2 load(1, XDATA, add(CFA_XSP16, literal(-19)))
          CFI V3 load(1, XDATA, add(CFA_XSP16, literal(-18)))
          CFI V4 load(1, XDATA, add(CFA_XSP16, literal(-17)))
          CFI V5 load(1, XDATA, add(CFA_XSP16, literal(-16)))
          CFI V6 load(1, XDATA, add(CFA_XSP16, literal(-15)))
          CFI V7 load(1, XDATA, add(CFA_XSP16, literal(-14)))
          CFI V8 load(1, XDATA, add(CFA_XSP16, literal(-13)))
          CFI V9 load(1, XDATA, add(CFA_XSP16, literal(-12)))
          CFI V10 load(1, XDATA, add(CFA_XSP16, literal(-11)))
          CFI V11 load(1, XDATA, add(CFA_XSP16, literal(-10)))
          CFI V12 load(1, XDATA, add(CFA_XSP16, literal(-9)))
          CFI V13 load(1, XDATA, add(CFA_XSP16, literal(-8)))
          CFI V14 load(1, XDATA, add(CFA_XSP16, literal(-7)))
          CFI R7 load(1, XDATA, add(CFA_XSP16, literal(-6)))
          CFI ?RET_LOW load(1, XDATA, add(CFA_XSP16, literal(-5)))
          CFI ?RET_HIGH load(1, XDATA, add(CFA_XSP16, literal(-4)))
          CFI ?BRET_EXT load(1, XDATA, add(CFA_XSP16, literal(-3)))
          CFI DPL0 load(1, XDATA, add(CFA_XSP16, literal(-2)))
          CFI DPH0 load(1, XDATA, add(CFA_XSP16, literal(-1)))
          CFI CFA_SP SP+0
          CFI CFA_XSP16 add(XSP16, 23)
          CFI Block cfiCond195 Using cfiCommon0
          CFI (cfiCond195) Function MT_AfIncomingMsg
          CFI (cfiCond195) Conditional ??CrossCallReturnLabel_115
          CFI (cfiCond195) R6 load(1, XDATA, add(CFA_XSP16, literal(-23)))
          CFI (cfiCond195) VB load(1, XDATA, add(CFA_XSP16, literal(-22)))
          CFI (cfiCond195) V0 load(1, XDATA, add(CFA_XSP16, literal(-21)))
          CFI (cfiCond195) V1 load(1, XDATA, add(CFA_XSP16, literal(-20)))
          CFI (cfiCond195) V2 load(1, XDATA, add(CFA_XSP16, literal(-19)))
          CFI (cfiCond195) V3 load(1, XDATA, add(CFA_XSP16, literal(-18)))
          CFI (cfiCond195) V4 load(1, XDATA, add(CFA_XSP16, literal(-17)))
          CFI (cfiCond195) V5 load(1, XDATA, add(CFA_XSP16, literal(-16)))
          CFI (cfiCond195) V6 load(1, XDATA, add(CFA_XSP16, literal(-15)))
          CFI (cfiCond195) V7 load(1, XDATA, add(CFA_XSP16, literal(-14)))
          CFI (cfiCond195) V8 load(1, XDATA, add(CFA_XSP16, literal(-13)))
          CFI (cfiCond195) V9 load(1, XDATA, add(CFA_XSP16, literal(-12)))
          CFI (cfiCond195) V10 load(1, XDATA, add(CFA_XSP16, literal(-11)))
          CFI (cfiCond195) V11 load(1, XDATA, add(CFA_XSP16, literal(-10)))
          CFI (cfiCond195) V12 load(1, XDATA, add(CFA_XSP16, literal(-9)))
          CFI (cfiCond195) V13 load(1, XDATA, add(CFA_XSP16, literal(-8)))
          CFI (cfiCond195) V14 load(1, XDATA, add(CFA_XSP16, literal(-7)))
          CFI (cfiCond195) R7 load(1, XDATA, add(CFA_XSP16, literal(-6)))
          CFI (cfiCond195) ?RET_LOW load(1, XDATA, add(CFA_XSP16, literal(-5)))
          CFI (cfiCond195) ?RET_HIGH load(1, XDATA, add(CFA_XSP16, literal(-4)))
          CFI (cfiCond195) ?BRET_EXT load(1, XDATA, add(CFA_XSP16, literal(-3)))
          CFI (cfiCond195) DPL0 load(1, XDATA, add(CFA_XSP16, literal(-2)))
          CFI (cfiCond195) DPH0 load(1, XDATA, add(CFA_XSP16, literal(-1)))
          CFI (cfiCond195) CFA_SP SP+0
          CFI (cfiCond195) CFA_XSP16 add(XSP16, 23)
          CFI Block cfiCond196 Using cfiCommon0
          CFI (cfiCond196) Function MT_AfIncomingMsg
          CFI (cfiCond196) Conditional ??CrossCallReturnLabel_110
          CFI (cfiCond196) R6 load(1, XDATA, add(CFA_XSP16, literal(-23)))
          CFI (cfiCond196) VB load(1, XDATA, add(CFA_XSP16, literal(-22)))
          CFI (cfiCond196) V0 load(1, XDATA, add(CFA_XSP16, literal(-21)))
          CFI (cfiCond196) V1 load(1, XDATA, add(CFA_XSP16, literal(-20)))
          CFI (cfiCond196) V2 load(1, XDATA, add(CFA_XSP16, literal(-19)))
          CFI (cfiCond196) V3 load(1, XDATA, add(CFA_XSP16, literal(-18)))
          CFI (cfiCond196) V4 load(1, XDATA, add(CFA_XSP16, literal(-17)))
          CFI (cfiCond196) V5 load(1, XDATA, add(CFA_XSP16, literal(-16)))
          CFI (cfiCond196) V6 load(1, XDATA, add(CFA_XSP16, literal(-15)))
          CFI (cfiCond196) V7 load(1, XDATA, add(CFA_XSP16, literal(-14)))
          CFI (cfiCond196) V8 load(1, XDATA, add(CFA_XSP16, literal(-13)))
          CFI (cfiCond196) V9 load(1, XDATA, add(CFA_XSP16, literal(-12)))
          CFI (cfiCond196) V10 load(1, XDATA, add(CFA_XSP16, literal(-11)))
          CFI (cfiCond196) V11 load(1, XDATA, add(CFA_XSP16, literal(-10)))
          CFI (cfiCond196) V12 load(1, XDATA, add(CFA_XSP16, literal(-9)))
          CFI (cfiCond196) V13 load(1, XDATA, add(CFA_XSP16, literal(-8)))
          CFI (cfiCond196) V14 load(1, XDATA, add(CFA_XSP16, literal(-7)))
          CFI (cfiCond196) R7 load(1, XDATA, add(CFA_XSP16, literal(-6)))
          CFI (cfiCond196) ?RET_LOW load(1, XDATA, add(CFA_XSP16, literal(-5)))
          CFI (cfiCond196) ?RET_HIGH load(1, XDATA, add(CFA_XSP16, literal(-4)))
          CFI (cfiCond196) ?BRET_EXT load(1, XDATA, add(CFA_XSP16, literal(-3)))
          CFI (cfiCond196) DPL0 load(1, XDATA, add(CFA_XSP16, literal(-2)))
          CFI (cfiCond196) DPH0 load(1, XDATA, add(CFA_XSP16, literal(-1)))
          CFI (cfiCond196) CFA_SP SP+0
          CFI (cfiCond196) CFA_XSP16 add(XSP16, 23)
          CFI Block cfiCond197 Using cfiCommon0
          CFI (cfiCond197) Function MT_AfIncomingMsg
          CFI (cfiCond197) Conditional ??CrossCallReturnLabel_111
          CFI (cfiCond197) R6 load(1, XDATA, add(CFA_XSP16, literal(-23)))
          CFI (cfiCond197) VB load(1, XDATA, add(CFA_XSP16, literal(-22)))
          CFI (cfiCond197) V0 load(1, XDATA, add(CFA_XSP16, literal(-21)))
          CFI (cfiCond197) V1 load(1, XDATA, add(CFA_XSP16, literal(-20)))
          CFI (cfiCond197) V2 load(1, XDATA, add(CFA_XSP16, literal(-19)))
          CFI (cfiCond197) V3 load(1, XDATA, add(CFA_XSP16, literal(-18)))
          CFI (cfiCond197) V4 load(1, XDATA, add(CFA_XSP16, literal(-17)))
          CFI (cfiCond197) V5 load(1, XDATA, add(CFA_XSP16, literal(-16)))
          CFI (cfiCond197) V6 load(1, XDATA, add(CFA_XSP16, literal(-15)))
          CFI (cfiCond197) V7 load(1, XDATA, add(CFA_XSP16, literal(-14)))
          CFI (cfiCond197) V8 load(1, XDATA, add(CFA_XSP16, literal(-13)))
          CFI (cfiCond197) V9 load(1, XDATA, add(CFA_XSP16, literal(-12)))
          CFI (cfiCond197) V10 load(1, XDATA, add(CFA_XSP16, literal(-11)))
          CFI (cfiCond197) V11 load(1, XDATA, add(CFA_XSP16, literal(-10)))
          CFI (cfiCond197) V12 load(1, XDATA, add(CFA_XSP16, literal(-9)))
          CFI (cfiCond197) V13 load(1, XDATA, add(CFA_XSP16, literal(-8)))
          CFI (cfiCond197) V14 load(1, XDATA, add(CFA_XSP16, literal(-7)))
          CFI (cfiCond197) R7 load(1, XDATA, add(CFA_XSP16, literal(-6)))
          CFI (cfiCond197) ?RET_LOW load(1, XDATA, add(CFA_XSP16, literal(-5)))
          CFI (cfiCond197) ?RET_HIGH load(1, XDATA, add(CFA_XSP16, literal(-4)))
          CFI (cfiCond197) ?BRET_EXT load(1, XDATA, add(CFA_XSP16, literal(-3)))
          CFI (cfiCond197) DPL0 load(1, XDATA, add(CFA_XSP16, literal(-2)))
          CFI (cfiCond197) DPH0 load(1, XDATA, add(CFA_XSP16, literal(-1)))
          CFI (cfiCond197) CFA_SP SP+0
          CFI (cfiCond197) CFA_XSP16 add(XSP16, 23)
          CFI Block cfiCond198 Using cfiCommon0
          CFI (cfiCond198) Function MT_AfIncomingMsg
          CFI (cfiCond198) Conditional ??CrossCallReturnLabel_112
          CFI (cfiCond198) R6 load(1, XDATA, add(CFA_XSP16, literal(-23)))
          CFI (cfiCond198) VB load(1, XDATA, add(CFA_XSP16, literal(-22)))
          CFI (cfiCond198) V0 load(1, XDATA, add(CFA_XSP16, literal(-21)))
          CFI (cfiCond198) V1 load(1, XDATA, add(CFA_XSP16, literal(-20)))
          CFI (cfiCond198) V2 load(1, XDATA, add(CFA_XSP16, literal(-19)))
          CFI (cfiCond198) V3 load(1, XDATA, add(CFA_XSP16, literal(-18)))
          CFI (cfiCond198) V4 load(1, XDATA, add(CFA_XSP16, literal(-17)))
          CFI (cfiCond198) V5 load(1, XDATA, add(CFA_XSP16, literal(-16)))
          CFI (cfiCond198) V6 load(1, XDATA, add(CFA_XSP16, literal(-15)))
          CFI (cfiCond198) V7 load(1, XDATA, add(CFA_XSP16, literal(-14)))
          CFI (cfiCond198) V8 load(1, XDATA, add(CFA_XSP16, literal(-13)))
          CFI (cfiCond198) V9 load(1, XDATA, add(CFA_XSP16, literal(-12)))
          CFI (cfiCond198) V10 load(1, XDATA, add(CFA_XSP16, literal(-11)))
          CFI (cfiCond198) V11 load(1, XDATA, add(CFA_XSP16, literal(-10)))
          CFI (cfiCond198) V12 load(1, XDATA, add(CFA_XSP16, literal(-9)))
          CFI (cfiCond198) V13 load(1, XDATA, add(CFA_XSP16, literal(-8)))
          CFI (cfiCond198) V14 load(1, XDATA, add(CFA_XSP16, literal(-7)))
          CFI (cfiCond198) R7 load(1, XDATA, add(CFA_XSP16, literal(-6)))
          CFI (cfiCond198) ?RET_LOW load(1, XDATA, add(CFA_XSP16, literal(-5)))
          CFI (cfiCond198) ?RET_HIGH load(1, XDATA, add(CFA_XSP16, literal(-4)))
          CFI (cfiCond198) ?BRET_EXT load(1, XDATA, add(CFA_XSP16, literal(-3)))
          CFI (cfiCond198) DPL0 load(1, XDATA, add(CFA_XSP16, literal(-2)))
          CFI (cfiCond198) DPH0 load(1, XDATA, add(CFA_XSP16, literal(-1)))
          CFI (cfiCond198) CFA_SP SP+0
          CFI (cfiCond198) CFA_XSP16 add(XSP16, 23)
          CFI Block cfiCond199 Using cfiCommon0
          CFI (cfiCond199) Function MT_AfIncomingMsg
          CFI (cfiCond199) Conditional ??CrossCallReturnLabel_113
          CFI (cfiCond199) R6 load(1, XDATA, add(CFA_XSP16, literal(-23)))
          CFI (cfiCond199) VB load(1, XDATA, add(CFA_XSP16, literal(-22)))
          CFI (cfiCond199) V0 load(1, XDATA, add(CFA_XSP16, literal(-21)))
          CFI (cfiCond199) V1 load(1, XDATA, add(CFA_XSP16, literal(-20)))
          CFI (cfiCond199) V2 load(1, XDATA, add(CFA_XSP16, literal(-19)))
          CFI (cfiCond199) V3 load(1, XDATA, add(CFA_XSP16, literal(-18)))
          CFI (cfiCond199) V4 load(1, XDATA, add(CFA_XSP16, literal(-17)))
          CFI (cfiCond199) V5 load(1, XDATA, add(CFA_XSP16, literal(-16)))
          CFI (cfiCond199) V6 load(1, XDATA, add(CFA_XSP16, literal(-15)))
          CFI (cfiCond199) V7 load(1, XDATA, add(CFA_XSP16, literal(-14)))
          CFI (cfiCond199) V8 load(1, XDATA, add(CFA_XSP16, literal(-13)))
          CFI (cfiCond199) V9 load(1, XDATA, add(CFA_XSP16, literal(-12)))
          CFI (cfiCond199) V10 load(1, XDATA, add(CFA_XSP16, literal(-11)))
          CFI (cfiCond199) V11 load(1, XDATA, add(CFA_XSP16, literal(-10)))
          CFI (cfiCond199) V12 load(1, XDATA, add(CFA_XSP16, literal(-9)))
          CFI (cfiCond199) V13 load(1, XDATA, add(CFA_XSP16, literal(-8)))
          CFI (cfiCond199) V14 load(1, XDATA, add(CFA_XSP16, literal(-7)))
          CFI (cfiCond199) R7 load(1, XDATA, add(CFA_XSP16, literal(-6)))
          CFI (cfiCond199) ?RET_LOW load(1, XDATA, add(CFA_XSP16, literal(-5)))
          CFI (cfiCond199) ?RET_HIGH load(1, XDATA, add(CFA_XSP16, literal(-4)))
          CFI (cfiCond199) ?BRET_EXT load(1, XDATA, add(CFA_XSP16, literal(-3)))
          CFI (cfiCond199) DPL0 load(1, XDATA, add(CFA_XSP16, literal(-2)))
          CFI (cfiCond199) DPH0 load(1, XDATA, add(CFA_XSP16, literal(-1)))
          CFI (cfiCond199) CFA_SP SP+0
          CFI (cfiCond199) CFA_XSP16 add(XSP16, 23)
          CFI Block cfiPicker200 Using cfiCommon1
          CFI (cfiPicker200) NoFunction
          CFI (cfiPicker200) Picker
        LCALL   ?Subroutine38 & 0xFFFF
??CrossCallReturnLabel_123:
        MOV     A,?V0 + 2
        RET
          CFI EndBlock cfiCond194
          CFI EndBlock cfiCond195
          CFI EndBlock cfiCond196
          CFI EndBlock cfiCond197
          CFI EndBlock cfiCond198
          CFI EndBlock cfiCond199
          CFI EndBlock cfiPicker200
//  758 
//  759 /**************************************************************************************************
//  760  * @fn          MT_AfDataRetrieve
//  761  *
//  762  * @brief   Process AF Data Retrieve command to incrementally read out a very large
//  763  *          incoming AF message.
//  764  *
//  765  * input parameters
//  766  *
//  767  * @param pBuf - pointer to the received buffer
//  768  *
//  769  * output parameters
//  770  *
//  771  * @param rtrn - AF-Status of the operation.
//  772  *
//  773  * @return      None.
//  774  **************************************************************************************************
//  775  */

        RSEG BANKED_CODE:CODE:NOROOT(0)
//  776 void MT_AfDataRetrieve(uint8 *pBuf)
MT_AfDataRetrieve:
          CFI Block cfiBlock201 Using cfiCommon0
          CFI Function MT_AfDataRetrieve
        CODE
//  777 {
        FUNCALL MT_AfDataRetrieve, osal_mem_free
        LOCFRAME ISTACK, 0, STACK
        LOCFRAME PSTACK, 0, STACK
        LOCFRAME XSTACK, 24, STACK
        LOCFRAME IOVERLAY, 0, STATIC
        LOCFRAME DOVERLAY, 0, STATIC
        ARGFRAME ISTACK, 0, STACK
        ARGFRAME PSTACK, 0, STACK
        ARGFRAME XSTACK, 24, STACK
        ARGFRAME IOVERLAY, 0, STATIC
        ARGFRAME DOVERLAY, 0, STATIC
        FUNCALL MT_AfDataRetrieve, MT_BuildAndSendZToolResponse
        LOCFRAME ISTACK, 0, STACK
        LOCFRAME PSTACK, 0, STACK
        LOCFRAME XSTACK, 24, STACK
        LOCFRAME IOVERLAY, 0, STATIC
        LOCFRAME DOVERLAY, 0, STATIC
        ARGFRAME ISTACK, 0, STACK
        ARGFRAME PSTACK, 0, STACK
        ARGFRAME XSTACK, 24, STACK
        ARGFRAME IOVERLAY, 0, STATIC
        ARGFRAME DOVERLAY, 0, STATIC
        FUNCALL MT_AfDataRetrieve, osal_mem_alloc
        LOCFRAME ISTACK, 0, STACK
        LOCFRAME PSTACK, 0, STACK
        LOCFRAME XSTACK, 24, STACK
        LOCFRAME IOVERLAY, 0, STATIC
        LOCFRAME DOVERLAY, 0, STATIC
        ARGFRAME ISTACK, 0, STACK
        ARGFRAME PSTACK, 0, STACK
        ARGFRAME XSTACK, 24, STACK
        ARGFRAME IOVERLAY, 0, STATIC
        ARGFRAME DOVERLAY, 0, STATIC
        FUNCALL MT_AfDataRetrieve, osal_memcpy
        LOCFRAME ISTACK, 0, STACK
        LOCFRAME PSTACK, 0, STACK
        LOCFRAME XSTACK, 27, STACK
        LOCFRAME IOVERLAY, 0, STATIC
        LOCFRAME DOVERLAY, 0, STATIC
        ARGFRAME ISTACK, 0, STACK
        ARGFRAME PSTACK, 0, STACK
        ARGFRAME XSTACK, 27, STACK
        ARGFRAME IOVERLAY, 0, STATIC
        ARGFRAME DOVERLAY, 0, STATIC
        FUNCALL MT_AfDataRetrieve, MT_BuildAndSendZToolResponse
        LOCFRAME ISTACK, 0, STACK
        LOCFRAME PSTACK, 0, STACK
        LOCFRAME XSTACK, 24, STACK
        LOCFRAME IOVERLAY, 0, STATIC
        LOCFRAME DOVERLAY, 0, STATIC
        ARGFRAME ISTACK, 0, STACK
        ARGFRAME PSTACK, 0, STACK
        ARGFRAME XSTACK, 24, STACK
        ARGFRAME IOVERLAY, 0, STATIC
        ARGFRAME DOVERLAY, 0, STATIC
        FUNCALL MT_AfDataRetrieve, osal_mem_free
        LOCFRAME ISTACK, 0, STACK
        LOCFRAME PSTACK, 0, STACK
        LOCFRAME XSTACK, 24, STACK
        LOCFRAME IOVERLAY, 0, STATIC
        LOCFRAME DOVERLAY, 0, STATIC
        ARGFRAME ISTACK, 0, STACK
        ARGFRAME PSTACK, 0, STACK
        ARGFRAME XSTACK, 24, STACK
        ARGFRAME IOVERLAY, 0, STATIC
        ARGFRAME DOVERLAY, 0, STATIC
        MOV     A,#-0x18
        LCALL   ?BANKED_ENTER_XDATA
          CFI DPH0 load(1, XDATA, add(CFA_XSP16, literal(-1)))
          CFI DPL0 load(1, XDATA, add(CFA_XSP16, literal(-2)))
          CFI ?BRET_EXT load(1, XDATA, add(CFA_XSP16, literal(-3)))
          CFI ?RET_HIGH load(1, XDATA, add(CFA_XSP16, literal(-4)))
          CFI ?RET_LOW load(1, XDATA, add(CFA_XSP16, literal(-5)))
          CFI R7 load(1, XDATA, add(CFA_XSP16, literal(-6)))
          CFI V15 load(1, XDATA, add(CFA_XSP16, literal(-7)))
          CFI V14 load(1, XDATA, add(CFA_XSP16, literal(-8)))
          CFI V13 load(1, XDATA, add(CFA_XSP16, literal(-9)))
          CFI V12 load(1, XDATA, add(CFA_XSP16, literal(-10)))
          CFI V11 load(1, XDATA, add(CFA_XSP16, literal(-11)))
          CFI V10 load(1, XDATA, add(CFA_XSP16, literal(-12)))
          CFI V9 load(1, XDATA, add(CFA_XSP16, literal(-13)))
          CFI V8 load(1, XDATA, add(CFA_XSP16, literal(-14)))
          CFI V7 load(1, XDATA, add(CFA_XSP16, literal(-15)))
          CFI V6 load(1, XDATA, add(CFA_XSP16, literal(-16)))
          CFI V5 load(1, XDATA, add(CFA_XSP16, literal(-17)))
          CFI V4 load(1, XDATA, add(CFA_XSP16, literal(-18)))
          CFI V3 load(1, XDATA, add(CFA_XSP16, literal(-19)))
          CFI V2 load(1, XDATA, add(CFA_XSP16, literal(-20)))
          CFI V1 load(1, XDATA, add(CFA_XSP16, literal(-21)))
          CFI V0 load(1, XDATA, add(CFA_XSP16, literal(-22)))
          CFI VB load(1, XDATA, add(CFA_XSP16, literal(-23)))
          CFI R6 load(1, XDATA, add(CFA_XSP16, literal(-24)))
          CFI CFA_SP SP+0
          CFI CFA_XSP16 add(XSP16, 24)
        ; Saved register size: 24
        ; Auto size: 0
//  778   #define MT_AF_RTV_HDR_SZ  2
//  779 
//  780   uint32 timestamp;
//  781   mtAfInMsgList_t *pPrev, *pItem = pMtAfInMsgList;
        MOV     DPTR,#pMtAfInMsgList
        LCALL   ?Subroutine15 & 0xFFFF
//  782   uint8 rtrn = afStatus_FAILED;
??CrossCallReturnLabel_22:
        MOV     R4,#0x1
//  783   uint8 len = 0;
        MOV     ?V0 + 8,#0x0
//  784 
//  785   pBuf += MT_RPC_FRAME_HDR_SZ;
        MOV     A,R2
        ADD     A,#0x3
        MOV     ?V0 + 0,A
        MOV     A,R3
        LCALL   ?Subroutine26 & 0xFFFF
//  786   timestamp = BUILD_UINT32(pBuf[0], pBuf[1], pBuf[2], pBuf[3]);
??CrossCallReturnLabel_38:
        MOVX    A,@DPTR
        MOV     ?V0 + 4,A
        CLR     A
        MOV     ?V0 + 5,A
        MOV     ?V0 + 6,A
        MOV     ?V0 + 7,A
        INC     DPTR
        MOVX    A,@DPTR
        MOV     ?V0 + 12,A
        CLR     A
        MOV     ?V0 + 13,A
        MOV     ?V0 + 14,A
        MOV     ?V0 + 15,A
        MOV     A,#0x8
        MOV     R0,#?V0 + 12
        LCALL   ?L_SHL
        MOV     R0,#?V0 + 4
        MOV     R1,#?V0 + 12
        LCALL   ?L_ADD
        MOV     DPL,?V0 + 0
        MOV     DPH,?V0 + 1
        INC     DPTR
        INC     DPTR
        MOVX    A,@DPTR
        MOV     ?V0 + 12,A
        CLR     A
        MOV     ?V0 + 13,A
        MOV     A,#0x10
        MOV     R0,#?V0 + 12
        LCALL   ?L_SHL
        MOV     R0,#?V0 + 4
        MOV     R1,#?V0 + 12
        LCALL   ?L_ADD
        MOV     DPL,?V0 + 0
        MOV     DPH,?V0 + 1
        INC     DPTR
        INC     DPTR
        INC     DPTR
        MOVX    A,@DPTR
        MOV     ?V0 + 12,A
        CLR     A
        MOV     ?V0 + 14,A
        MOV     A,#0x18
        MOV     R0,#?V0 + 12
        LCALL   ?L_SHL
        MOV     R0,#?V0 + 4
        MOV     R1,#?V0 + 12
        LCALL   ?L_ADD
        SJMP    ??CrossCallReturnLabel_23
//  787 
//  788   while (pItem != NULL)
//  789   {
//  790     pPrev = pItem;
//  791     if (pItem->timestamp == timestamp)
//  792     {
//  793       break;
//  794     }
//  795     pItem = pItem->next;
??MT_AfDataRetrieve_0:
        MOV     DPL,R2
        MOV     DPH,R3
        LCALL   ?Subroutine15 & 0xFFFF
??CrossCallReturnLabel_23:
        MOV     A,?V0 + 2
        ORL     A,?V0 + 3
        JZ      ??MT_AfDataRetrieve_1
        MOV     R2,?V0 + 2
        MOV     R3,?V0 + 3
        MOV     DPL,R2
        MOV     DPH,R3
        INC     DPTR
        INC     DPTR
        INC     DPTR
        INC     DPTR
        MOV     R0,#?V0 + 4
        LCALL   ?L_EQ_X
        JNZ     ??MT_AfDataRetrieve_0
//  796   }
//  797 
//  798   if (pItem != NULL)
//  799   {
//  800     uint16 idx;
//  801     uint8 *pRsp;
//  802 
//  803     pBuf += 4;
        MOV     A,?V0 + 0
        ADD     A,#0x4
        MOV     ?V0 + 0,A
        MOV     A,?V0 + 1
        LCALL   ?Subroutine26 & 0xFFFF
//  804     idx = BUILD_UINT16(pBuf[0], pBuf[1]);
??CrossCallReturnLabel_39:
        LCALL   ?Subroutine22 & 0xFFFF
??CrossCallReturnLabel_33:
        MOV     ?V0 + 4,A
        CLR     A
        ADDC    A,R1
        MOV     ?V0 + 5,A
//  805     len = pBuf[2];
        MOV     DPL,?V0 + 0
        MOV     DPH,?V0 + 1
        INC     DPTR
        INC     DPTR
        MOVX    A,@DPTR
        MOV     ?V0 + 8,A
//  806 
//  807     if (len == 0)  // Indication to delete the afIncomingMSGPacket.
        JNZ     ??MT_AfDataRetrieve_2
//  808     {
//  809       if (pMtAfInMsgList == pItem)
        LCALL   ?Subroutine21 & 0xFFFF
??CrossCallReturnLabel_128:
        MOV     A,R2
        XRL     A,R0
        JNZ     ??MT_AfDataRetrieve_3
        MOV     A,R3
        XRL     A,R1
??MT_AfDataRetrieve_3:
        MOV     DPL,R2
        MOV     DPH,R3
        JNZ     ??MT_AfDataRetrieve_4
//  810       {
//  811         pMtAfInMsgList = pItem->next;
        LCALL   ?Subroutine20 & 0xFFFF
//  812       }
??CrossCallReturnLabel_32:
        SJMP    ??MT_AfDataRetrieve_5
//  813       else
//  814       {
//  815         pPrev->next = pItem->next;
??MT_AfDataRetrieve_4:
        LCALL   ??Subroutine54_0 & 0xFFFF
//  816       }
??CrossCallReturnLabel_125:
        MOV     DPL,R2
        MOV     DPH,R3
??MT_AfDataRetrieve_5:
        LCALL   ?Subroutine36 & 0xFFFF
//  817       (void)osal_mem_free(pItem);
??CrossCallReturnLabel_65:
        ; Setup parameters for call to function osal_mem_free
        LCALL   ??osal_mem_free?relay
//  818       rtrn = afStatus_SUCCESS;
        MOV     R4,#0x0
//  819     }
//  820     else if ((pRsp = osal_mem_alloc(len + MT_AF_RTV_HDR_SZ)) == NULL)
//  821     {
//  822       rtrn = afStatus_MEM_FAIL;
//  823       len = 0;
//  824     }
//  825     else
//  826     {
//  827       pRsp[0] = ZSuccess;
//  828       pRsp[1] = len;
//  829       (void)osal_memcpy(pRsp + MT_AF_RTV_HDR_SZ, pItem->data+idx, len);
//  830       MT_BuildAndSendZToolResponse(((uint8)MT_RPC_CMD_SRSP | (uint8)MT_RPC_SYS_AF),
//  831                                            MT_AF_DATA_RETRIEVE, len + MT_AF_RTV_HDR_SZ, pRsp);
//  832       (void)osal_mem_free(pRsp);
//  833       return;
//  834     }
//  835   }
//  836 
//  837   pBuf[0] = rtrn;
??MT_AfDataRetrieve_1:
        MOV     A,R4
        MOV     DPL,?V0 + 0
        MOV     DPH,?V0 + 1
        MOVX    @DPTR,A
//  838   pBuf[1] = len;
        INC     DPTR
        MOV     A,?V0 + 8
        MOVX    @DPTR,A
//  839   MT_BuildAndSendZToolResponse(((uint8)MT_RPC_CMD_SRSP | (uint8)MT_RPC_SYS_AF),
//  840                                        MT_AF_DATA_RETRIEVE, MT_AF_RTV_HDR_SZ, pBuf);
        ; Setup parameters for call to function MT_BuildAndSendZToolResponse
        MOV     R4,?V0 + 0
        MOV     R5,?V0 + 1
        MOV     R3,#0x2
        MOV     R2,#0x12
        MOV     R1,#0x64
        LCALL   ??MT_BuildAndSendZToolResponse?relay
//  841 }
??MT_AfDataRetrieve_6:
        MOV     R7,#0x10
        LJMP    ?BANKED_LEAVE_XDATA
??MT_AfDataRetrieve_2:
        ; Setup parameters for call to function osal_mem_alloc
        ADD     A,#0x2
        MOV     R2,A
        CLR     A
        ADDC    A,#0x0
        MOV     R3,A
        LCALL   ??osal_mem_alloc?relay
        MOV     ?V0 + 6,R2
        MOV     ?V0 + 7,R3
        MOV     R6,?V0 + 6
        MOV     R7,?V0 + 7
        MOV     A,R6
        ORL     A,R7
        JNZ     ??MT_AfDataRetrieve_7
        MOV     R4,#0x10
        MOV     ?V0 + 8,#0x0
        SJMP    ??MT_AfDataRetrieve_1
??MT_AfDataRetrieve_7:
        MOV     DPL,R6
        MOV     DPH,R7
        CLR     A
        MOVX    @DPTR,A
        INC     DPTR
        MOV     A,?V0 + 8
        MOVX    @DPTR,A
        ; Setup parameters for call to function osal_memcpy
        MOV     DPL,?V0 + 2
        MOV     DPH,?V0 + 3
        INC     DPTR
        INC     DPTR
        MOVX    A,@DPTR
        ADD     A,?V0 + 4
        MOV     ?V0 + 0,A
        INC     DPTR
        MOVX    A,@DPTR
        ADDC    A,?V0 + 5
        MOV     ?V0 + 1,A
        MOV     ?V0 + 2,#0x0
        MOV     R0,#?V0 + 0
        LCALL   ?PUSH_XSTACK_I_THREE
          CFI CFA_XSP16 add(XSP16, 27)
        MOV     ?V0 + 0,?V0 + 8
        MOV     R4,?V0 + 0
        MOV     R5,#0x0
        MOV     A,R6
        ADD     A,#0x2
        MOV     R2,A
        MOV     A,R7
        ADDC    A,#0x0
        MOV     R3,A
        LCALL   ??osal_memcpy?relay
        MOV     A,#0x3
        LCALL   ?DEALLOC_XSTACK8
          CFI CFA_XSP16 add(XSP16, 24)
        ; Setup parameters for call to function MT_BuildAndSendZToolResponse
        MOV     A,R6
        MOV     R4,A
        MOV     A,R7
        MOV     R5,A
        MOV     A,#0x2
        ADD     A,?V0 + 8
        MOV     R3,A
        MOV     R2,#0x12
        MOV     R1,#0x64
        LCALL   ??MT_BuildAndSendZToolResponse?relay
        ; Setup parameters for call to function osal_mem_free
        MOV     A,R6
        MOV     R2,A
        MOV     A,R7
        MOV     R3,A
        LCALL   ??osal_mem_free?relay
        SJMP    ??MT_AfDataRetrieve_6
          CFI EndBlock cfiBlock201

        RSEG BANKED_CODE:CODE:NOROOT(0)
?Subroutine26:
          CFI Block cfiCond202 Using cfiCommon0
          CFI Function MT_AfDataRetrieve
          CFI Conditional ??CrossCallReturnLabel_38
          CFI R6 load(1, XDATA, add(CFA_XSP16, literal(-24)))
          CFI VB load(1, XDATA, add(CFA_XSP16, literal(-23)))
          CFI V0 load(1, XDATA, add(CFA_XSP16, literal(-22)))
          CFI V1 load(1, XDATA, add(CFA_XSP16, literal(-21)))
          CFI V2 load(1, XDATA, add(CFA_XSP16, literal(-20)))
          CFI V3 load(1, XDATA, add(CFA_XSP16, literal(-19)))
          CFI V4 load(1, XDATA, add(CFA_XSP16, literal(-18)))
          CFI V5 load(1, XDATA, add(CFA_XSP16, literal(-17)))
          CFI V6 load(1, XDATA, add(CFA_XSP16, literal(-16)))
          CFI V7 load(1, XDATA, add(CFA_XSP16, literal(-15)))
          CFI V8 load(1, XDATA, add(CFA_XSP16, literal(-14)))
          CFI V9 load(1, XDATA, add(CFA_XSP16, literal(-13)))
          CFI V10 load(1, XDATA, add(CFA_XSP16, literal(-12)))
          CFI V11 load(1, XDATA, add(CFA_XSP16, literal(-11)))
          CFI V12 load(1, XDATA, add(CFA_XSP16, literal(-10)))
          CFI V13 load(1, XDATA, add(CFA_XSP16, literal(-9)))
          CFI V14 load(1, XDATA, add(CFA_XSP16, literal(-8)))
          CFI V15 load(1, XDATA, add(CFA_XSP16, literal(-7)))
          CFI R7 load(1, XDATA, add(CFA_XSP16, literal(-6)))
          CFI ?RET_LOW load(1, XDATA, add(CFA_XSP16, literal(-5)))
          CFI ?RET_HIGH load(1, XDATA, add(CFA_XSP16, literal(-4)))
          CFI ?BRET_EXT load(1, XDATA, add(CFA_XSP16, literal(-3)))
          CFI DPL0 load(1, XDATA, add(CFA_XSP16, literal(-2)))
          CFI DPH0 load(1, XDATA, add(CFA_XSP16, literal(-1)))
          CFI CFA_SP SP+0
          CFI CFA_XSP16 add(XSP16, 24)
          CFI Block cfiCond203 Using cfiCommon0
          CFI (cfiCond203) Function MT_AfDataRetrieve
          CFI (cfiCond203) Conditional ??CrossCallReturnLabel_39
          CFI (cfiCond203) R6 load(1, XDATA, add(CFA_XSP16, literal(-24)))
          CFI (cfiCond203) VB load(1, XDATA, add(CFA_XSP16, literal(-23)))
          CFI (cfiCond203) V0 load(1, XDATA, add(CFA_XSP16, literal(-22)))
          CFI (cfiCond203) V1 load(1, XDATA, add(CFA_XSP16, literal(-21)))
          CFI (cfiCond203) V2 load(1, XDATA, add(CFA_XSP16, literal(-20)))
          CFI (cfiCond203) V3 load(1, XDATA, add(CFA_XSP16, literal(-19)))
          CFI (cfiCond203) V4 load(1, XDATA, add(CFA_XSP16, literal(-18)))
          CFI (cfiCond203) V5 load(1, XDATA, add(CFA_XSP16, literal(-17)))
          CFI (cfiCond203) V6 load(1, XDATA, add(CFA_XSP16, literal(-16)))
          CFI (cfiCond203) V7 load(1, XDATA, add(CFA_XSP16, literal(-15)))
          CFI (cfiCond203) V8 load(1, XDATA, add(CFA_XSP16, literal(-14)))
          CFI (cfiCond203) V9 load(1, XDATA, add(CFA_XSP16, literal(-13)))
          CFI (cfiCond203) V10 load(1, XDATA, add(CFA_XSP16, literal(-12)))
          CFI (cfiCond203) V11 load(1, XDATA, add(CFA_XSP16, literal(-11)))
          CFI (cfiCond203) V12 load(1, XDATA, add(CFA_XSP16, literal(-10)))
          CFI (cfiCond203) V13 load(1, XDATA, add(CFA_XSP16, literal(-9)))
          CFI (cfiCond203) V14 load(1, XDATA, add(CFA_XSP16, literal(-8)))
          CFI (cfiCond203) V15 load(1, XDATA, add(CFA_XSP16, literal(-7)))
          CFI (cfiCond203) R7 load(1, XDATA, add(CFA_XSP16, literal(-6)))
          CFI (cfiCond203) ?RET_LOW load(1, XDATA, add(CFA_XSP16, literal(-5)))
          CFI (cfiCond203) ?RET_HIGH load(1, XDATA, add(CFA_XSP16, literal(-4)))
          CFI (cfiCond203) ?BRET_EXT load(1, XDATA, add(CFA_XSP16, literal(-3)))
          CFI (cfiCond203) DPL0 load(1, XDATA, add(CFA_XSP16, literal(-2)))
          CFI (cfiCond203) DPH0 load(1, XDATA, add(CFA_XSP16, literal(-1)))
          CFI (cfiCond203) CFA_SP SP+0
          CFI (cfiCond203) CFA_XSP16 add(XSP16, 24)
          CFI Block cfiPicker204 Using cfiCommon1
          CFI (cfiPicker204) NoFunction
          CFI (cfiPicker204) Picker
        ADDC    A,#0x0
        MOV     ?V0 + 1,A
        MOV     DPL,?V0 + 0
        MOV     DPH,A
        RET
          CFI EndBlock cfiCond202
          CFI EndBlock cfiCond203
          CFI EndBlock cfiPicker204

        RSEG BANKED_CODE:CODE:NOROOT(0)
?Subroutine21:
          CFI Block cfiCond205 Using cfiCommon0
          CFI Function MT_AfExec
          CFI Conditional ??CrossCallReturnLabel_126
          CFI R6 load(1, XDATA, add(CFA_XSP16, literal(-9)))
          CFI VB load(1, XDATA, add(CFA_XSP16, literal(-8)))
          CFI V0 load(1, XDATA, add(CFA_XSP16, literal(-7)))
          CFI R7 load(1, XDATA, add(CFA_XSP16, literal(-6)))
          CFI ?RET_LOW load(1, XDATA, add(CFA_XSP16, literal(-5)))
          CFI ?RET_HIGH load(1, XDATA, add(CFA_XSP16, literal(-4)))
          CFI ?BRET_EXT load(1, XDATA, add(CFA_XSP16, literal(-3)))
          CFI DPL0 load(1, XDATA, add(CFA_XSP16, literal(-2)))
          CFI DPH0 load(1, XDATA, add(CFA_XSP16, literal(-1)))
          CFI CFA_SP SP+0
          CFI CFA_XSP16 add(XSP16, 9)
          CFI Block cfiCond206 Using cfiCommon0
          CFI (cfiCond206) Function MT_AfIncomingMsg
          CFI (cfiCond206) Conditional ??CrossCallReturnLabel_127
          CFI (cfiCond206) R6 load(1, XDATA, add(CFA_XSP16, literal(-23)))
          CFI (cfiCond206) VB load(1, XDATA, add(CFA_XSP16, literal(-22)))
          CFI (cfiCond206) V0 load(1, XDATA, add(CFA_XSP16, literal(-21)))
          CFI (cfiCond206) V1 load(1, XDATA, add(CFA_XSP16, literal(-20)))
          CFI (cfiCond206) V2 load(1, XDATA, add(CFA_XSP16, literal(-19)))
          CFI (cfiCond206) V3 load(1, XDATA, add(CFA_XSP16, literal(-18)))
          CFI (cfiCond206) V4 load(1, XDATA, add(CFA_XSP16, literal(-17)))
          CFI (cfiCond206) V5 load(1, XDATA, add(CFA_XSP16, literal(-16)))
          CFI (cfiCond206) V6 load(1, XDATA, add(CFA_XSP16, literal(-15)))
          CFI (cfiCond206) V7 load(1, XDATA, add(CFA_XSP16, literal(-14)))
          CFI (cfiCond206) V8 load(1, XDATA, add(CFA_XSP16, literal(-13)))
          CFI (cfiCond206) V9 load(1, XDATA, add(CFA_XSP16, literal(-12)))
          CFI (cfiCond206) V10 load(1, XDATA, add(CFA_XSP16, literal(-11)))
          CFI (cfiCond206) V11 load(1, XDATA, add(CFA_XSP16, literal(-10)))
          CFI (cfiCond206) V12 load(1, XDATA, add(CFA_XSP16, literal(-9)))
          CFI (cfiCond206) V13 load(1, XDATA, add(CFA_XSP16, literal(-8)))
          CFI (cfiCond206) V14 load(1, XDATA, add(CFA_XSP16, literal(-7)))
          CFI (cfiCond206) R7 load(1, XDATA, add(CFA_XSP16, literal(-6)))
          CFI (cfiCond206) ?RET_LOW load(1, XDATA, add(CFA_XSP16, literal(-5)))
          CFI (cfiCond206) ?RET_HIGH load(1, XDATA, add(CFA_XSP16, literal(-4)))
          CFI (cfiCond206) ?BRET_EXT load(1, XDATA, add(CFA_XSP16, literal(-3)))
          CFI (cfiCond206) DPL0 load(1, XDATA, add(CFA_XSP16, literal(-2)))
          CFI (cfiCond206) DPH0 load(1, XDATA, add(CFA_XSP16, literal(-1)))
          CFI (cfiCond206) CFA_SP SP+0
          CFI (cfiCond206) CFA_XSP16 add(XSP16, 23)
          CFI Block cfiCond207 Using cfiCommon0
          CFI (cfiCond207) Function MT_AfDataRetrieve
          CFI (cfiCond207) Conditional ??CrossCallReturnLabel_128
          CFI (cfiCond207) R6 load(1, XDATA, add(CFA_XSP16, literal(-24)))
          CFI (cfiCond207) VB load(1, XDATA, add(CFA_XSP16, literal(-23)))
          CFI (cfiCond207) V0 load(1, XDATA, add(CFA_XSP16, literal(-22)))
          CFI (cfiCond207) V1 load(1, XDATA, add(CFA_XSP16, literal(-21)))
          CFI (cfiCond207) V2 load(1, XDATA, add(CFA_XSP16, literal(-20)))
          CFI (cfiCond207) V3 load(1, XDATA, add(CFA_XSP16, literal(-19)))
          CFI (cfiCond207) V4 load(1, XDATA, add(CFA_XSP16, literal(-18)))
          CFI (cfiCond207) V5 load(1, XDATA, add(CFA_XSP16, literal(-17)))
          CFI (cfiCond207) V6 load(1, XDATA, add(CFA_XSP16, literal(-16)))
          CFI (cfiCond207) V7 load(1, XDATA, add(CFA_XSP16, literal(-15)))
          CFI (cfiCond207) V8 load(1, XDATA, add(CFA_XSP16, literal(-14)))
          CFI (cfiCond207) V9 load(1, XDATA, add(CFA_XSP16, literal(-13)))
          CFI (cfiCond207) V10 load(1, XDATA, add(CFA_XSP16, literal(-12)))
          CFI (cfiCond207) V11 load(1, XDATA, add(CFA_XSP16, literal(-11)))
          CFI (cfiCond207) V12 load(1, XDATA, add(CFA_XSP16, literal(-10)))
          CFI (cfiCond207) V13 load(1, XDATA, add(CFA_XSP16, literal(-9)))
          CFI (cfiCond207) V14 load(1, XDATA, add(CFA_XSP16, literal(-8)))
          CFI (cfiCond207) V15 load(1, XDATA, add(CFA_XSP16, literal(-7)))
          CFI (cfiCond207) R7 load(1, XDATA, add(CFA_XSP16, literal(-6)))
          CFI (cfiCond207) ?RET_LOW load(1, XDATA, add(CFA_XSP16, literal(-5)))
          CFI (cfiCond207) ?RET_HIGH load(1, XDATA, add(CFA_XSP16, literal(-4)))
          CFI (cfiCond207) ?BRET_EXT load(1, XDATA, add(CFA_XSP16, literal(-3)))
          CFI (cfiCond207) DPL0 load(1, XDATA, add(CFA_XSP16, literal(-2)))
          CFI (cfiCond207) DPH0 load(1, XDATA, add(CFA_XSP16, literal(-1)))
          CFI (cfiCond207) CFA_SP SP+0
          CFI (cfiCond207) CFA_XSP16 add(XSP16, 24)
          CFI Block cfiPicker208 Using cfiCommon1
          CFI (cfiPicker208) NoFunction
          CFI (cfiPicker208) Picker
        MOV     DPTR,#pMtAfInMsgList
          CFI EndBlock cfiCond205
          CFI EndBlock cfiCond206
          CFI EndBlock cfiCond207
          CFI EndBlock cfiPicker208
        REQUIRE ??Subroutine54_0
        ; // Fall through to label ??Subroutine54_0

        RSEG BANKED_CODE:CODE:NOROOT(0)
??Subroutine54_0:
          CFI Block cfiCond209 Using cfiCommon0
          CFI Function MT_AfExec
          CFI Conditional ??CrossCallReturnLabel_124
          CFI R6 load(1, XDATA, add(CFA_XSP16, literal(-9)))
          CFI VB load(1, XDATA, add(CFA_XSP16, literal(-8)))
          CFI V0 load(1, XDATA, add(CFA_XSP16, literal(-7)))
          CFI R7 load(1, XDATA, add(CFA_XSP16, literal(-6)))
          CFI ?RET_LOW load(1, XDATA, add(CFA_XSP16, literal(-5)))
          CFI ?RET_HIGH load(1, XDATA, add(CFA_XSP16, literal(-4)))
          CFI ?BRET_EXT load(1, XDATA, add(CFA_XSP16, literal(-3)))
          CFI DPL0 load(1, XDATA, add(CFA_XSP16, literal(-2)))
          CFI DPH0 load(1, XDATA, add(CFA_XSP16, literal(-1)))
          CFI CFA_SP SP+0
          CFI CFA_XSP16 add(XSP16, 9)
          CFI Block cfiCond210 Using cfiCommon0
          CFI (cfiCond210) Function MT_AfDataRetrieve
          CFI (cfiCond210) Conditional ??CrossCallReturnLabel_125
          CFI (cfiCond210) R6 load(1, XDATA, add(CFA_XSP16, literal(-24)))
          CFI (cfiCond210) VB load(1, XDATA, add(CFA_XSP16, literal(-23)))
          CFI (cfiCond210) V0 load(1, XDATA, add(CFA_XSP16, literal(-22)))
          CFI (cfiCond210) V1 load(1, XDATA, add(CFA_XSP16, literal(-21)))
          CFI (cfiCond210) V2 load(1, XDATA, add(CFA_XSP16, literal(-20)))
          CFI (cfiCond210) V3 load(1, XDATA, add(CFA_XSP16, literal(-19)))
          CFI (cfiCond210) V4 load(1, XDATA, add(CFA_XSP16, literal(-18)))
          CFI (cfiCond210) V5 load(1, XDATA, add(CFA_XSP16, literal(-17)))
          CFI (cfiCond210) V6 load(1, XDATA, add(CFA_XSP16, literal(-16)))
          CFI (cfiCond210) V7 load(1, XDATA, add(CFA_XSP16, literal(-15)))
          CFI (cfiCond210) V8 load(1, XDATA, add(CFA_XSP16, literal(-14)))
          CFI (cfiCond210) V9 load(1, XDATA, add(CFA_XSP16, literal(-13)))
          CFI (cfiCond210) V10 load(1, XDATA, add(CFA_XSP16, literal(-12)))
          CFI (cfiCond210) V11 load(1, XDATA, add(CFA_XSP16, literal(-11)))
          CFI (cfiCond210) V12 load(1, XDATA, add(CFA_XSP16, literal(-10)))
          CFI (cfiCond210) V13 load(1, XDATA, add(CFA_XSP16, literal(-9)))
          CFI (cfiCond210) V14 load(1, XDATA, add(CFA_XSP16, literal(-8)))
          CFI (cfiCond210) V15 load(1, XDATA, add(CFA_XSP16, literal(-7)))
          CFI (cfiCond210) R7 load(1, XDATA, add(CFA_XSP16, literal(-6)))
          CFI (cfiCond210) ?RET_LOW load(1, XDATA, add(CFA_XSP16, literal(-5)))
          CFI (cfiCond210) ?RET_HIGH load(1, XDATA, add(CFA_XSP16, literal(-4)))
          CFI (cfiCond210) ?BRET_EXT load(1, XDATA, add(CFA_XSP16, literal(-3)))
          CFI (cfiCond210) DPL0 load(1, XDATA, add(CFA_XSP16, literal(-2)))
          CFI (cfiCond210) DPH0 load(1, XDATA, add(CFA_XSP16, literal(-1)))
          CFI (cfiCond210) CFA_SP SP+0
          CFI (cfiCond210) CFA_XSP16 add(XSP16, 24)
          CFI Block cfiCond211 Using cfiCommon0
          CFI (cfiCond211) Function MT_AfExec
          CFI (cfiCond211) Conditional ??CrossCallReturnLabel_126
          CFI (cfiCond211) R6 load(1, XDATA, add(CFA_XSP16, literal(-9)))
          CFI (cfiCond211) VB load(1, XDATA, add(CFA_XSP16, literal(-8)))
          CFI (cfiCond211) V0 load(1, XDATA, add(CFA_XSP16, literal(-7)))
          CFI (cfiCond211) R7 load(1, XDATA, add(CFA_XSP16, literal(-6)))
          CFI (cfiCond211) ?RET_LOW load(1, XDATA, add(CFA_XSP16, literal(-5)))
          CFI (cfiCond211) ?RET_HIGH load(1, XDATA, add(CFA_XSP16, literal(-4)))
          CFI (cfiCond211) ?BRET_EXT load(1, XDATA, add(CFA_XSP16, literal(-3)))
          CFI (cfiCond211) DPL0 load(1, XDATA, add(CFA_XSP16, literal(-2)))
          CFI (cfiCond211) DPH0 load(1, XDATA, add(CFA_XSP16, literal(-1)))
          CFI (cfiCond211) CFA_SP SP+0
          CFI (cfiCond211) CFA_XSP16 add(XSP16, 9)
          CFI Block cfiCond212 Using cfiCommon0
          CFI (cfiCond212) Function MT_AfIncomingMsg
          CFI (cfiCond212) Conditional ??CrossCallReturnLabel_127
          CFI (cfiCond212) R6 load(1, XDATA, add(CFA_XSP16, literal(-23)))
          CFI (cfiCond212) VB load(1, XDATA, add(CFA_XSP16, literal(-22)))
          CFI (cfiCond212) V0 load(1, XDATA, add(CFA_XSP16, literal(-21)))
          CFI (cfiCond212) V1 load(1, XDATA, add(CFA_XSP16, literal(-20)))
          CFI (cfiCond212) V2 load(1, XDATA, add(CFA_XSP16, literal(-19)))
          CFI (cfiCond212) V3 load(1, XDATA, add(CFA_XSP16, literal(-18)))
          CFI (cfiCond212) V4 load(1, XDATA, add(CFA_XSP16, literal(-17)))
          CFI (cfiCond212) V5 load(1, XDATA, add(CFA_XSP16, literal(-16)))
          CFI (cfiCond212) V6 load(1, XDATA, add(CFA_XSP16, literal(-15)))
          CFI (cfiCond212) V7 load(1, XDATA, add(CFA_XSP16, literal(-14)))
          CFI (cfiCond212) V8 load(1, XDATA, add(CFA_XSP16, literal(-13)))
          CFI (cfiCond212) V9 load(1, XDATA, add(CFA_XSP16, literal(-12)))
          CFI (cfiCond212) V10 load(1, XDATA, add(CFA_XSP16, literal(-11)))
          CFI (cfiCond212) V11 load(1, XDATA, add(CFA_XSP16, literal(-10)))
          CFI (cfiCond212) V12 load(1, XDATA, add(CFA_XSP16, literal(-9)))
          CFI (cfiCond212) V13 load(1, XDATA, add(CFA_XSP16, literal(-8)))
          CFI (cfiCond212) V14 load(1, XDATA, add(CFA_XSP16, literal(-7)))
          CFI (cfiCond212) R7 load(1, XDATA, add(CFA_XSP16, literal(-6)))
          CFI (cfiCond212) ?RET_LOW load(1, XDATA, add(CFA_XSP16, literal(-5)))
          CFI (cfiCond212) ?RET_HIGH load(1, XDATA, add(CFA_XSP16, literal(-4)))
          CFI (cfiCond212) ?BRET_EXT load(1, XDATA, add(CFA_XSP16, literal(-3)))
          CFI (cfiCond212) DPL0 load(1, XDATA, add(CFA_XSP16, literal(-2)))
          CFI (cfiCond212) DPH0 load(1, XDATA, add(CFA_XSP16, literal(-1)))
          CFI (cfiCond212) CFA_SP SP+0
          CFI (cfiCond212) CFA_XSP16 add(XSP16, 23)
          CFI Block cfiCond213 Using cfiCommon0
          CFI (cfiCond213) Function MT_AfDataRetrieve
          CFI (cfiCond213) Conditional ??CrossCallReturnLabel_128
          CFI (cfiCond213) R6 load(1, XDATA, add(CFA_XSP16, literal(-24)))
          CFI (cfiCond213) VB load(1, XDATA, add(CFA_XSP16, literal(-23)))
          CFI (cfiCond213) V0 load(1, XDATA, add(CFA_XSP16, literal(-22)))
          CFI (cfiCond213) V1 load(1, XDATA, add(CFA_XSP16, literal(-21)))
          CFI (cfiCond213) V2 load(1, XDATA, add(CFA_XSP16, literal(-20)))
          CFI (cfiCond213) V3 load(1, XDATA, add(CFA_XSP16, literal(-19)))
          CFI (cfiCond213) V4 load(1, XDATA, add(CFA_XSP16, literal(-18)))
          CFI (cfiCond213) V5 load(1, XDATA, add(CFA_XSP16, literal(-17)))
          CFI (cfiCond213) V6 load(1, XDATA, add(CFA_XSP16, literal(-16)))
          CFI (cfiCond213) V7 load(1, XDATA, add(CFA_XSP16, literal(-15)))
          CFI (cfiCond213) V8 load(1, XDATA, add(CFA_XSP16, literal(-14)))
          CFI (cfiCond213) V9 load(1, XDATA, add(CFA_XSP16, literal(-13)))
          CFI (cfiCond213) V10 load(1, XDATA, add(CFA_XSP16, literal(-12)))
          CFI (cfiCond213) V11 load(1, XDATA, add(CFA_XSP16, literal(-11)))
          CFI (cfiCond213) V12 load(1, XDATA, add(CFA_XSP16, literal(-10)))
          CFI (cfiCond213) V13 load(1, XDATA, add(CFA_XSP16, literal(-9)))
          CFI (cfiCond213) V14 load(1, XDATA, add(CFA_XSP16, literal(-8)))
          CFI (cfiCond213) V15 load(1, XDATA, add(CFA_XSP16, literal(-7)))
          CFI (cfiCond213) R7 load(1, XDATA, add(CFA_XSP16, literal(-6)))
          CFI (cfiCond213) ?RET_LOW load(1, XDATA, add(CFA_XSP16, literal(-5)))
          CFI (cfiCond213) ?RET_HIGH load(1, XDATA, add(CFA_XSP16, literal(-4)))
          CFI (cfiCond213) ?BRET_EXT load(1, XDATA, add(CFA_XSP16, literal(-3)))
          CFI (cfiCond213) DPL0 load(1, XDATA, add(CFA_XSP16, literal(-2)))
          CFI (cfiCond213) DPH0 load(1, XDATA, add(CFA_XSP16, literal(-1)))
          CFI (cfiCond213) CFA_SP SP+0
          CFI (cfiCond213) CFA_XSP16 add(XSP16, 24)
          CFI Block cfiPicker214 Using cfiCommon1
          CFI (cfiPicker214) NoFunction
          CFI (cfiPicker214) Picker
        MOVX    A,@DPTR
        MOV     R0,A
        INC     DPTR
        MOVX    A,@DPTR
        MOV     R1,A
        RET
          CFI EndBlock cfiCond209
          CFI EndBlock cfiCond210
          CFI EndBlock cfiCond211
          CFI EndBlock cfiCond212
          CFI EndBlock cfiCond213
          CFI EndBlock cfiPicker214

        RSEG BANKED_CODE:CODE:NOROOT(0)
?Subroutine20:
          CFI Block cfiCond215 Using cfiCommon0
          CFI Function MT_AfExec
          CFI Conditional ??CrossCallReturnLabel_31
          CFI R6 load(1, XDATA, add(CFA_XSP16, literal(-9)))
          CFI VB load(1, XDATA, add(CFA_XSP16, literal(-8)))
          CFI V0 load(1, XDATA, add(CFA_XSP16, literal(-7)))
          CFI R7 load(1, XDATA, add(CFA_XSP16, literal(-6)))
          CFI ?RET_LOW load(1, XDATA, add(CFA_XSP16, literal(-5)))
          CFI ?RET_HIGH load(1, XDATA, add(CFA_XSP16, literal(-4)))
          CFI ?BRET_EXT load(1, XDATA, add(CFA_XSP16, literal(-3)))
          CFI DPL0 load(1, XDATA, add(CFA_XSP16, literal(-2)))
          CFI DPH0 load(1, XDATA, add(CFA_XSP16, literal(-1)))
          CFI CFA_SP SP+0
          CFI CFA_XSP16 add(XSP16, 9)
          CFI Block cfiCond216 Using cfiCommon0
          CFI (cfiCond216) Function MT_AfDataRetrieve
          CFI (cfiCond216) Conditional ??CrossCallReturnLabel_32
          CFI (cfiCond216) R6 load(1, XDATA, add(CFA_XSP16, literal(-24)))
          CFI (cfiCond216) VB load(1, XDATA, add(CFA_XSP16, literal(-23)))
          CFI (cfiCond216) V0 load(1, XDATA, add(CFA_XSP16, literal(-22)))
          CFI (cfiCond216) V1 load(1, XDATA, add(CFA_XSP16, literal(-21)))
          CFI (cfiCond216) V2 load(1, XDATA, add(CFA_XSP16, literal(-20)))
          CFI (cfiCond216) V3 load(1, XDATA, add(CFA_XSP16, literal(-19)))
          CFI (cfiCond216) V4 load(1, XDATA, add(CFA_XSP16, literal(-18)))
          CFI (cfiCond216) V5 load(1, XDATA, add(CFA_XSP16, literal(-17)))
          CFI (cfiCond216) V6 load(1, XDATA, add(CFA_XSP16, literal(-16)))
          CFI (cfiCond216) V7 load(1, XDATA, add(CFA_XSP16, literal(-15)))
          CFI (cfiCond216) V8 load(1, XDATA, add(CFA_XSP16, literal(-14)))
          CFI (cfiCond216) V9 load(1, XDATA, add(CFA_XSP16, literal(-13)))
          CFI (cfiCond216) V10 load(1, XDATA, add(CFA_XSP16, literal(-12)))
          CFI (cfiCond216) V11 load(1, XDATA, add(CFA_XSP16, literal(-11)))
          CFI (cfiCond216) V12 load(1, XDATA, add(CFA_XSP16, literal(-10)))
          CFI (cfiCond216) V13 load(1, XDATA, add(CFA_XSP16, literal(-9)))
          CFI (cfiCond216) V14 load(1, XDATA, add(CFA_XSP16, literal(-8)))
          CFI (cfiCond216) V15 load(1, XDATA, add(CFA_XSP16, literal(-7)))
          CFI (cfiCond216) R7 load(1, XDATA, add(CFA_XSP16, literal(-6)))
          CFI (cfiCond216) ?RET_LOW load(1, XDATA, add(CFA_XSP16, literal(-5)))
          CFI (cfiCond216) ?RET_HIGH load(1, XDATA, add(CFA_XSP16, literal(-4)))
          CFI (cfiCond216) ?BRET_EXT load(1, XDATA, add(CFA_XSP16, literal(-3)))
          CFI (cfiCond216) DPL0 load(1, XDATA, add(CFA_XSP16, literal(-2)))
          CFI (cfiCond216) DPH0 load(1, XDATA, add(CFA_XSP16, literal(-1)))
          CFI (cfiCond216) CFA_SP SP+0
          CFI (cfiCond216) CFA_XSP16 add(XSP16, 24)
          CFI Block cfiPicker217 Using cfiCommon1
          CFI (cfiPicker217) NoFunction
          CFI (cfiPicker217) Picker
        MOVX    A,@DPTR
        MOV     R0,A
        INC     DPTR
        MOVX    A,@DPTR
        MOV     R1,A
        MOV     DPTR,#pMtAfInMsgList
        RET
          CFI EndBlock cfiCond215
          CFI EndBlock cfiCond216
          CFI EndBlock cfiPicker217

        RSEG BANKED_CODE:CODE:NOROOT(0)
?Subroutine15:
          CFI Block cfiCond218 Using cfiCommon0
          CFI Function MT_AfDataRequest
          CFI Conditional ??CrossCallReturnLabel_21
          CFI R6 load(1, XDATA, add(CFA_XSP16, literal(-20)))
          CFI VB load(1, XDATA, add(CFA_XSP16, literal(-19)))
          CFI V0 load(1, XDATA, add(CFA_XSP16, literal(-18)))
          CFI V1 load(1, XDATA, add(CFA_XSP16, literal(-17)))
          CFI V2 load(1, XDATA, add(CFA_XSP16, literal(-16)))
          CFI V3 load(1, XDATA, add(CFA_XSP16, literal(-15)))
          CFI V4 load(1, XDATA, add(CFA_XSP16, literal(-14)))
          CFI V5 load(1, XDATA, add(CFA_XSP16, literal(-13)))
          CFI V6 load(1, XDATA, add(CFA_XSP16, literal(-12)))
          CFI V7 load(1, XDATA, add(CFA_XSP16, literal(-11)))
          CFI V8 load(1, XDATA, add(CFA_XSP16, literal(-10)))
          CFI V9 load(1, XDATA, add(CFA_XSP16, literal(-9)))
          CFI V10 load(1, XDATA, add(CFA_XSP16, literal(-8)))
          CFI V11 load(1, XDATA, add(CFA_XSP16, literal(-7)))
          CFI R7 load(1, XDATA, add(CFA_XSP16, literal(-6)))
          CFI ?RET_LOW load(1, XDATA, add(CFA_XSP16, literal(-5)))
          CFI ?RET_HIGH load(1, XDATA, add(CFA_XSP16, literal(-4)))
          CFI ?BRET_EXT load(1, XDATA, add(CFA_XSP16, literal(-3)))
          CFI DPL0 load(1, XDATA, add(CFA_XSP16, literal(-2)))
          CFI DPH0 load(1, XDATA, add(CFA_XSP16, literal(-1)))
          CFI CFA_SP SP+0
          CFI CFA_XSP16 add(XSP16, 34)
          CFI Block cfiCond219 Using cfiCommon0
          CFI (cfiCond219) Function MT_AfDataRetrieve
          CFI (cfiCond219) Conditional ??CrossCallReturnLabel_22
          CFI (cfiCond219) R6 load(1, XDATA, add(CFA_XSP16, literal(-24)))
          CFI (cfiCond219) VB load(1, XDATA, add(CFA_XSP16, literal(-23)))
          CFI (cfiCond219) V0 load(1, XDATA, add(CFA_XSP16, literal(-22)))
          CFI (cfiCond219) V1 load(1, XDATA, add(CFA_XSP16, literal(-21)))
          CFI (cfiCond219) V2 load(1, XDATA, add(CFA_XSP16, literal(-20)))
          CFI (cfiCond219) V3 load(1, XDATA, add(CFA_XSP16, literal(-19)))
          CFI (cfiCond219) V4 load(1, XDATA, add(CFA_XSP16, literal(-18)))
          CFI (cfiCond219) V5 load(1, XDATA, add(CFA_XSP16, literal(-17)))
          CFI (cfiCond219) V6 load(1, XDATA, add(CFA_XSP16, literal(-16)))
          CFI (cfiCond219) V7 load(1, XDATA, add(CFA_XSP16, literal(-15)))
          CFI (cfiCond219) V8 load(1, XDATA, add(CFA_XSP16, literal(-14)))
          CFI (cfiCond219) V9 load(1, XDATA, add(CFA_XSP16, literal(-13)))
          CFI (cfiCond219) V10 load(1, XDATA, add(CFA_XSP16, literal(-12)))
          CFI (cfiCond219) V11 load(1, XDATA, add(CFA_XSP16, literal(-11)))
          CFI (cfiCond219) V12 load(1, XDATA, add(CFA_XSP16, literal(-10)))
          CFI (cfiCond219) V13 load(1, XDATA, add(CFA_XSP16, literal(-9)))
          CFI (cfiCond219) V14 load(1, XDATA, add(CFA_XSP16, literal(-8)))
          CFI (cfiCond219) V15 load(1, XDATA, add(CFA_XSP16, literal(-7)))
          CFI (cfiCond219) R7 load(1, XDATA, add(CFA_XSP16, literal(-6)))
          CFI (cfiCond219) ?RET_LOW load(1, XDATA, add(CFA_XSP16, literal(-5)))
          CFI (cfiCond219) ?RET_HIGH load(1, XDATA, add(CFA_XSP16, literal(-4)))
          CFI (cfiCond219) ?BRET_EXT load(1, XDATA, add(CFA_XSP16, literal(-3)))
          CFI (cfiCond219) DPL0 load(1, XDATA, add(CFA_XSP16, literal(-2)))
          CFI (cfiCond219) DPH0 load(1, XDATA, add(CFA_XSP16, literal(-1)))
          CFI (cfiCond219) CFA_SP SP+0
          CFI (cfiCond219) CFA_XSP16 add(XSP16, 24)
          CFI Block cfiCond220 Using cfiCommon0
          CFI (cfiCond220) Function MT_AfDataRetrieve
          CFI (cfiCond220) Conditional ??CrossCallReturnLabel_23
          CFI (cfiCond220) R6 load(1, XDATA, add(CFA_XSP16, literal(-24)))
          CFI (cfiCond220) VB load(1, XDATA, add(CFA_XSP16, literal(-23)))
          CFI (cfiCond220) V0 load(1, XDATA, add(CFA_XSP16, literal(-22)))
          CFI (cfiCond220) V1 load(1, XDATA, add(CFA_XSP16, literal(-21)))
          CFI (cfiCond220) V2 load(1, XDATA, add(CFA_XSP16, literal(-20)))
          CFI (cfiCond220) V3 load(1, XDATA, add(CFA_XSP16, literal(-19)))
          CFI (cfiCond220) V4 load(1, XDATA, add(CFA_XSP16, literal(-18)))
          CFI (cfiCond220) V5 load(1, XDATA, add(CFA_XSP16, literal(-17)))
          CFI (cfiCond220) V6 load(1, XDATA, add(CFA_XSP16, literal(-16)))
          CFI (cfiCond220) V7 load(1, XDATA, add(CFA_XSP16, literal(-15)))
          CFI (cfiCond220) V8 load(1, XDATA, add(CFA_XSP16, literal(-14)))
          CFI (cfiCond220) V9 load(1, XDATA, add(CFA_XSP16, literal(-13)))
          CFI (cfiCond220) V10 load(1, XDATA, add(CFA_XSP16, literal(-12)))
          CFI (cfiCond220) V11 load(1, XDATA, add(CFA_XSP16, literal(-11)))
          CFI (cfiCond220) V12 load(1, XDATA, add(CFA_XSP16, literal(-10)))
          CFI (cfiCond220) V13 load(1, XDATA, add(CFA_XSP16, literal(-9)))
          CFI (cfiCond220) V14 load(1, XDATA, add(CFA_XSP16, literal(-8)))
          CFI (cfiCond220) V15 load(1, XDATA, add(CFA_XSP16, literal(-7)))
          CFI (cfiCond220) R7 load(1, XDATA, add(CFA_XSP16, literal(-6)))
          CFI (cfiCond220) ?RET_LOW load(1, XDATA, add(CFA_XSP16, literal(-5)))
          CFI (cfiCond220) ?RET_HIGH load(1, XDATA, add(CFA_XSP16, literal(-4)))
          CFI (cfiCond220) ?BRET_EXT load(1, XDATA, add(CFA_XSP16, literal(-3)))
          CFI (cfiCond220) DPL0 load(1, XDATA, add(CFA_XSP16, literal(-2)))
          CFI (cfiCond220) DPH0 load(1, XDATA, add(CFA_XSP16, literal(-1)))
          CFI (cfiCond220) CFA_SP SP+0
          CFI (cfiCond220) CFA_XSP16 add(XSP16, 24)
          CFI Block cfiPicker221 Using cfiCommon1
          CFI (cfiPicker221) NoFunction
          CFI (cfiPicker221) Picker
        MOVX    A,@DPTR
        MOV     ?V0 + 2,A
        INC     DPTR
        MOVX    A,@DPTR
        MOV     ?V0 + 3,A
        RET
          CFI EndBlock cfiCond218
          CFI EndBlock cfiCond219
          CFI EndBlock cfiCond220
          CFI EndBlock cfiPicker221
//  842 
//  843 /**************************************************************************************************
//  844  * @fn          MT_AfDataStore
//  845  *
//  846  * @brief   Process AF Data Store command to incrementally store the data buffer for very large
//  847  *          outgoing AF message.
//  848  *
//  849  * input parameters
//  850  *
//  851  * @param pBuf - pointer to the received buffer
//  852  *
//  853  * output parameters
//  854  *
//  855  * @param rtrn - AF-Status of the operation.
//  856  *
//  857  * @return      None.
//  858  **************************************************************************************************
//  859  */

        RSEG BANKED_CODE:CODE:NOROOT(0)
//  860 void MT_AfDataStore(uint8 *pBuf)
MT_AfDataStore:
          CFI Block cfiBlock222 Using cfiCommon0
          CFI Function MT_AfDataStore
        CODE
//  861 {
        FUNCALL MT_AfDataStore, AF_DataRequest
        LOCFRAME ISTACK, 0, STACK
        LOCFRAME PSTACK, 0, STACK
        LOCFRAME XSTACK, 21, STACK
        LOCFRAME IOVERLAY, 0, STATIC
        LOCFRAME DOVERLAY, 0, STATIC
        ARGFRAME ISTACK, 0, STACK
        ARGFRAME PSTACK, 0, STACK
        ARGFRAME XSTACK, 21, STACK
        ARGFRAME IOVERLAY, 0, STATIC
        ARGFRAME DOVERLAY, 0, STATIC
        FUNCALL MT_AfDataStore, osal_mem_free
        LOCFRAME ISTACK, 0, STACK
        LOCFRAME PSTACK, 0, STACK
        LOCFRAME XSTACK, 12, STACK
        LOCFRAME IOVERLAY, 0, STATIC
        LOCFRAME DOVERLAY, 0, STATIC
        ARGFRAME ISTACK, 0, STACK
        ARGFRAME PSTACK, 0, STACK
        ARGFRAME XSTACK, 12, STACK
        ARGFRAME IOVERLAY, 0, STATIC
        ARGFRAME DOVERLAY, 0, STATIC
        FUNCALL MT_AfDataStore, osal_memcpy
        LOCFRAME ISTACK, 0, STACK
        LOCFRAME PSTACK, 0, STACK
        LOCFRAME XSTACK, 15, STACK
        LOCFRAME IOVERLAY, 0, STATIC
        LOCFRAME DOVERLAY, 0, STATIC
        ARGFRAME ISTACK, 0, STACK
        ARGFRAME PSTACK, 0, STACK
        ARGFRAME XSTACK, 15, STACK
        ARGFRAME IOVERLAY, 0, STATIC
        ARGFRAME DOVERLAY, 0, STATIC
        FUNCALL MT_AfDataStore, MT_BuildAndSendZToolResponse
        LOCFRAME ISTACK, 0, STACK
        LOCFRAME PSTACK, 0, STACK
        LOCFRAME XSTACK, 12, STACK
        LOCFRAME IOVERLAY, 0, STATIC
        LOCFRAME DOVERLAY, 0, STATIC
        ARGFRAME ISTACK, 0, STACK
        ARGFRAME PSTACK, 0, STACK
        ARGFRAME XSTACK, 12, STACK
        ARGFRAME IOVERLAY, 0, STATIC
        ARGFRAME DOVERLAY, 0, STATIC
        MOV     A,#-0xb
        LCALL   ?BANKED_ENTER_XDATA
          CFI DPH0 load(1, XDATA, add(CFA_XSP16, literal(-1)))
          CFI DPL0 load(1, XDATA, add(CFA_XSP16, literal(-2)))
          CFI ?BRET_EXT load(1, XDATA, add(CFA_XSP16, literal(-3)))
          CFI ?RET_HIGH load(1, XDATA, add(CFA_XSP16, literal(-4)))
          CFI ?RET_LOW load(1, XDATA, add(CFA_XSP16, literal(-5)))
          CFI R7 load(1, XDATA, add(CFA_XSP16, literal(-6)))
          CFI V2 load(1, XDATA, add(CFA_XSP16, literal(-7)))
          CFI V1 load(1, XDATA, add(CFA_XSP16, literal(-8)))
          CFI V0 load(1, XDATA, add(CFA_XSP16, literal(-9)))
          CFI VB load(1, XDATA, add(CFA_XSP16, literal(-10)))
          CFI R6 load(1, XDATA, add(CFA_XSP16, literal(-11)))
          CFI CFA_SP SP+0
          CFI CFA_XSP16 add(XSP16, 11)
        ; Saved register size: 11
        ; Auto size: 1
        MOV     A,#-0x1
        LCALL   ?ALLOC_XSTACK8
          CFI CFA_XSP16 add(XSP16, 12)
//  862   uint16 idx;
//  863   uint8 len, rtrn = afStatus_FAILED;
        MOV     DPL,?XSP + 0
        MOV     DPH,?XSP + 1
        MOV     A,#0x1
        MOVX    @DPTR,A
//  864 
//  865   pBuf += MT_RPC_FRAME_HDR_SZ;
        MOV     A,R2
        ADD     A,#0x3
        MOV     R2,A
        MOV     A,R3
        ADDC    A,#0x0
        MOV     R3,A
//  866   idx = BUILD_UINT16(pBuf[0], pBuf[1]);
        MOV     DPL,R2
        MOV     DPH,R3
        LCALL   ?Subroutine22 & 0xFFFF
??CrossCallReturnLabel_34:
        MOV     R6,A
        CLR     A
        ADDC    A,R1
        MOV     R7,A
//  867   len = pBuf[2];
        MOV     DPL,R2
        MOV     DPH,R3
        INC     DPTR
        INC     DPTR
        MOVX    A,@DPTR
        MOV     R4,A
//  868   pBuf += 3;
        MOV     A,R2
        ADD     A,#0x3
        MOV     R2,A
        MOV     A,R3
        ADDC    A,#0x0
        MOV     R3,A
//  869 
//  870   if (pMtAfDataReq == NULL)
        LCALL   ?Subroutine3 & 0xFFFF
??CrossCallReturnLabel_85:
        JNZ     ??MT_AfDataStore_0
//  871   {
//  872     rtrn = afStatus_MEM_FAIL;
        MOV     DPL,?XSP + 0
        MOV     DPH,?XSP + 1
        MOV     A,#0x10
        LJMP    ??MT_AfDataStore_1 & 0xFFFF
//  873   }
//  874   else if (len == 0)  // Indication to send the message.
??MT_AfDataStore_0:
        MOV     A,R4
        JNZ     ??MT_AfDataStore_2
//  875   {
//  876     rtrn = AF_DataRequest(&(pMtAfDataReq->dstAddr), pMtAfDataReq->epDesc, pMtAfDataReq->cId,
//  877                             pMtAfDataReq->dataLen,  pMtAfDataReq->data,
//  878                           &(pMtAfDataReq->transId), pMtAfDataReq->txOpts, pMtAfDataReq->radius);
        ; Setup parameters for call to function AF_DataRequest
        LCALL   ?Subroutine13 & 0xFFFF
??CrossCallReturnLabel_17:
        MOVX    A,@DPTR
        MOV     ?V0 + 0,A
        MOV     R0,#?V0 + 0
        LCALL   ?PUSH_XSTACK_I_ONE
          CFI CFA_XSP16 add(XSP16, 13)
        MOV     DPTR,#pMtAfDataReq
        MOVX    A,@DPTR
        ADD     A,#0x14
        MOV     ?V0 + 0,A
        INC     DPTR
        MOVX    A,@DPTR
        ADDC    A,#0x0
        MOV     ?V0 + 1,A
        MOV     R0,#?V0 + 0
        LCALL   ?PUSH_XSTACK_I_TWO
          CFI CFA_XSP16 add(XSP16, 15)
        LCALL   ?Subroutine14 & 0xFFFF
??CrossCallReturnLabel_19:
        LCALL   ?PUSH_XSTACK8_X_TWO
          CFI CFA_XSP16 add(XSP16, 17)
        LCALL   ?Subroutine11 & 0xFFFF
??CrossCallReturnLabel_13:
        LCALL   ?PUSH_XSTACK8_X_TWO
          CFI CFA_XSP16 add(XSP16, 19)
        LCALL   ?Subroutine10 & 0xFFFF
??CrossCallReturnLabel_11:
        LCALL   ?PUSH_XSTACK8_X_TWO
          CFI CFA_XSP16 add(XSP16, 21)
        LCALL   ?Subroutine12 & 0xFFFF
??CrossCallReturnLabel_15:
        MOVX    A,@DPTR
        MOV     R1,A
        LCALL   ?Subroutine9 & 0xFFFF
??CrossCallReturnLabel_9:
        MOVX    A,@DPTR
        MOV     R4,A
        INC     DPTR
        MOVX    A,@DPTR
        MOV     R5,A
        LCALL   ?Subroutine17 & 0xFFFF
??CrossCallReturnLabel_25:
        LCALL   ??AF_DataRequest?relay
        MOV     A,#0x9
        LCALL   ?DEALLOC_XSTACK8
          CFI CFA_XSP16 add(XSP16, 12)
        MOV     A,R1
        MOV     DPL,?XSP + 0
        MOV     DPH,?XSP + 1
        MOVX    @DPTR,A
//  879     (void)osal_mem_free(pMtAfDataReq);
        ; Setup parameters for call to function osal_mem_free
        LCALL   ?Subroutine16 & 0xFFFF
??CrossCallReturnLabel_109:
        LCALL   ??osal_mem_free?relay
//  880     pMtAfDataReq = NULL;
        MOV     DPTR,#pMtAfDataReq
        CLR     A
        MOVX    @DPTR,A
        INC     DPTR
        SJMP    ??MT_AfDataStore_1
//  881   }
//  882   else
//  883   {
//  884     (void)osal_memcpy(pMtAfDataReq->data+idx, pBuf, len);
??MT_AfDataStore_2:
        ; Setup parameters for call to function osal_memcpy
        MOV     ?V0 + 0,R2
        MOV     ?V0 + 1,R3
        MOV     ?V0 + 2,#0x0
        MOV     R0,#?V0 + 0
        LCALL   ?PUSH_XSTACK_I_THREE
          CFI CFA_XSP16 add(XSP16, 15)
        MOV     R5,#0x0
        LCALL   ?Subroutine14 & 0xFFFF
??CrossCallReturnLabel_20:
        MOVX    A,@DPTR
        ADD     A,R6
        MOV     R2,A
        INC     DPTR
        MOVX    A,@DPTR
        ADDC    A,R7
        MOV     R3,A
        LCALL   ??osal_memcpy?relay
        MOV     A,#0x3
        LCALL   ?DEALLOC_XSTACK8
          CFI CFA_XSP16 add(XSP16, 12)
//  885     rtrn = afStatus_SUCCESS;
        MOV     DPL,?XSP + 0
        MOV     DPH,?XSP + 1
        CLR     A
//  886   }
??MT_AfDataStore_1:
        LCALL   ?Subroutine32 & 0xFFFF
//  887 
//  888   MT_BuildAndSendZToolResponse(((uint8)MT_RPC_CMD_SRSP | (uint8)MT_RPC_SYS_AF),
//  889                                                                 MT_AF_DATA_STORE, 1, &rtrn);
??CrossCallReturnLabel_52:
        MOV     R3,#0x1
        MOV     R2,#0x11
        MOV     R1,#0x64
        LCALL   ??MT_BuildAndSendZToolResponse?relay
//  890 }
        MOV     A,#0x1
        LCALL   ?DEALLOC_XSTACK8
          CFI CFA_XSP16 add(XSP16, 11)
        MOV     R7,#0x3
        LJMP    ?BANKED_LEAVE_XDATA
          CFI EndBlock cfiBlock222

        RSEG BANKED_CODE:CODE:NOROOT(0)
?Subroutine32:
          CFI Block cfiCond223 Using cfiCommon0
          CFI Function MT_AfDataConfirm
          CFI Conditional ??CrossCallReturnLabel_51
          CFI DPL0 Frame(CFA_SP, 4)
          CFI DPH0 Frame(CFA_SP, 5)
          CFI CFA_SP SP+-5
          CFI CFA_XSP16 add(XSP16, 3)
          CFI Block cfiCond224 Using cfiCommon0
          CFI (cfiCond224) Function MT_AfDataStore
          CFI (cfiCond224) Conditional ??CrossCallReturnLabel_52
          CFI (cfiCond224) R6 load(1, XDATA, add(CFA_XSP16, literal(-11)))
          CFI (cfiCond224) VB load(1, XDATA, add(CFA_XSP16, literal(-10)))
          CFI (cfiCond224) V0 load(1, XDATA, add(CFA_XSP16, literal(-9)))
          CFI (cfiCond224) V1 load(1, XDATA, add(CFA_XSP16, literal(-8)))
          CFI (cfiCond224) V2 load(1, XDATA, add(CFA_XSP16, literal(-7)))
          CFI (cfiCond224) R7 load(1, XDATA, add(CFA_XSP16, literal(-6)))
          CFI (cfiCond224) ?RET_LOW load(1, XDATA, add(CFA_XSP16, literal(-5)))
          CFI (cfiCond224) ?RET_HIGH load(1, XDATA, add(CFA_XSP16, literal(-4)))
          CFI (cfiCond224) ?BRET_EXT load(1, XDATA, add(CFA_XSP16, literal(-3)))
          CFI (cfiCond224) DPL0 load(1, XDATA, add(CFA_XSP16, literal(-2)))
          CFI (cfiCond224) DPH0 load(1, XDATA, add(CFA_XSP16, literal(-1)))
          CFI (cfiCond224) CFA_SP SP+0
          CFI (cfiCond224) CFA_XSP16 add(XSP16, 12)
          CFI Block cfiPicker225 Using cfiCommon1
          CFI (cfiPicker225) NoFunction
          CFI (cfiPicker225) Picker
        MOVX    @DPTR,A
        ; Setup parameters for call to function MT_BuildAndSendZToolResponse
        ; Setup parameters for call to function MT_BuildAndSendZToolResponse
        MOV     DPL,?XSP + 0
        MOV     DPH,?XSP + 1
        MOV     R4,DPL
        MOV     R5,DPH
        RET
          CFI EndBlock cfiCond223
          CFI EndBlock cfiCond224
          CFI EndBlock cfiPicker225

        RSEG BANKED_CODE:CODE:NOROOT(0)
?Subroutine22:
          CFI Block cfiCond226 Using cfiCommon0
          CFI Function MT_AfDataRetrieve
          CFI Conditional ??CrossCallReturnLabel_33
          CFI R6 load(1, XDATA, add(CFA_XSP16, literal(-24)))
          CFI VB load(1, XDATA, add(CFA_XSP16, literal(-23)))
          CFI V0 load(1, XDATA, add(CFA_XSP16, literal(-22)))
          CFI V1 load(1, XDATA, add(CFA_XSP16, literal(-21)))
          CFI V2 load(1, XDATA, add(CFA_XSP16, literal(-20)))
          CFI V3 load(1, XDATA, add(CFA_XSP16, literal(-19)))
          CFI V4 load(1, XDATA, add(CFA_XSP16, literal(-18)))
          CFI V5 load(1, XDATA, add(CFA_XSP16, literal(-17)))
          CFI V6 load(1, XDATA, add(CFA_XSP16, literal(-16)))
          CFI V7 load(1, XDATA, add(CFA_XSP16, literal(-15)))
          CFI V8 load(1, XDATA, add(CFA_XSP16, literal(-14)))
          CFI V9 load(1, XDATA, add(CFA_XSP16, literal(-13)))
          CFI V10 load(1, XDATA, add(CFA_XSP16, literal(-12)))
          CFI V11 load(1, XDATA, add(CFA_XSP16, literal(-11)))
          CFI V12 load(1, XDATA, add(CFA_XSP16, literal(-10)))
          CFI V13 load(1, XDATA, add(CFA_XSP16, literal(-9)))
          CFI V14 load(1, XDATA, add(CFA_XSP16, literal(-8)))
          CFI V15 load(1, XDATA, add(CFA_XSP16, literal(-7)))
          CFI R7 load(1, XDATA, add(CFA_XSP16, literal(-6)))
          CFI ?RET_LOW load(1, XDATA, add(CFA_XSP16, literal(-5)))
          CFI ?RET_HIGH load(1, XDATA, add(CFA_XSP16, literal(-4)))
          CFI ?BRET_EXT load(1, XDATA, add(CFA_XSP16, literal(-3)))
          CFI DPL0 load(1, XDATA, add(CFA_XSP16, literal(-2)))
          CFI DPH0 load(1, XDATA, add(CFA_XSP16, literal(-1)))
          CFI CFA_SP SP+0
          CFI CFA_XSP16 add(XSP16, 24)
          CFI Block cfiCond227 Using cfiCommon0
          CFI (cfiCond227) Function MT_AfDataStore
          CFI (cfiCond227) Conditional ??CrossCallReturnLabel_34
          CFI (cfiCond227) R6 load(1, XDATA, add(CFA_XSP16, literal(-11)))
          CFI (cfiCond227) VB load(1, XDATA, add(CFA_XSP16, literal(-10)))
          CFI (cfiCond227) V0 load(1, XDATA, add(CFA_XSP16, literal(-9)))
          CFI (cfiCond227) V1 load(1, XDATA, add(CFA_XSP16, literal(-8)))
          CFI (cfiCond227) V2 load(1, XDATA, add(CFA_XSP16, literal(-7)))
          CFI (cfiCond227) R7 load(1, XDATA, add(CFA_XSP16, literal(-6)))
          CFI (cfiCond227) ?RET_LOW load(1, XDATA, add(CFA_XSP16, literal(-5)))
          CFI (cfiCond227) ?RET_HIGH load(1, XDATA, add(CFA_XSP16, literal(-4)))
          CFI (cfiCond227) ?BRET_EXT load(1, XDATA, add(CFA_XSP16, literal(-3)))
          CFI (cfiCond227) DPL0 load(1, XDATA, add(CFA_XSP16, literal(-2)))
          CFI (cfiCond227) DPH0 load(1, XDATA, add(CFA_XSP16, literal(-1)))
          CFI (cfiCond227) CFA_SP SP+0
          CFI (cfiCond227) CFA_XSP16 add(XSP16, 12)
          CFI Block cfiPicker228 Using cfiCommon1
          CFI (cfiPicker228) NoFunction
          CFI (cfiPicker228) Picker
        MOVX    A,@DPTR
        MOV     R4,A
        INC     DPTR
        MOVX    A,@DPTR
        MOV     R1,A
        MOV     A,R4
        ADD     A,#0x0
        RET
          CFI EndBlock cfiCond226
          CFI EndBlock cfiCond227
          CFI EndBlock cfiPicker228

        RSEG BANKED_CODE:CODE:NOROOT(0)
?Subroutine17:
          CFI Block cfiCond229 Using cfiCommon0
          CFI Function MT_AfDataRequest
          CFI Conditional ??CrossCallReturnLabel_24
          CFI R6 load(1, XDATA, add(CFA_XSP16, literal(-20)))
          CFI VB load(1, XDATA, add(CFA_XSP16, literal(-19)))
          CFI V0 load(1, XDATA, add(CFA_XSP16, literal(-18)))
          CFI V1 load(1, XDATA, add(CFA_XSP16, literal(-17)))
          CFI V2 load(1, XDATA, add(CFA_XSP16, literal(-16)))
          CFI V3 load(1, XDATA, add(CFA_XSP16, literal(-15)))
          CFI V4 load(1, XDATA, add(CFA_XSP16, literal(-14)))
          CFI V5 load(1, XDATA, add(CFA_XSP16, literal(-13)))
          CFI V6 load(1, XDATA, add(CFA_XSP16, literal(-12)))
          CFI V7 load(1, XDATA, add(CFA_XSP16, literal(-11)))
          CFI V8 load(1, XDATA, add(CFA_XSP16, literal(-10)))
          CFI V9 load(1, XDATA, add(CFA_XSP16, literal(-9)))
          CFI V10 load(1, XDATA, add(CFA_XSP16, literal(-8)))
          CFI V11 load(1, XDATA, add(CFA_XSP16, literal(-7)))
          CFI R7 load(1, XDATA, add(CFA_XSP16, literal(-6)))
          CFI ?RET_LOW load(1, XDATA, add(CFA_XSP16, literal(-5)))
          CFI ?RET_HIGH load(1, XDATA, add(CFA_XSP16, literal(-4)))
          CFI ?BRET_EXT load(1, XDATA, add(CFA_XSP16, literal(-3)))
          CFI DPL0 load(1, XDATA, add(CFA_XSP16, literal(-2)))
          CFI DPH0 load(1, XDATA, add(CFA_XSP16, literal(-1)))
          CFI CFA_SP SP+0
          CFI CFA_XSP16 add(XSP16, 37)
          CFI Block cfiCond230 Using cfiCommon0
          CFI (cfiCond230) Function MT_AfDataStore
          CFI (cfiCond230) Conditional ??CrossCallReturnLabel_25
          CFI (cfiCond230) R6 load(1, XDATA, add(CFA_XSP16, literal(-11)))
          CFI (cfiCond230) VB load(1, XDATA, add(CFA_XSP16, literal(-10)))
          CFI (cfiCond230) V0 load(1, XDATA, add(CFA_XSP16, literal(-9)))
          CFI (cfiCond230) V1 load(1, XDATA, add(CFA_XSP16, literal(-8)))
          CFI (cfiCond230) V2 load(1, XDATA, add(CFA_XSP16, literal(-7)))
          CFI (cfiCond230) R7 load(1, XDATA, add(CFA_XSP16, literal(-6)))
          CFI (cfiCond230) ?RET_LOW load(1, XDATA, add(CFA_XSP16, literal(-5)))
          CFI (cfiCond230) ?RET_HIGH load(1, XDATA, add(CFA_XSP16, literal(-4)))
          CFI (cfiCond230) ?BRET_EXT load(1, XDATA, add(CFA_XSP16, literal(-3)))
          CFI (cfiCond230) DPL0 load(1, XDATA, add(CFA_XSP16, literal(-2)))
          CFI (cfiCond230) DPH0 load(1, XDATA, add(CFA_XSP16, literal(-1)))
          CFI (cfiCond230) CFA_SP SP+0
          CFI (cfiCond230) CFA_XSP16 add(XSP16, 21)
          CFI Block cfiPicker231 Using cfiCommon1
          CFI (cfiPicker231) NoFunction
          CFI (cfiPicker231) Picker
        MOV     DPTR,#pMtAfDataReq
        MOVX    A,@DPTR
        ADD     A,#0x2
        MOV     R2,A
        INC     DPTR
        MOVX    A,@DPTR
        ADDC    A,#0x0
        MOV     R3,A
        RET
          CFI EndBlock cfiCond229
          CFI EndBlock cfiCond230
          CFI EndBlock cfiPicker231

        RSEG BANKED_CODE:CODE:NOROOT(0)
?Subroutine14:
          CFI Block cfiCond232 Using cfiCommon0
          CFI Function MT_AfDataRequest
          CFI Conditional ??CrossCallReturnLabel_18
          CFI R6 load(1, XDATA, add(CFA_XSP16, literal(-20)))
          CFI VB load(1, XDATA, add(CFA_XSP16, literal(-19)))
          CFI V0 load(1, XDATA, add(CFA_XSP16, literal(-18)))
          CFI V1 load(1, XDATA, add(CFA_XSP16, literal(-17)))
          CFI V2 load(1, XDATA, add(CFA_XSP16, literal(-16)))
          CFI V3 load(1, XDATA, add(CFA_XSP16, literal(-15)))
          CFI V4 load(1, XDATA, add(CFA_XSP16, literal(-14)))
          CFI V5 load(1, XDATA, add(CFA_XSP16, literal(-13)))
          CFI V6 load(1, XDATA, add(CFA_XSP16, literal(-12)))
          CFI V7 load(1, XDATA, add(CFA_XSP16, literal(-11)))
          CFI V8 load(1, XDATA, add(CFA_XSP16, literal(-10)))
          CFI V9 load(1, XDATA, add(CFA_XSP16, literal(-9)))
          CFI V10 load(1, XDATA, add(CFA_XSP16, literal(-8)))
          CFI V11 load(1, XDATA, add(CFA_XSP16, literal(-7)))
          CFI R7 load(1, XDATA, add(CFA_XSP16, literal(-6)))
          CFI ?RET_LOW load(1, XDATA, add(CFA_XSP16, literal(-5)))
          CFI ?RET_HIGH load(1, XDATA, add(CFA_XSP16, literal(-4)))
          CFI ?BRET_EXT load(1, XDATA, add(CFA_XSP16, literal(-3)))
          CFI DPL0 load(1, XDATA, add(CFA_XSP16, literal(-2)))
          CFI DPH0 load(1, XDATA, add(CFA_XSP16, literal(-1)))
          CFI CFA_SP SP+0
          CFI CFA_XSP16 add(XSP16, 34)
          CFI Block cfiCond233 Using cfiCommon0
          CFI (cfiCond233) Function MT_AfDataStore
          CFI (cfiCond233) Conditional ??CrossCallReturnLabel_19
          CFI (cfiCond233) R6 load(1, XDATA, add(CFA_XSP16, literal(-11)))
          CFI (cfiCond233) VB load(1, XDATA, add(CFA_XSP16, literal(-10)))
          CFI (cfiCond233) V0 load(1, XDATA, add(CFA_XSP16, literal(-9)))
          CFI (cfiCond233) V1 load(1, XDATA, add(CFA_XSP16, literal(-8)))
          CFI (cfiCond233) V2 load(1, XDATA, add(CFA_XSP16, literal(-7)))
          CFI (cfiCond233) R7 load(1, XDATA, add(CFA_XSP16, literal(-6)))
          CFI (cfiCond233) ?RET_LOW load(1, XDATA, add(CFA_XSP16, literal(-5)))
          CFI (cfiCond233) ?RET_HIGH load(1, XDATA, add(CFA_XSP16, literal(-4)))
          CFI (cfiCond233) ?BRET_EXT load(1, XDATA, add(CFA_XSP16, literal(-3)))
          CFI (cfiCond233) DPL0 load(1, XDATA, add(CFA_XSP16, literal(-2)))
          CFI (cfiCond233) DPH0 load(1, XDATA, add(CFA_XSP16, literal(-1)))
          CFI (cfiCond233) CFA_SP SP+0
          CFI (cfiCond233) CFA_XSP16 add(XSP16, 15)
          CFI Block cfiCond234 Using cfiCommon0
          CFI (cfiCond234) Function MT_AfDataStore
          CFI (cfiCond234) Conditional ??CrossCallReturnLabel_20
          CFI (cfiCond234) R6 load(1, XDATA, add(CFA_XSP16, literal(-11)))
          CFI (cfiCond234) VB load(1, XDATA, add(CFA_XSP16, literal(-10)))
          CFI (cfiCond234) V0 load(1, XDATA, add(CFA_XSP16, literal(-9)))
          CFI (cfiCond234) V1 load(1, XDATA, add(CFA_XSP16, literal(-8)))
          CFI (cfiCond234) V2 load(1, XDATA, add(CFA_XSP16, literal(-7)))
          CFI (cfiCond234) R7 load(1, XDATA, add(CFA_XSP16, literal(-6)))
          CFI (cfiCond234) ?RET_LOW load(1, XDATA, add(CFA_XSP16, literal(-5)))
          CFI (cfiCond234) ?RET_HIGH load(1, XDATA, add(CFA_XSP16, literal(-4)))
          CFI (cfiCond234) ?BRET_EXT load(1, XDATA, add(CFA_XSP16, literal(-3)))
          CFI (cfiCond234) DPL0 load(1, XDATA, add(CFA_XSP16, literal(-2)))
          CFI (cfiCond234) DPH0 load(1, XDATA, add(CFA_XSP16, literal(-1)))
          CFI (cfiCond234) CFA_SP SP+0
          CFI (cfiCond234) CFA_XSP16 add(XSP16, 15)
          CFI Block cfiPicker235 Using cfiCommon1
          CFI (cfiPicker235) NoFunction
          CFI (cfiPicker235) Picker
        MOV     DPTR,#pMtAfDataReq
        MOVX    A,@DPTR
        MOV     R0,A
        INC     DPTR
        MOVX    A,@DPTR
        MOV     DPH,A
        MOV     DPL,R0
        RET
          CFI EndBlock cfiCond232
          CFI EndBlock cfiCond233
          CFI EndBlock cfiCond234
          CFI EndBlock cfiPicker235

        RSEG BANKED_CODE:CODE:NOROOT(0)
?Subroutine13:
          CFI Block cfiCond236 Using cfiCommon0
          CFI Function MT_AfDataRequest
          CFI Conditional ??CrossCallReturnLabel_16
          CFI R6 load(1, XDATA, add(CFA_XSP16, literal(-20)))
          CFI VB load(1, XDATA, add(CFA_XSP16, literal(-19)))
          CFI V0 load(1, XDATA, add(CFA_XSP16, literal(-18)))
          CFI V1 load(1, XDATA, add(CFA_XSP16, literal(-17)))
          CFI V2 load(1, XDATA, add(CFA_XSP16, literal(-16)))
          CFI V3 load(1, XDATA, add(CFA_XSP16, literal(-15)))
          CFI V4 load(1, XDATA, add(CFA_XSP16, literal(-14)))
          CFI V5 load(1, XDATA, add(CFA_XSP16, literal(-13)))
          CFI V6 load(1, XDATA, add(CFA_XSP16, literal(-12)))
          CFI V7 load(1, XDATA, add(CFA_XSP16, literal(-11)))
          CFI V8 load(1, XDATA, add(CFA_XSP16, literal(-10)))
          CFI V9 load(1, XDATA, add(CFA_XSP16, literal(-9)))
          CFI V10 load(1, XDATA, add(CFA_XSP16, literal(-8)))
          CFI V11 load(1, XDATA, add(CFA_XSP16, literal(-7)))
          CFI R7 load(1, XDATA, add(CFA_XSP16, literal(-6)))
          CFI ?RET_LOW load(1, XDATA, add(CFA_XSP16, literal(-5)))
          CFI ?RET_HIGH load(1, XDATA, add(CFA_XSP16, literal(-4)))
          CFI ?BRET_EXT load(1, XDATA, add(CFA_XSP16, literal(-3)))
          CFI DPL0 load(1, XDATA, add(CFA_XSP16, literal(-2)))
          CFI DPH0 load(1, XDATA, add(CFA_XSP16, literal(-1)))
          CFI CFA_SP SP+0
          CFI CFA_XSP16 add(XSP16, 34)
          CFI Block cfiCond237 Using cfiCommon0
          CFI (cfiCond237) Function MT_AfDataStore
          CFI (cfiCond237) Conditional ??CrossCallReturnLabel_17
          CFI (cfiCond237) R6 load(1, XDATA, add(CFA_XSP16, literal(-11)))
          CFI (cfiCond237) VB load(1, XDATA, add(CFA_XSP16, literal(-10)))
          CFI (cfiCond237) V0 load(1, XDATA, add(CFA_XSP16, literal(-9)))
          CFI (cfiCond237) V1 load(1, XDATA, add(CFA_XSP16, literal(-8)))
          CFI (cfiCond237) V2 load(1, XDATA, add(CFA_XSP16, literal(-7)))
          CFI (cfiCond237) R7 load(1, XDATA, add(CFA_XSP16, literal(-6)))
          CFI (cfiCond237) ?RET_LOW load(1, XDATA, add(CFA_XSP16, literal(-5)))
          CFI (cfiCond237) ?RET_HIGH load(1, XDATA, add(CFA_XSP16, literal(-4)))
          CFI (cfiCond237) ?BRET_EXT load(1, XDATA, add(CFA_XSP16, literal(-3)))
          CFI (cfiCond237) DPL0 load(1, XDATA, add(CFA_XSP16, literal(-2)))
          CFI (cfiCond237) DPH0 load(1, XDATA, add(CFA_XSP16, literal(-1)))
          CFI (cfiCond237) CFA_SP SP+0
          CFI (cfiCond237) CFA_XSP16 add(XSP16, 12)
          CFI Block cfiPicker238 Using cfiCommon1
          CFI (cfiPicker238) NoFunction
          CFI (cfiPicker238) Picker
        LCALL   ?Subroutine40 & 0xFFFF
??CrossCallReturnLabel_77:
        ADD     A,#0x16
        LCALL   ?Subroutine42 & 0xFFFF
??CrossCallReturnLabel_139:
        RET
          CFI EndBlock cfiCond236
          CFI EndBlock cfiCond237
          CFI EndBlock cfiPicker238

        RSEG BANKED_CODE:CODE:NOROOT(0)
?Subroutine12:
          CFI Block cfiCond239 Using cfiCommon0
          CFI Function MT_AfDataRequest
          CFI Conditional ??CrossCallReturnLabel_14
          CFI R6 load(1, XDATA, add(CFA_XSP16, literal(-20)))
          CFI VB load(1, XDATA, add(CFA_XSP16, literal(-19)))
          CFI V0 load(1, XDATA, add(CFA_XSP16, literal(-18)))
          CFI V1 load(1, XDATA, add(CFA_XSP16, literal(-17)))
          CFI V2 load(1, XDATA, add(CFA_XSP16, literal(-16)))
          CFI V3 load(1, XDATA, add(CFA_XSP16, literal(-15)))
          CFI V4 load(1, XDATA, add(CFA_XSP16, literal(-14)))
          CFI V5 load(1, XDATA, add(CFA_XSP16, literal(-13)))
          CFI V6 load(1, XDATA, add(CFA_XSP16, literal(-12)))
          CFI V7 load(1, XDATA, add(CFA_XSP16, literal(-11)))
          CFI V8 load(1, XDATA, add(CFA_XSP16, literal(-10)))
          CFI V9 load(1, XDATA, add(CFA_XSP16, literal(-9)))
          CFI V10 load(1, XDATA, add(CFA_XSP16, literal(-8)))
          CFI V11 load(1, XDATA, add(CFA_XSP16, literal(-7)))
          CFI R7 load(1, XDATA, add(CFA_XSP16, literal(-6)))
          CFI ?RET_LOW load(1, XDATA, add(CFA_XSP16, literal(-5)))
          CFI ?RET_HIGH load(1, XDATA, add(CFA_XSP16, literal(-4)))
          CFI ?BRET_EXT load(1, XDATA, add(CFA_XSP16, literal(-3)))
          CFI DPL0 load(1, XDATA, add(CFA_XSP16, literal(-2)))
          CFI DPH0 load(1, XDATA, add(CFA_XSP16, literal(-1)))
          CFI CFA_SP SP+0
          CFI CFA_XSP16 add(XSP16, 34)
          CFI Block cfiCond240 Using cfiCommon0
          CFI (cfiCond240) Function MT_AfDataStore
          CFI (cfiCond240) Conditional ??CrossCallReturnLabel_15
          CFI (cfiCond240) R6 load(1, XDATA, add(CFA_XSP16, literal(-11)))
          CFI (cfiCond240) VB load(1, XDATA, add(CFA_XSP16, literal(-10)))
          CFI (cfiCond240) V0 load(1, XDATA, add(CFA_XSP16, literal(-9)))
          CFI (cfiCond240) V1 load(1, XDATA, add(CFA_XSP16, literal(-8)))
          CFI (cfiCond240) V2 load(1, XDATA, add(CFA_XSP16, literal(-7)))
          CFI (cfiCond240) R7 load(1, XDATA, add(CFA_XSP16, literal(-6)))
          CFI (cfiCond240) ?RET_LOW load(1, XDATA, add(CFA_XSP16, literal(-5)))
          CFI (cfiCond240) ?RET_HIGH load(1, XDATA, add(CFA_XSP16, literal(-4)))
          CFI (cfiCond240) ?BRET_EXT load(1, XDATA, add(CFA_XSP16, literal(-3)))
          CFI (cfiCond240) DPL0 load(1, XDATA, add(CFA_XSP16, literal(-2)))
          CFI (cfiCond240) DPH0 load(1, XDATA, add(CFA_XSP16, literal(-1)))
          CFI (cfiCond240) CFA_SP SP+0
          CFI (cfiCond240) CFA_XSP16 add(XSP16, 21)
          CFI Block cfiPicker241 Using cfiCommon1
          CFI (cfiPicker241) NoFunction
          CFI (cfiPicker241) Picker
        LCALL   ?Subroutine40 & 0xFFFF
??CrossCallReturnLabel_76:
        ADD     A,#0x15
        LCALL   ?Subroutine42 & 0xFFFF
??CrossCallReturnLabel_138:
        RET
          CFI EndBlock cfiCond239
          CFI EndBlock cfiCond240
          CFI EndBlock cfiPicker241

        RSEG BANKED_CODE:CODE:NOROOT(0)
?Subroutine40:
          CFI Block cfiCond242 Using cfiCommon0
          CFI Function MT_AfDataRequest
          CFI Conditional ??CrossCallReturnLabel_71
          CFI R6 load(1, XDATA, add(CFA_XSP16, literal(-20)))
          CFI VB load(1, XDATA, add(CFA_XSP16, literal(-19)))
          CFI V0 load(1, XDATA, add(CFA_XSP16, literal(-18)))
          CFI V1 load(1, XDATA, add(CFA_XSP16, literal(-17)))
          CFI V2 load(1, XDATA, add(CFA_XSP16, literal(-16)))
          CFI V3 load(1, XDATA, add(CFA_XSP16, literal(-15)))
          CFI V4 load(1, XDATA, add(CFA_XSP16, literal(-14)))
          CFI V5 load(1, XDATA, add(CFA_XSP16, literal(-13)))
          CFI V6 load(1, XDATA, add(CFA_XSP16, literal(-12)))
          CFI V7 load(1, XDATA, add(CFA_XSP16, literal(-11)))
          CFI V8 load(1, XDATA, add(CFA_XSP16, literal(-10)))
          CFI V9 load(1, XDATA, add(CFA_XSP16, literal(-9)))
          CFI V10 load(1, XDATA, add(CFA_XSP16, literal(-8)))
          CFI V11 load(1, XDATA, add(CFA_XSP16, literal(-7)))
          CFI R7 load(1, XDATA, add(CFA_XSP16, literal(-6)))
          CFI ?RET_LOW load(1, XDATA, add(CFA_XSP16, literal(-5)))
          CFI ?RET_HIGH load(1, XDATA, add(CFA_XSP16, literal(-4)))
          CFI ?BRET_EXT load(1, XDATA, add(CFA_XSP16, literal(-3)))
          CFI DPL0 load(1, XDATA, add(CFA_XSP16, literal(-2)))
          CFI DPH0 load(1, XDATA, add(CFA_XSP16, literal(-1)))
          CFI CFA_SP SP+-1
          CFI CFA_XSP16 add(XSP16, 34)
          CFI Block cfiCond243 Using cfiCommon0
          CFI (cfiCond243) Function MT_AfExec
          CFI (cfiCond243) Conditional ??CrossCallReturnLabel_72, ??CrossCallReturnLabel_7
          CFI (cfiCond243) R6 load(1, XDATA, add(CFA_XSP16, literal(-9)))
          CFI (cfiCond243) VB load(1, XDATA, add(CFA_XSP16, literal(-8)))
          CFI (cfiCond243) V0 load(1, XDATA, add(CFA_XSP16, literal(-7)))
          CFI (cfiCond243) R7 load(1, XDATA, add(CFA_XSP16, literal(-6)))
          CFI (cfiCond243) ?RET_LOW load(1, XDATA, add(CFA_XSP16, literal(-5)))
          CFI (cfiCond243) ?RET_HIGH load(1, XDATA, add(CFA_XSP16, literal(-4)))
          CFI (cfiCond243) ?BRET_EXT load(1, XDATA, add(CFA_XSP16, literal(-3)))
          CFI (cfiCond243) DPL0 load(1, XDATA, add(CFA_XSP16, literal(-2)))
          CFI (cfiCond243) DPH0 load(1, XDATA, add(CFA_XSP16, literal(-1)))
          CFI (cfiCond243) CFA_SP SP+0
          CFI (cfiCond243) CFA_XSP16 add(XSP16, 9)
          CFI Block cfiCond244 Using cfiCommon0
          CFI (cfiCond244) Function MT_AfDataRequest
          CFI (cfiCond244) Conditional ??CrossCallReturnLabel_72, ??CrossCallReturnLabel_6
          CFI (cfiCond244) R6 load(1, XDATA, add(CFA_XSP16, literal(-20)))
          CFI (cfiCond244) VB load(1, XDATA, add(CFA_XSP16, literal(-19)))
          CFI (cfiCond244) V0 load(1, XDATA, add(CFA_XSP16, literal(-18)))
          CFI (cfiCond244) V1 load(1, XDATA, add(CFA_XSP16, literal(-17)))
          CFI (cfiCond244) V2 load(1, XDATA, add(CFA_XSP16, literal(-16)))
          CFI (cfiCond244) V3 load(1, XDATA, add(CFA_XSP16, literal(-15)))
          CFI (cfiCond244) V4 load(1, XDATA, add(CFA_XSP16, literal(-14)))
          CFI (cfiCond244) V5 load(1, XDATA, add(CFA_XSP16, literal(-13)))
          CFI (cfiCond244) V6 load(1, XDATA, add(CFA_XSP16, literal(-12)))
          CFI (cfiCond244) V7 load(1, XDATA, add(CFA_XSP16, literal(-11)))
          CFI (cfiCond244) V8 load(1, XDATA, add(CFA_XSP16, literal(-10)))
          CFI (cfiCond244) V9 load(1, XDATA, add(CFA_XSP16, literal(-9)))
          CFI (cfiCond244) V10 load(1, XDATA, add(CFA_XSP16, literal(-8)))
          CFI (cfiCond244) V11 load(1, XDATA, add(CFA_XSP16, literal(-7)))
          CFI (cfiCond244) R7 load(1, XDATA, add(CFA_XSP16, literal(-6)))
          CFI (cfiCond244) ?RET_LOW load(1, XDATA, add(CFA_XSP16, literal(-5)))
          CFI (cfiCond244) ?RET_HIGH load(1, XDATA, add(CFA_XSP16, literal(-4)))
          CFI (cfiCond244) ?BRET_EXT load(1, XDATA, add(CFA_XSP16, literal(-3)))
          CFI (cfiCond244) DPL0 load(1, XDATA, add(CFA_XSP16, literal(-2)))
          CFI (cfiCond244) DPH0 load(1, XDATA, add(CFA_XSP16, literal(-1)))
          CFI (cfiCond244) CFA_SP SP+0
          CFI (cfiCond244) CFA_XSP16 add(XSP16, 34)
          CFI Block cfiCond245 Using cfiCommon0
          CFI (cfiCond245) Function MT_AfDataRequest
          CFI (cfiCond245) Conditional ??CrossCallReturnLabel_77, ??CrossCallReturnLabel_16
          CFI (cfiCond245) R6 load(1, XDATA, add(CFA_XSP16, literal(-20)))
          CFI (cfiCond245) VB load(1, XDATA, add(CFA_XSP16, literal(-19)))
          CFI (cfiCond245) V0 load(1, XDATA, add(CFA_XSP16, literal(-18)))
          CFI (cfiCond245) V1 load(1, XDATA, add(CFA_XSP16, literal(-17)))
          CFI (cfiCond245) V2 load(1, XDATA, add(CFA_XSP16, literal(-16)))
          CFI (cfiCond245) V3 load(1, XDATA, add(CFA_XSP16, literal(-15)))
          CFI (cfiCond245) V4 load(1, XDATA, add(CFA_XSP16, literal(-14)))
          CFI (cfiCond245) V5 load(1, XDATA, add(CFA_XSP16, literal(-13)))
          CFI (cfiCond245) V6 load(1, XDATA, add(CFA_XSP16, literal(-12)))
          CFI (cfiCond245) V7 load(1, XDATA, add(CFA_XSP16, literal(-11)))
          CFI (cfiCond245) V8 load(1, XDATA, add(CFA_XSP16, literal(-10)))
          CFI (cfiCond245) V9 load(1, XDATA, add(CFA_XSP16, literal(-9)))
          CFI (cfiCond245) V10 load(1, XDATA, add(CFA_XSP16, literal(-8)))
          CFI (cfiCond245) V11 load(1, XDATA, add(CFA_XSP16, literal(-7)))
          CFI (cfiCond245) R7 load(1, XDATA, add(CFA_XSP16, literal(-6)))
          CFI (cfiCond245) ?RET_LOW load(1, XDATA, add(CFA_XSP16, literal(-5)))
          CFI (cfiCond245) ?RET_HIGH load(1, XDATA, add(CFA_XSP16, literal(-4)))
          CFI (cfiCond245) ?BRET_EXT load(1, XDATA, add(CFA_XSP16, literal(-3)))
          CFI (cfiCond245) DPL0 load(1, XDATA, add(CFA_XSP16, literal(-2)))
          CFI (cfiCond245) DPH0 load(1, XDATA, add(CFA_XSP16, literal(-1)))
          CFI (cfiCond245) CFA_SP SP+0
          CFI (cfiCond245) CFA_XSP16 add(XSP16, 34)
          CFI Block cfiCond246 Using cfiCommon0
          CFI (cfiCond246) Function MT_AfDataStore
          CFI (cfiCond246) Conditional ??CrossCallReturnLabel_77, ??CrossCallReturnLabel_17
          CFI (cfiCond246) R6 load(1, XDATA, add(CFA_XSP16, literal(-11)))
          CFI (cfiCond246) VB load(1, XDATA, add(CFA_XSP16, literal(-10)))
          CFI (cfiCond246) V0 load(1, XDATA, add(CFA_XSP16, literal(-9)))
          CFI (cfiCond246) V1 load(1, XDATA, add(CFA_XSP16, literal(-8)))
          CFI (cfiCond246) V2 load(1, XDATA, add(CFA_XSP16, literal(-7)))
          CFI (cfiCond246) R7 load(1, XDATA, add(CFA_XSP16, literal(-6)))
          CFI (cfiCond246) ?RET_LOW load(1, XDATA, add(CFA_XSP16, literal(-5)))
          CFI (cfiCond246) ?RET_HIGH load(1, XDATA, add(CFA_XSP16, literal(-4)))
          CFI (cfiCond246) ?BRET_EXT load(1, XDATA, add(CFA_XSP16, literal(-3)))
          CFI (cfiCond246) DPL0 load(1, XDATA, add(CFA_XSP16, literal(-2)))
          CFI (cfiCond246) DPH0 load(1, XDATA, add(CFA_XSP16, literal(-1)))
          CFI (cfiCond246) CFA_SP SP+0
          CFI (cfiCond246) CFA_XSP16 add(XSP16, 12)
          CFI Block cfiCond247 Using cfiCommon0
          CFI (cfiCond247) Function MT_AfDataRequest
          CFI (cfiCond247) Conditional ??CrossCallReturnLabel_76, ??CrossCallReturnLabel_14
          CFI (cfiCond247) R6 load(1, XDATA, add(CFA_XSP16, literal(-20)))
          CFI (cfiCond247) VB load(1, XDATA, add(CFA_XSP16, literal(-19)))
          CFI (cfiCond247) V0 load(1, XDATA, add(CFA_XSP16, literal(-18)))
          CFI (cfiCond247) V1 load(1, XDATA, add(CFA_XSP16, literal(-17)))
          CFI (cfiCond247) V2 load(1, XDATA, add(CFA_XSP16, literal(-16)))
          CFI (cfiCond247) V3 load(1, XDATA, add(CFA_XSP16, literal(-15)))
          CFI (cfiCond247) V4 load(1, XDATA, add(CFA_XSP16, literal(-14)))
          CFI (cfiCond247) V5 load(1, XDATA, add(CFA_XSP16, literal(-13)))
          CFI (cfiCond247) V6 load(1, XDATA, add(CFA_XSP16, literal(-12)))
          CFI (cfiCond247) V7 load(1, XDATA, add(CFA_XSP16, literal(-11)))
          CFI (cfiCond247) V8 load(1, XDATA, add(CFA_XSP16, literal(-10)))
          CFI (cfiCond247) V9 load(1, XDATA, add(CFA_XSP16, literal(-9)))
          CFI (cfiCond247) V10 load(1, XDATA, add(CFA_XSP16, literal(-8)))
          CFI (cfiCond247) V11 load(1, XDATA, add(CFA_XSP16, literal(-7)))
          CFI (cfiCond247) R7 load(1, XDATA, add(CFA_XSP16, literal(-6)))
          CFI (cfiCond247) ?RET_LOW load(1, XDATA, add(CFA_XSP16, literal(-5)))
          CFI (cfiCond247) ?RET_HIGH load(1, XDATA, add(CFA_XSP16, literal(-4)))
          CFI (cfiCond247) ?BRET_EXT load(1, XDATA, add(CFA_XSP16, literal(-3)))
          CFI (cfiCond247) DPL0 load(1, XDATA, add(CFA_XSP16, literal(-2)))
          CFI (cfiCond247) DPH0 load(1, XDATA, add(CFA_XSP16, literal(-1)))
          CFI (cfiCond247) CFA_SP SP+0
          CFI (cfiCond247) CFA_XSP16 add(XSP16, 34)
          CFI Block cfiCond248 Using cfiCommon0
          CFI (cfiCond248) Function MT_AfDataStore
          CFI (cfiCond248) Conditional ??CrossCallReturnLabel_76, ??CrossCallReturnLabel_15
          CFI (cfiCond248) R6 load(1, XDATA, add(CFA_XSP16, literal(-11)))
          CFI (cfiCond248) VB load(1, XDATA, add(CFA_XSP16, literal(-10)))
          CFI (cfiCond248) V0 load(1, XDATA, add(CFA_XSP16, literal(-9)))
          CFI (cfiCond248) V1 load(1, XDATA, add(CFA_XSP16, literal(-8)))
          CFI (cfiCond248) V2 load(1, XDATA, add(CFA_XSP16, literal(-7)))
          CFI (cfiCond248) R7 load(1, XDATA, add(CFA_XSP16, literal(-6)))
          CFI (cfiCond248) ?RET_LOW load(1, XDATA, add(CFA_XSP16, literal(-5)))
          CFI (cfiCond248) ?RET_HIGH load(1, XDATA, add(CFA_XSP16, literal(-4)))
          CFI (cfiCond248) ?BRET_EXT load(1, XDATA, add(CFA_XSP16, literal(-3)))
          CFI (cfiCond248) DPL0 load(1, XDATA, add(CFA_XSP16, literal(-2)))
          CFI (cfiCond248) DPH0 load(1, XDATA, add(CFA_XSP16, literal(-1)))
          CFI (cfiCond248) CFA_SP SP+0
          CFI (cfiCond248) CFA_XSP16 add(XSP16, 21)
          CFI Block cfiCond249 Using cfiCommon0
          CFI (cfiCond249) Function MT_AfDataRequest
          CFI (cfiCond249) Conditional ??CrossCallReturnLabel_75, ??CrossCallReturnLabel_12
          CFI (cfiCond249) R6 load(1, XDATA, add(CFA_XSP16, literal(-20)))
          CFI (cfiCond249) VB load(1, XDATA, add(CFA_XSP16, literal(-19)))
          CFI (cfiCond249) V0 load(1, XDATA, add(CFA_XSP16, literal(-18)))
          CFI (cfiCond249) V1 load(1, XDATA, add(CFA_XSP16, literal(-17)))
          CFI (cfiCond249) V2 load(1, XDATA, add(CFA_XSP16, literal(-16)))
          CFI (cfiCond249) V3 load(1, XDATA, add(CFA_XSP16, literal(-15)))
          CFI (cfiCond249) V4 load(1, XDATA, add(CFA_XSP16, literal(-14)))
          CFI (cfiCond249) V5 load(1, XDATA, add(CFA_XSP16, literal(-13)))
          CFI (cfiCond249) V6 load(1, XDATA, add(CFA_XSP16, literal(-12)))
          CFI (cfiCond249) V7 load(1, XDATA, add(CFA_XSP16, literal(-11)))
          CFI (cfiCond249) V8 load(1, XDATA, add(CFA_XSP16, literal(-10)))
          CFI (cfiCond249) V9 load(1, XDATA, add(CFA_XSP16, literal(-9)))
          CFI (cfiCond249) V10 load(1, XDATA, add(CFA_XSP16, literal(-8)))
          CFI (cfiCond249) V11 load(1, XDATA, add(CFA_XSP16, literal(-7)))
          CFI (cfiCond249) R7 load(1, XDATA, add(CFA_XSP16, literal(-6)))
          CFI (cfiCond249) ?RET_LOW load(1, XDATA, add(CFA_XSP16, literal(-5)))
          CFI (cfiCond249) ?RET_HIGH load(1, XDATA, add(CFA_XSP16, literal(-4)))
          CFI (cfiCond249) ?BRET_EXT load(1, XDATA, add(CFA_XSP16, literal(-3)))
          CFI (cfiCond249) DPL0 load(1, XDATA, add(CFA_XSP16, literal(-2)))
          CFI (cfiCond249) DPH0 load(1, XDATA, add(CFA_XSP16, literal(-1)))
          CFI (cfiCond249) CFA_SP SP+0
          CFI (cfiCond249) CFA_XSP16 add(XSP16, 34)
          CFI Block cfiCond250 Using cfiCommon0
          CFI (cfiCond250) Function MT_AfDataStore
          CFI (cfiCond250) Conditional ??CrossCallReturnLabel_75, ??CrossCallReturnLabel_13
          CFI (cfiCond250) R6 load(1, XDATA, add(CFA_XSP16, literal(-11)))
          CFI (cfiCond250) VB load(1, XDATA, add(CFA_XSP16, literal(-10)))
          CFI (cfiCond250) V0 load(1, XDATA, add(CFA_XSP16, literal(-9)))
          CFI (cfiCond250) V1 load(1, XDATA, add(CFA_XSP16, literal(-8)))
          CFI (cfiCond250) V2 load(1, XDATA, add(CFA_XSP16, literal(-7)))
          CFI (cfiCond250) R7 load(1, XDATA, add(CFA_XSP16, literal(-6)))
          CFI (cfiCond250) ?RET_LOW load(1, XDATA, add(CFA_XSP16, literal(-5)))
          CFI (cfiCond250) ?RET_HIGH load(1, XDATA, add(CFA_XSP16, literal(-4)))
          CFI (cfiCond250) ?BRET_EXT load(1, XDATA, add(CFA_XSP16, literal(-3)))
          CFI (cfiCond250) DPL0 load(1, XDATA, add(CFA_XSP16, literal(-2)))
          CFI (cfiCond250) DPH0 load(1, XDATA, add(CFA_XSP16, literal(-1)))
          CFI (cfiCond250) CFA_SP SP+0
          CFI (cfiCond250) CFA_XSP16 add(XSP16, 17)
          CFI Block cfiCond251 Using cfiCommon0
          CFI (cfiCond251) Function MT_AfDataRequest
          CFI (cfiCond251) Conditional ??CrossCallReturnLabel_74, ??CrossCallReturnLabel_10
          CFI (cfiCond251) R6 load(1, XDATA, add(CFA_XSP16, literal(-20)))
          CFI (cfiCond251) VB load(1, XDATA, add(CFA_XSP16, literal(-19)))
          CFI (cfiCond251) V0 load(1, XDATA, add(CFA_XSP16, literal(-18)))
          CFI (cfiCond251) V1 load(1, XDATA, add(CFA_XSP16, literal(-17)))
          CFI (cfiCond251) V2 load(1, XDATA, add(CFA_XSP16, literal(-16)))
          CFI (cfiCond251) V3 load(1, XDATA, add(CFA_XSP16, literal(-15)))
          CFI (cfiCond251) V4 load(1, XDATA, add(CFA_XSP16, literal(-14)))
          CFI (cfiCond251) V5 load(1, XDATA, add(CFA_XSP16, literal(-13)))
          CFI (cfiCond251) V6 load(1, XDATA, add(CFA_XSP16, literal(-12)))
          CFI (cfiCond251) V7 load(1, XDATA, add(CFA_XSP16, literal(-11)))
          CFI (cfiCond251) V8 load(1, XDATA, add(CFA_XSP16, literal(-10)))
          CFI (cfiCond251) V9 load(1, XDATA, add(CFA_XSP16, literal(-9)))
          CFI (cfiCond251) V10 load(1, XDATA, add(CFA_XSP16, literal(-8)))
          CFI (cfiCond251) V11 load(1, XDATA, add(CFA_XSP16, literal(-7)))
          CFI (cfiCond251) R7 load(1, XDATA, add(CFA_XSP16, literal(-6)))
          CFI (cfiCond251) ?RET_LOW load(1, XDATA, add(CFA_XSP16, literal(-5)))
          CFI (cfiCond251) ?RET_HIGH load(1, XDATA, add(CFA_XSP16, literal(-4)))
          CFI (cfiCond251) ?BRET_EXT load(1, XDATA, add(CFA_XSP16, literal(-3)))
          CFI (cfiCond251) DPL0 load(1, XDATA, add(CFA_XSP16, literal(-2)))
          CFI (cfiCond251) DPH0 load(1, XDATA, add(CFA_XSP16, literal(-1)))
          CFI (cfiCond251) CFA_SP SP+0
          CFI (cfiCond251) CFA_XSP16 add(XSP16, 34)
          CFI Block cfiCond252 Using cfiCommon0
          CFI (cfiCond252) Function MT_AfDataStore
          CFI (cfiCond252) Conditional ??CrossCallReturnLabel_74, ??CrossCallReturnLabel_11
          CFI (cfiCond252) R6 load(1, XDATA, add(CFA_XSP16, literal(-11)))
          CFI (cfiCond252) VB load(1, XDATA, add(CFA_XSP16, literal(-10)))
          CFI (cfiCond252) V0 load(1, XDATA, add(CFA_XSP16, literal(-9)))
          CFI (cfiCond252) V1 load(1, XDATA, add(CFA_XSP16, literal(-8)))
          CFI (cfiCond252) V2 load(1, XDATA, add(CFA_XSP16, literal(-7)))
          CFI (cfiCond252) R7 load(1, XDATA, add(CFA_XSP16, literal(-6)))
          CFI (cfiCond252) ?RET_LOW load(1, XDATA, add(CFA_XSP16, literal(-5)))
          CFI (cfiCond252) ?RET_HIGH load(1, XDATA, add(CFA_XSP16, literal(-4)))
          CFI (cfiCond252) ?BRET_EXT load(1, XDATA, add(CFA_XSP16, literal(-3)))
          CFI (cfiCond252) DPL0 load(1, XDATA, add(CFA_XSP16, literal(-2)))
          CFI (cfiCond252) DPH0 load(1, XDATA, add(CFA_XSP16, literal(-1)))
          CFI (cfiCond252) CFA_SP SP+0
          CFI (cfiCond252) CFA_XSP16 add(XSP16, 19)
          CFI Block cfiCond253 Using cfiCommon0
          CFI (cfiCond253) Function MT_AfDataRequest
          CFI (cfiCond253) Conditional ??CrossCallReturnLabel_73, ??CrossCallReturnLabel_8
          CFI (cfiCond253) R6 load(1, XDATA, add(CFA_XSP16, literal(-20)))
          CFI (cfiCond253) VB load(1, XDATA, add(CFA_XSP16, literal(-19)))
          CFI (cfiCond253) V0 load(1, XDATA, add(CFA_XSP16, literal(-18)))
          CFI (cfiCond253) V1 load(1, XDATA, add(CFA_XSP16, literal(-17)))
          CFI (cfiCond253) V2 load(1, XDATA, add(CFA_XSP16, literal(-16)))
          CFI (cfiCond253) V3 load(1, XDATA, add(CFA_XSP16, literal(-15)))
          CFI (cfiCond253) V4 load(1, XDATA, add(CFA_XSP16, literal(-14)))
          CFI (cfiCond253) V5 load(1, XDATA, add(CFA_XSP16, literal(-13)))
          CFI (cfiCond253) V6 load(1, XDATA, add(CFA_XSP16, literal(-12)))
          CFI (cfiCond253) V7 load(1, XDATA, add(CFA_XSP16, literal(-11)))
          CFI (cfiCond253) V8 load(1, XDATA, add(CFA_XSP16, literal(-10)))
          CFI (cfiCond253) V9 load(1, XDATA, add(CFA_XSP16, literal(-9)))
          CFI (cfiCond253) V10 load(1, XDATA, add(CFA_XSP16, literal(-8)))
          CFI (cfiCond253) V11 load(1, XDATA, add(CFA_XSP16, literal(-7)))
          CFI (cfiCond253) R7 load(1, XDATA, add(CFA_XSP16, literal(-6)))
          CFI (cfiCond253) ?RET_LOW load(1, XDATA, add(CFA_XSP16, literal(-5)))
          CFI (cfiCond253) ?RET_HIGH load(1, XDATA, add(CFA_XSP16, literal(-4)))
          CFI (cfiCond253) ?BRET_EXT load(1, XDATA, add(CFA_XSP16, literal(-3)))
          CFI (cfiCond253) DPL0 load(1, XDATA, add(CFA_XSP16, literal(-2)))
          CFI (cfiCond253) DPH0 load(1, XDATA, add(CFA_XSP16, literal(-1)))
          CFI (cfiCond253) CFA_SP SP+0
          CFI (cfiCond253) CFA_XSP16 add(XSP16, 34)
          CFI Block cfiCond254 Using cfiCommon0
          CFI (cfiCond254) Function MT_AfDataStore
          CFI (cfiCond254) Conditional ??CrossCallReturnLabel_73, ??CrossCallReturnLabel_9
          CFI (cfiCond254) R6 load(1, XDATA, add(CFA_XSP16, literal(-11)))
          CFI (cfiCond254) VB load(1, XDATA, add(CFA_XSP16, literal(-10)))
          CFI (cfiCond254) V0 load(1, XDATA, add(CFA_XSP16, literal(-9)))
          CFI (cfiCond254) V1 load(1, XDATA, add(CFA_XSP16, literal(-8)))
          CFI (cfiCond254) V2 load(1, XDATA, add(CFA_XSP16, literal(-7)))
          CFI (cfiCond254) R7 load(1, XDATA, add(CFA_XSP16, literal(-6)))
          CFI (cfiCond254) ?RET_LOW load(1, XDATA, add(CFA_XSP16, literal(-5)))
          CFI (cfiCond254) ?RET_HIGH load(1, XDATA, add(CFA_XSP16, literal(-4)))
          CFI (cfiCond254) ?BRET_EXT load(1, XDATA, add(CFA_XSP16, literal(-3)))
          CFI (cfiCond254) DPL0 load(1, XDATA, add(CFA_XSP16, literal(-2)))
          CFI (cfiCond254) DPH0 load(1, XDATA, add(CFA_XSP16, literal(-1)))
          CFI (cfiCond254) CFA_SP SP+0
          CFI (cfiCond254) CFA_XSP16 add(XSP16, 21)
          CFI Block cfiPicker255 Using cfiCommon1
          CFI (cfiPicker255) NoFunction
          CFI (cfiPicker255) Picker
        MOV     DPTR,#pMtAfDataReq
        MOVX    A,@DPTR
        MOV     R0,A
        INC     DPTR
        MOVX    A,@DPTR
        XCH     A,R0
        RET
          CFI EndBlock cfiCond242
          CFI EndBlock cfiCond243
          CFI EndBlock cfiCond244
          CFI EndBlock cfiCond245
          CFI EndBlock cfiCond246
          CFI EndBlock cfiCond247
          CFI EndBlock cfiCond248
          CFI EndBlock cfiCond249
          CFI EndBlock cfiCond250
          CFI EndBlock cfiCond251
          CFI EndBlock cfiCond252
          CFI EndBlock cfiCond253
          CFI EndBlock cfiCond254
          CFI EndBlock cfiPicker255

        RSEG BANKED_CODE:CODE:NOROOT(0)
?Subroutine11:
          CFI Block cfiCond256 Using cfiCommon0
          CFI Function MT_AfDataRequest
          CFI Conditional ??CrossCallReturnLabel_12
          CFI R6 load(1, XDATA, add(CFA_XSP16, literal(-20)))
          CFI VB load(1, XDATA, add(CFA_XSP16, literal(-19)))
          CFI V0 load(1, XDATA, add(CFA_XSP16, literal(-18)))
          CFI V1 load(1, XDATA, add(CFA_XSP16, literal(-17)))
          CFI V2 load(1, XDATA, add(CFA_XSP16, literal(-16)))
          CFI V3 load(1, XDATA, add(CFA_XSP16, literal(-15)))
          CFI V4 load(1, XDATA, add(CFA_XSP16, literal(-14)))
          CFI V5 load(1, XDATA, add(CFA_XSP16, literal(-13)))
          CFI V6 load(1, XDATA, add(CFA_XSP16, literal(-12)))
          CFI V7 load(1, XDATA, add(CFA_XSP16, literal(-11)))
          CFI V8 load(1, XDATA, add(CFA_XSP16, literal(-10)))
          CFI V9 load(1, XDATA, add(CFA_XSP16, literal(-9)))
          CFI V10 load(1, XDATA, add(CFA_XSP16, literal(-8)))
          CFI V11 load(1, XDATA, add(CFA_XSP16, literal(-7)))
          CFI R7 load(1, XDATA, add(CFA_XSP16, literal(-6)))
          CFI ?RET_LOW load(1, XDATA, add(CFA_XSP16, literal(-5)))
          CFI ?RET_HIGH load(1, XDATA, add(CFA_XSP16, literal(-4)))
          CFI ?BRET_EXT load(1, XDATA, add(CFA_XSP16, literal(-3)))
          CFI DPL0 load(1, XDATA, add(CFA_XSP16, literal(-2)))
          CFI DPH0 load(1, XDATA, add(CFA_XSP16, literal(-1)))
          CFI CFA_SP SP+0
          CFI CFA_XSP16 add(XSP16, 34)
          CFI Block cfiCond257 Using cfiCommon0
          CFI (cfiCond257) Function MT_AfDataStore
          CFI (cfiCond257) Conditional ??CrossCallReturnLabel_13
          CFI (cfiCond257) R6 load(1, XDATA, add(CFA_XSP16, literal(-11)))
          CFI (cfiCond257) VB load(1, XDATA, add(CFA_XSP16, literal(-10)))
          CFI (cfiCond257) V0 load(1, XDATA, add(CFA_XSP16, literal(-9)))
          CFI (cfiCond257) V1 load(1, XDATA, add(CFA_XSP16, literal(-8)))
          CFI (cfiCond257) V2 load(1, XDATA, add(CFA_XSP16, literal(-7)))
          CFI (cfiCond257) R7 load(1, XDATA, add(CFA_XSP16, literal(-6)))
          CFI (cfiCond257) ?RET_LOW load(1, XDATA, add(CFA_XSP16, literal(-5)))
          CFI (cfiCond257) ?RET_HIGH load(1, XDATA, add(CFA_XSP16, literal(-4)))
          CFI (cfiCond257) ?BRET_EXT load(1, XDATA, add(CFA_XSP16, literal(-3)))
          CFI (cfiCond257) DPL0 load(1, XDATA, add(CFA_XSP16, literal(-2)))
          CFI (cfiCond257) DPH0 load(1, XDATA, add(CFA_XSP16, literal(-1)))
          CFI (cfiCond257) CFA_SP SP+0
          CFI (cfiCond257) CFA_XSP16 add(XSP16, 17)
          CFI Block cfiPicker258 Using cfiCommon1
          CFI (cfiPicker258) NoFunction
          CFI (cfiPicker258) Picker
        LCALL   ?Subroutine40 & 0xFFFF
??CrossCallReturnLabel_75:
        ADD     A,#0x12
        LCALL   ?Subroutine42 & 0xFFFF
??CrossCallReturnLabel_137:
        RET
          CFI EndBlock cfiCond256
          CFI EndBlock cfiCond257
          CFI EndBlock cfiPicker258

        RSEG BANKED_CODE:CODE:NOROOT(0)
?Subroutine42:
          CFI Block cfiCond259 Using cfiCommon0
          CFI Function MT_AfDataRequest
          CFI Conditional ??CrossCallReturnLabel_133
          CFI R6 load(1, XDATA, add(CFA_XSP16, literal(-20)))
          CFI VB load(1, XDATA, add(CFA_XSP16, literal(-19)))
          CFI V0 load(1, XDATA, add(CFA_XSP16, literal(-18)))
          CFI V1 load(1, XDATA, add(CFA_XSP16, literal(-17)))
          CFI V2 load(1, XDATA, add(CFA_XSP16, literal(-16)))
          CFI V3 load(1, XDATA, add(CFA_XSP16, literal(-15)))
          CFI V4 load(1, XDATA, add(CFA_XSP16, literal(-14)))
          CFI V5 load(1, XDATA, add(CFA_XSP16, literal(-13)))
          CFI V6 load(1, XDATA, add(CFA_XSP16, literal(-12)))
          CFI V7 load(1, XDATA, add(CFA_XSP16, literal(-11)))
          CFI V8 load(1, XDATA, add(CFA_XSP16, literal(-10)))
          CFI V9 load(1, XDATA, add(CFA_XSP16, literal(-9)))
          CFI V10 load(1, XDATA, add(CFA_XSP16, literal(-8)))
          CFI V11 load(1, XDATA, add(CFA_XSP16, literal(-7)))
          CFI R7 load(1, XDATA, add(CFA_XSP16, literal(-6)))
          CFI ?RET_LOW load(1, XDATA, add(CFA_XSP16, literal(-5)))
          CFI ?RET_HIGH load(1, XDATA, add(CFA_XSP16, literal(-4)))
          CFI ?BRET_EXT load(1, XDATA, add(CFA_XSP16, literal(-3)))
          CFI DPL0 load(1, XDATA, add(CFA_XSP16, literal(-2)))
          CFI DPH0 load(1, XDATA, add(CFA_XSP16, literal(-1)))
          CFI CFA_SP SP+-1
          CFI CFA_XSP16 add(XSP16, 34)
          CFI Block cfiCond260 Using cfiCommon0
          CFI (cfiCond260) Function MT_AfExec
          CFI (cfiCond260) Conditional ??CrossCallReturnLabel_134, ??CrossCallReturnLabel_7
          CFI (cfiCond260) R6 load(1, XDATA, add(CFA_XSP16, literal(-9)))
          CFI (cfiCond260) VB load(1, XDATA, add(CFA_XSP16, literal(-8)))
          CFI (cfiCond260) V0 load(1, XDATA, add(CFA_XSP16, literal(-7)))
          CFI (cfiCond260) R7 load(1, XDATA, add(CFA_XSP16, literal(-6)))
          CFI (cfiCond260) ?RET_LOW load(1, XDATA, add(CFA_XSP16, literal(-5)))
          CFI (cfiCond260) ?RET_HIGH load(1, XDATA, add(CFA_XSP16, literal(-4)))
          CFI (cfiCond260) ?BRET_EXT load(1, XDATA, add(CFA_XSP16, literal(-3)))
          CFI (cfiCond260) DPL0 load(1, XDATA, add(CFA_XSP16, literal(-2)))
          CFI (cfiCond260) DPH0 load(1, XDATA, add(CFA_XSP16, literal(-1)))
          CFI (cfiCond260) CFA_SP SP+0
          CFI (cfiCond260) CFA_XSP16 add(XSP16, 9)
          CFI Block cfiCond261 Using cfiCommon0
          CFI (cfiCond261) Function MT_AfDataRequest
          CFI (cfiCond261) Conditional ??CrossCallReturnLabel_134, ??CrossCallReturnLabel_6
          CFI (cfiCond261) R6 load(1, XDATA, add(CFA_XSP16, literal(-20)))
          CFI (cfiCond261) VB load(1, XDATA, add(CFA_XSP16, literal(-19)))
          CFI (cfiCond261) V0 load(1, XDATA, add(CFA_XSP16, literal(-18)))
          CFI (cfiCond261) V1 load(1, XDATA, add(CFA_XSP16, literal(-17)))
          CFI (cfiCond261) V2 load(1, XDATA, add(CFA_XSP16, literal(-16)))
          CFI (cfiCond261) V3 load(1, XDATA, add(CFA_XSP16, literal(-15)))
          CFI (cfiCond261) V4 load(1, XDATA, add(CFA_XSP16, literal(-14)))
          CFI (cfiCond261) V5 load(1, XDATA, add(CFA_XSP16, literal(-13)))
          CFI (cfiCond261) V6 load(1, XDATA, add(CFA_XSP16, literal(-12)))
          CFI (cfiCond261) V7 load(1, XDATA, add(CFA_XSP16, literal(-11)))
          CFI (cfiCond261) V8 load(1, XDATA, add(CFA_XSP16, literal(-10)))
          CFI (cfiCond261) V9 load(1, XDATA, add(CFA_XSP16, literal(-9)))
          CFI (cfiCond261) V10 load(1, XDATA, add(CFA_XSP16, literal(-8)))
          CFI (cfiCond261) V11 load(1, XDATA, add(CFA_XSP16, literal(-7)))
          CFI (cfiCond261) R7 load(1, XDATA, add(CFA_XSP16, literal(-6)))
          CFI (cfiCond261) ?RET_LOW load(1, XDATA, add(CFA_XSP16, literal(-5)))
          CFI (cfiCond261) ?RET_HIGH load(1, XDATA, add(CFA_XSP16, literal(-4)))
          CFI (cfiCond261) ?BRET_EXT load(1, XDATA, add(CFA_XSP16, literal(-3)))
          CFI (cfiCond261) DPL0 load(1, XDATA, add(CFA_XSP16, literal(-2)))
          CFI (cfiCond261) DPH0 load(1, XDATA, add(CFA_XSP16, literal(-1)))
          CFI (cfiCond261) CFA_SP SP+0
          CFI (cfiCond261) CFA_XSP16 add(XSP16, 34)
          CFI Block cfiCond262 Using cfiCommon0
          CFI (cfiCond262) Function MT_AfDataRequest
          CFI (cfiCond262) Conditional ??CrossCallReturnLabel_139, ??CrossCallReturnLabel_16
          CFI (cfiCond262) R6 load(1, XDATA, add(CFA_XSP16, literal(-20)))
          CFI (cfiCond262) VB load(1, XDATA, add(CFA_XSP16, literal(-19)))
          CFI (cfiCond262) V0 load(1, XDATA, add(CFA_XSP16, literal(-18)))
          CFI (cfiCond262) V1 load(1, XDATA, add(CFA_XSP16, literal(-17)))
          CFI (cfiCond262) V2 load(1, XDATA, add(CFA_XSP16, literal(-16)))
          CFI (cfiCond262) V3 load(1, XDATA, add(CFA_XSP16, literal(-15)))
          CFI (cfiCond262) V4 load(1, XDATA, add(CFA_XSP16, literal(-14)))
          CFI (cfiCond262) V5 load(1, XDATA, add(CFA_XSP16, literal(-13)))
          CFI (cfiCond262) V6 load(1, XDATA, add(CFA_XSP16, literal(-12)))
          CFI (cfiCond262) V7 load(1, XDATA, add(CFA_XSP16, literal(-11)))
          CFI (cfiCond262) V8 load(1, XDATA, add(CFA_XSP16, literal(-10)))
          CFI (cfiCond262) V9 load(1, XDATA, add(CFA_XSP16, literal(-9)))
          CFI (cfiCond262) V10 load(1, XDATA, add(CFA_XSP16, literal(-8)))
          CFI (cfiCond262) V11 load(1, XDATA, add(CFA_XSP16, literal(-7)))
          CFI (cfiCond262) R7 load(1, XDATA, add(CFA_XSP16, literal(-6)))
          CFI (cfiCond262) ?RET_LOW load(1, XDATA, add(CFA_XSP16, literal(-5)))
          CFI (cfiCond262) ?RET_HIGH load(1, XDATA, add(CFA_XSP16, literal(-4)))
          CFI (cfiCond262) ?BRET_EXT load(1, XDATA, add(CFA_XSP16, literal(-3)))
          CFI (cfiCond262) DPL0 load(1, XDATA, add(CFA_XSP16, literal(-2)))
          CFI (cfiCond262) DPH0 load(1, XDATA, add(CFA_XSP16, literal(-1)))
          CFI (cfiCond262) CFA_SP SP+0
          CFI (cfiCond262) CFA_XSP16 add(XSP16, 34)
          CFI Block cfiCond263 Using cfiCommon0
          CFI (cfiCond263) Function MT_AfDataStore
          CFI (cfiCond263) Conditional ??CrossCallReturnLabel_139, ??CrossCallReturnLabel_17
          CFI (cfiCond263) R6 load(1, XDATA, add(CFA_XSP16, literal(-11)))
          CFI (cfiCond263) VB load(1, XDATA, add(CFA_XSP16, literal(-10)))
          CFI (cfiCond263) V0 load(1, XDATA, add(CFA_XSP16, literal(-9)))
          CFI (cfiCond263) V1 load(1, XDATA, add(CFA_XSP16, literal(-8)))
          CFI (cfiCond263) V2 load(1, XDATA, add(CFA_XSP16, literal(-7)))
          CFI (cfiCond263) R7 load(1, XDATA, add(CFA_XSP16, literal(-6)))
          CFI (cfiCond263) ?RET_LOW load(1, XDATA, add(CFA_XSP16, literal(-5)))
          CFI (cfiCond263) ?RET_HIGH load(1, XDATA, add(CFA_XSP16, literal(-4)))
          CFI (cfiCond263) ?BRET_EXT load(1, XDATA, add(CFA_XSP16, literal(-3)))
          CFI (cfiCond263) DPL0 load(1, XDATA, add(CFA_XSP16, literal(-2)))
          CFI (cfiCond263) DPH0 load(1, XDATA, add(CFA_XSP16, literal(-1)))
          CFI (cfiCond263) CFA_SP SP+0
          CFI (cfiCond263) CFA_XSP16 add(XSP16, 12)
          CFI Block cfiCond264 Using cfiCommon0
          CFI (cfiCond264) Function MT_AfDataRequest
          CFI (cfiCond264) Conditional ??CrossCallReturnLabel_138, ??CrossCallReturnLabel_14
          CFI (cfiCond264) R6 load(1, XDATA, add(CFA_XSP16, literal(-20)))
          CFI (cfiCond264) VB load(1, XDATA, add(CFA_XSP16, literal(-19)))
          CFI (cfiCond264) V0 load(1, XDATA, add(CFA_XSP16, literal(-18)))
          CFI (cfiCond264) V1 load(1, XDATA, add(CFA_XSP16, literal(-17)))
          CFI (cfiCond264) V2 load(1, XDATA, add(CFA_XSP16, literal(-16)))
          CFI (cfiCond264) V3 load(1, XDATA, add(CFA_XSP16, literal(-15)))
          CFI (cfiCond264) V4 load(1, XDATA, add(CFA_XSP16, literal(-14)))
          CFI (cfiCond264) V5 load(1, XDATA, add(CFA_XSP16, literal(-13)))
          CFI (cfiCond264) V6 load(1, XDATA, add(CFA_XSP16, literal(-12)))
          CFI (cfiCond264) V7 load(1, XDATA, add(CFA_XSP16, literal(-11)))
          CFI (cfiCond264) V8 load(1, XDATA, add(CFA_XSP16, literal(-10)))
          CFI (cfiCond264) V9 load(1, XDATA, add(CFA_XSP16, literal(-9)))
          CFI (cfiCond264) V10 load(1, XDATA, add(CFA_XSP16, literal(-8)))
          CFI (cfiCond264) V11 load(1, XDATA, add(CFA_XSP16, literal(-7)))
          CFI (cfiCond264) R7 load(1, XDATA, add(CFA_XSP16, literal(-6)))
          CFI (cfiCond264) ?RET_LOW load(1, XDATA, add(CFA_XSP16, literal(-5)))
          CFI (cfiCond264) ?RET_HIGH load(1, XDATA, add(CFA_XSP16, literal(-4)))
          CFI (cfiCond264) ?BRET_EXT load(1, XDATA, add(CFA_XSP16, literal(-3)))
          CFI (cfiCond264) DPL0 load(1, XDATA, add(CFA_XSP16, literal(-2)))
          CFI (cfiCond264) DPH0 load(1, XDATA, add(CFA_XSP16, literal(-1)))
          CFI (cfiCond264) CFA_SP SP+0
          CFI (cfiCond264) CFA_XSP16 add(XSP16, 34)
          CFI Block cfiCond265 Using cfiCommon0
          CFI (cfiCond265) Function MT_AfDataStore
          CFI (cfiCond265) Conditional ??CrossCallReturnLabel_138, ??CrossCallReturnLabel_15
          CFI (cfiCond265) R6 load(1, XDATA, add(CFA_XSP16, literal(-11)))
          CFI (cfiCond265) VB load(1, XDATA, add(CFA_XSP16, literal(-10)))
          CFI (cfiCond265) V0 load(1, XDATA, add(CFA_XSP16, literal(-9)))
          CFI (cfiCond265) V1 load(1, XDATA, add(CFA_XSP16, literal(-8)))
          CFI (cfiCond265) V2 load(1, XDATA, add(CFA_XSP16, literal(-7)))
          CFI (cfiCond265) R7 load(1, XDATA, add(CFA_XSP16, literal(-6)))
          CFI (cfiCond265) ?RET_LOW load(1, XDATA, add(CFA_XSP16, literal(-5)))
          CFI (cfiCond265) ?RET_HIGH load(1, XDATA, add(CFA_XSP16, literal(-4)))
          CFI (cfiCond265) ?BRET_EXT load(1, XDATA, add(CFA_XSP16, literal(-3)))
          CFI (cfiCond265) DPL0 load(1, XDATA, add(CFA_XSP16, literal(-2)))
          CFI (cfiCond265) DPH0 load(1, XDATA, add(CFA_XSP16, literal(-1)))
          CFI (cfiCond265) CFA_SP SP+0
          CFI (cfiCond265) CFA_XSP16 add(XSP16, 21)
          CFI Block cfiCond266 Using cfiCommon0
          CFI (cfiCond266) Function MT_AfDataRequest
          CFI (cfiCond266) Conditional ??CrossCallReturnLabel_137, ??CrossCallReturnLabel_12
          CFI (cfiCond266) R6 load(1, XDATA, add(CFA_XSP16, literal(-20)))
          CFI (cfiCond266) VB load(1, XDATA, add(CFA_XSP16, literal(-19)))
          CFI (cfiCond266) V0 load(1, XDATA, add(CFA_XSP16, literal(-18)))
          CFI (cfiCond266) V1 load(1, XDATA, add(CFA_XSP16, literal(-17)))
          CFI (cfiCond266) V2 load(1, XDATA, add(CFA_XSP16, literal(-16)))
          CFI (cfiCond266) V3 load(1, XDATA, add(CFA_XSP16, literal(-15)))
          CFI (cfiCond266) V4 load(1, XDATA, add(CFA_XSP16, literal(-14)))
          CFI (cfiCond266) V5 load(1, XDATA, add(CFA_XSP16, literal(-13)))
          CFI (cfiCond266) V6 load(1, XDATA, add(CFA_XSP16, literal(-12)))
          CFI (cfiCond266) V7 load(1, XDATA, add(CFA_XSP16, literal(-11)))
          CFI (cfiCond266) V8 load(1, XDATA, add(CFA_XSP16, literal(-10)))
          CFI (cfiCond266) V9 load(1, XDATA, add(CFA_XSP16, literal(-9)))
          CFI (cfiCond266) V10 load(1, XDATA, add(CFA_XSP16, literal(-8)))
          CFI (cfiCond266) V11 load(1, XDATA, add(CFA_XSP16, literal(-7)))
          CFI (cfiCond266) R7 load(1, XDATA, add(CFA_XSP16, literal(-6)))
          CFI (cfiCond266) ?RET_LOW load(1, XDATA, add(CFA_XSP16, literal(-5)))
          CFI (cfiCond266) ?RET_HIGH load(1, XDATA, add(CFA_XSP16, literal(-4)))
          CFI (cfiCond266) ?BRET_EXT load(1, XDATA, add(CFA_XSP16, literal(-3)))
          CFI (cfiCond266) DPL0 load(1, XDATA, add(CFA_XSP16, literal(-2)))
          CFI (cfiCond266) DPH0 load(1, XDATA, add(CFA_XSP16, literal(-1)))
          CFI (cfiCond266) CFA_SP SP+0
          CFI (cfiCond266) CFA_XSP16 add(XSP16, 34)
          CFI Block cfiCond267 Using cfiCommon0
          CFI (cfiCond267) Function MT_AfDataStore
          CFI (cfiCond267) Conditional ??CrossCallReturnLabel_137, ??CrossCallReturnLabel_13
          CFI (cfiCond267) R6 load(1, XDATA, add(CFA_XSP16, literal(-11)))
          CFI (cfiCond267) VB load(1, XDATA, add(CFA_XSP16, literal(-10)))
          CFI (cfiCond267) V0 load(1, XDATA, add(CFA_XSP16, literal(-9)))
          CFI (cfiCond267) V1 load(1, XDATA, add(CFA_XSP16, literal(-8)))
          CFI (cfiCond267) V2 load(1, XDATA, add(CFA_XSP16, literal(-7)))
          CFI (cfiCond267) R7 load(1, XDATA, add(CFA_XSP16, literal(-6)))
          CFI (cfiCond267) ?RET_LOW load(1, XDATA, add(CFA_XSP16, literal(-5)))
          CFI (cfiCond267) ?RET_HIGH load(1, XDATA, add(CFA_XSP16, literal(-4)))
          CFI (cfiCond267) ?BRET_EXT load(1, XDATA, add(CFA_XSP16, literal(-3)))
          CFI (cfiCond267) DPL0 load(1, XDATA, add(CFA_XSP16, literal(-2)))
          CFI (cfiCond267) DPH0 load(1, XDATA, add(CFA_XSP16, literal(-1)))
          CFI (cfiCond267) CFA_SP SP+0
          CFI (cfiCond267) CFA_XSP16 add(XSP16, 17)
          CFI Block cfiCond268 Using cfiCommon0
          CFI (cfiCond268) Function MT_AfDataRequest
          CFI (cfiCond268) Conditional ??CrossCallReturnLabel_136, ??CrossCallReturnLabel_10
          CFI (cfiCond268) R6 load(1, XDATA, add(CFA_XSP16, literal(-20)))
          CFI (cfiCond268) VB load(1, XDATA, add(CFA_XSP16, literal(-19)))
          CFI (cfiCond268) V0 load(1, XDATA, add(CFA_XSP16, literal(-18)))
          CFI (cfiCond268) V1 load(1, XDATA, add(CFA_XSP16, literal(-17)))
          CFI (cfiCond268) V2 load(1, XDATA, add(CFA_XSP16, literal(-16)))
          CFI (cfiCond268) V3 load(1, XDATA, add(CFA_XSP16, literal(-15)))
          CFI (cfiCond268) V4 load(1, XDATA, add(CFA_XSP16, literal(-14)))
          CFI (cfiCond268) V5 load(1, XDATA, add(CFA_XSP16, literal(-13)))
          CFI (cfiCond268) V6 load(1, XDATA, add(CFA_XSP16, literal(-12)))
          CFI (cfiCond268) V7 load(1, XDATA, add(CFA_XSP16, literal(-11)))
          CFI (cfiCond268) V8 load(1, XDATA, add(CFA_XSP16, literal(-10)))
          CFI (cfiCond268) V9 load(1, XDATA, add(CFA_XSP16, literal(-9)))
          CFI (cfiCond268) V10 load(1, XDATA, add(CFA_XSP16, literal(-8)))
          CFI (cfiCond268) V11 load(1, XDATA, add(CFA_XSP16, literal(-7)))
          CFI (cfiCond268) R7 load(1, XDATA, add(CFA_XSP16, literal(-6)))
          CFI (cfiCond268) ?RET_LOW load(1, XDATA, add(CFA_XSP16, literal(-5)))
          CFI (cfiCond268) ?RET_HIGH load(1, XDATA, add(CFA_XSP16, literal(-4)))
          CFI (cfiCond268) ?BRET_EXT load(1, XDATA, add(CFA_XSP16, literal(-3)))
          CFI (cfiCond268) DPL0 load(1, XDATA, add(CFA_XSP16, literal(-2)))
          CFI (cfiCond268) DPH0 load(1, XDATA, add(CFA_XSP16, literal(-1)))
          CFI (cfiCond268) CFA_SP SP+0
          CFI (cfiCond268) CFA_XSP16 add(XSP16, 34)
          CFI Block cfiCond269 Using cfiCommon0
          CFI (cfiCond269) Function MT_AfDataStore
          CFI (cfiCond269) Conditional ??CrossCallReturnLabel_136, ??CrossCallReturnLabel_11
          CFI (cfiCond269) R6 load(1, XDATA, add(CFA_XSP16, literal(-11)))
          CFI (cfiCond269) VB load(1, XDATA, add(CFA_XSP16, literal(-10)))
          CFI (cfiCond269) V0 load(1, XDATA, add(CFA_XSP16, literal(-9)))
          CFI (cfiCond269) V1 load(1, XDATA, add(CFA_XSP16, literal(-8)))
          CFI (cfiCond269) V2 load(1, XDATA, add(CFA_XSP16, literal(-7)))
          CFI (cfiCond269) R7 load(1, XDATA, add(CFA_XSP16, literal(-6)))
          CFI (cfiCond269) ?RET_LOW load(1, XDATA, add(CFA_XSP16, literal(-5)))
          CFI (cfiCond269) ?RET_HIGH load(1, XDATA, add(CFA_XSP16, literal(-4)))
          CFI (cfiCond269) ?BRET_EXT load(1, XDATA, add(CFA_XSP16, literal(-3)))
          CFI (cfiCond269) DPL0 load(1, XDATA, add(CFA_XSP16, literal(-2)))
          CFI (cfiCond269) DPH0 load(1, XDATA, add(CFA_XSP16, literal(-1)))
          CFI (cfiCond269) CFA_SP SP+0
          CFI (cfiCond269) CFA_XSP16 add(XSP16, 19)
          CFI Block cfiCond270 Using cfiCommon0
          CFI (cfiCond270) Function MT_AfDataRequest
          CFI (cfiCond270) Conditional ??CrossCallReturnLabel_135, ??CrossCallReturnLabel_8
          CFI (cfiCond270) R6 load(1, XDATA, add(CFA_XSP16, literal(-20)))
          CFI (cfiCond270) VB load(1, XDATA, add(CFA_XSP16, literal(-19)))
          CFI (cfiCond270) V0 load(1, XDATA, add(CFA_XSP16, literal(-18)))
          CFI (cfiCond270) V1 load(1, XDATA, add(CFA_XSP16, literal(-17)))
          CFI (cfiCond270) V2 load(1, XDATA, add(CFA_XSP16, literal(-16)))
          CFI (cfiCond270) V3 load(1, XDATA, add(CFA_XSP16, literal(-15)))
          CFI (cfiCond270) V4 load(1, XDATA, add(CFA_XSP16, literal(-14)))
          CFI (cfiCond270) V5 load(1, XDATA, add(CFA_XSP16, literal(-13)))
          CFI (cfiCond270) V6 load(1, XDATA, add(CFA_XSP16, literal(-12)))
          CFI (cfiCond270) V7 load(1, XDATA, add(CFA_XSP16, literal(-11)))
          CFI (cfiCond270) V8 load(1, XDATA, add(CFA_XSP16, literal(-10)))
          CFI (cfiCond270) V9 load(1, XDATA, add(CFA_XSP16, literal(-9)))
          CFI (cfiCond270) V10 load(1, XDATA, add(CFA_XSP16, literal(-8)))
          CFI (cfiCond270) V11 load(1, XDATA, add(CFA_XSP16, literal(-7)))
          CFI (cfiCond270) R7 load(1, XDATA, add(CFA_XSP16, literal(-6)))
          CFI (cfiCond270) ?RET_LOW load(1, XDATA, add(CFA_XSP16, literal(-5)))
          CFI (cfiCond270) ?RET_HIGH load(1, XDATA, add(CFA_XSP16, literal(-4)))
          CFI (cfiCond270) ?BRET_EXT load(1, XDATA, add(CFA_XSP16, literal(-3)))
          CFI (cfiCond270) DPL0 load(1, XDATA, add(CFA_XSP16, literal(-2)))
          CFI (cfiCond270) DPH0 load(1, XDATA, add(CFA_XSP16, literal(-1)))
          CFI (cfiCond270) CFA_SP SP+0
          CFI (cfiCond270) CFA_XSP16 add(XSP16, 34)
          CFI Block cfiCond271 Using cfiCommon0
          CFI (cfiCond271) Function MT_AfDataStore
          CFI (cfiCond271) Conditional ??CrossCallReturnLabel_135, ??CrossCallReturnLabel_9
          CFI (cfiCond271) R6 load(1, XDATA, add(CFA_XSP16, literal(-11)))
          CFI (cfiCond271) VB load(1, XDATA, add(CFA_XSP16, literal(-10)))
          CFI (cfiCond271) V0 load(1, XDATA, add(CFA_XSP16, literal(-9)))
          CFI (cfiCond271) V1 load(1, XDATA, add(CFA_XSP16, literal(-8)))
          CFI (cfiCond271) V2 load(1, XDATA, add(CFA_XSP16, literal(-7)))
          CFI (cfiCond271) R7 load(1, XDATA, add(CFA_XSP16, literal(-6)))
          CFI (cfiCond271) ?RET_LOW load(1, XDATA, add(CFA_XSP16, literal(-5)))
          CFI (cfiCond271) ?RET_HIGH load(1, XDATA, add(CFA_XSP16, literal(-4)))
          CFI (cfiCond271) ?BRET_EXT load(1, XDATA, add(CFA_XSP16, literal(-3)))
          CFI (cfiCond271) DPL0 load(1, XDATA, add(CFA_XSP16, literal(-2)))
          CFI (cfiCond271) DPH0 load(1, XDATA, add(CFA_XSP16, literal(-1)))
          CFI (cfiCond271) CFA_SP SP+0
          CFI (cfiCond271) CFA_XSP16 add(XSP16, 21)
          CFI Block cfiPicker272 Using cfiCommon1
          CFI (cfiPicker272) NoFunction
          CFI (cfiPicker272) Picker
        MOV     DPL,A
        MOV     A,R0
          CFI EndBlock cfiCond259
          CFI EndBlock cfiCond260
          CFI EndBlock cfiCond261
          CFI EndBlock cfiCond262
          CFI EndBlock cfiCond263
          CFI EndBlock cfiCond264
          CFI EndBlock cfiCond265
          CFI EndBlock cfiCond266
          CFI EndBlock cfiCond267
          CFI EndBlock cfiCond268
          CFI EndBlock cfiCond269
          CFI EndBlock cfiCond270
          CFI EndBlock cfiCond271
          CFI EndBlock cfiPicker272
        REQUIRE ??Subroutine55_0
        ; // Fall through to label ??Subroutine55_0

        RSEG BANKED_CODE:CODE:NOROOT(0)
??Subroutine55_0:
          CFI Block cfiCond273 Using cfiCommon0
          CFI Function MT_AfIncomingMsg
          CFI Conditional ??CrossCallReturnLabel_129
          CFI R6 load(1, XDATA, add(CFA_XSP16, literal(-23)))
          CFI VB load(1, XDATA, add(CFA_XSP16, literal(-22)))
          CFI V0 load(1, XDATA, add(CFA_XSP16, literal(-21)))
          CFI V1 load(1, XDATA, add(CFA_XSP16, literal(-20)))
          CFI V2 load(1, XDATA, add(CFA_XSP16, literal(-19)))
          CFI V3 load(1, XDATA, add(CFA_XSP16, literal(-18)))
          CFI V4 load(1, XDATA, add(CFA_XSP16, literal(-17)))
          CFI V5 load(1, XDATA, add(CFA_XSP16, literal(-16)))
          CFI V6 load(1, XDATA, add(CFA_XSP16, literal(-15)))
          CFI V7 load(1, XDATA, add(CFA_XSP16, literal(-14)))
          CFI V8 load(1, XDATA, add(CFA_XSP16, literal(-13)))
          CFI V9 load(1, XDATA, add(CFA_XSP16, literal(-12)))
          CFI V10 load(1, XDATA, add(CFA_XSP16, literal(-11)))
          CFI V11 load(1, XDATA, add(CFA_XSP16, literal(-10)))
          CFI V12 load(1, XDATA, add(CFA_XSP16, literal(-9)))
          CFI V13 load(1, XDATA, add(CFA_XSP16, literal(-8)))
          CFI V14 load(1, XDATA, add(CFA_XSP16, literal(-7)))
          CFI R7 load(1, XDATA, add(CFA_XSP16, literal(-6)))
          CFI ?RET_LOW load(1, XDATA, add(CFA_XSP16, literal(-5)))
          CFI ?RET_HIGH load(1, XDATA, add(CFA_XSP16, literal(-4)))
          CFI ?BRET_EXT load(1, XDATA, add(CFA_XSP16, literal(-3)))
          CFI DPL0 load(1, XDATA, add(CFA_XSP16, literal(-2)))
          CFI DPH0 load(1, XDATA, add(CFA_XSP16, literal(-1)))
          CFI CFA_SP SP+0
          CFI CFA_XSP16 add(XSP16, 23)
          CFI Block cfiCond274 Using cfiCommon0
          CFI (cfiCond274) Function MT_AfIncomingMsg
          CFI (cfiCond274) Conditional ??CrossCallReturnLabel_130
          CFI (cfiCond274) R6 load(1, XDATA, add(CFA_XSP16, literal(-23)))
          CFI (cfiCond274) VB load(1, XDATA, add(CFA_XSP16, literal(-22)))
          CFI (cfiCond274) V0 load(1, XDATA, add(CFA_XSP16, literal(-21)))
          CFI (cfiCond274) V1 load(1, XDATA, add(CFA_XSP16, literal(-20)))
          CFI (cfiCond274) V2 load(1, XDATA, add(CFA_XSP16, literal(-19)))
          CFI (cfiCond274) V3 load(1, XDATA, add(CFA_XSP16, literal(-18)))
          CFI (cfiCond274) V4 load(1, XDATA, add(CFA_XSP16, literal(-17)))
          CFI (cfiCond274) V5 load(1, XDATA, add(CFA_XSP16, literal(-16)))
          CFI (cfiCond274) V6 load(1, XDATA, add(CFA_XSP16, literal(-15)))
          CFI (cfiCond274) V7 load(1, XDATA, add(CFA_XSP16, literal(-14)))
          CFI (cfiCond274) V8 load(1, XDATA, add(CFA_XSP16, literal(-13)))
          CFI (cfiCond274) V9 load(1, XDATA, add(CFA_XSP16, literal(-12)))
          CFI (cfiCond274) V10 load(1, XDATA, add(CFA_XSP16, literal(-11)))
          CFI (cfiCond274) V11 load(1, XDATA, add(CFA_XSP16, literal(-10)))
          CFI (cfiCond274) V12 load(1, XDATA, add(CFA_XSP16, literal(-9)))
          CFI (cfiCond274) V13 load(1, XDATA, add(CFA_XSP16, literal(-8)))
          CFI (cfiCond274) V14 load(1, XDATA, add(CFA_XSP16, literal(-7)))
          CFI (cfiCond274) R7 load(1, XDATA, add(CFA_XSP16, literal(-6)))
          CFI (cfiCond274) ?RET_LOW load(1, XDATA, add(CFA_XSP16, literal(-5)))
          CFI (cfiCond274) ?RET_HIGH load(1, XDATA, add(CFA_XSP16, literal(-4)))
          CFI (cfiCond274) ?BRET_EXT load(1, XDATA, add(CFA_XSP16, literal(-3)))
          CFI (cfiCond274) DPL0 load(1, XDATA, add(CFA_XSP16, literal(-2)))
          CFI (cfiCond274) DPH0 load(1, XDATA, add(CFA_XSP16, literal(-1)))
          CFI (cfiCond274) CFA_SP SP+0
          CFI (cfiCond274) CFA_XSP16 add(XSP16, 23)
          CFI Block cfiCond275 Using cfiCommon0
          CFI (cfiCond275) Function MT_AfIncomingMsg
          CFI (cfiCond275) Conditional ??CrossCallReturnLabel_140, ??CrossCallReturnLabel_104
          CFI (cfiCond275) R6 load(1, XDATA, add(CFA_XSP16, literal(-23)))
          CFI (cfiCond275) VB load(1, XDATA, add(CFA_XSP16, literal(-22)))
          CFI (cfiCond275) V0 load(1, XDATA, add(CFA_XSP16, literal(-21)))
          CFI (cfiCond275) V1 load(1, XDATA, add(CFA_XSP16, literal(-20)))
          CFI (cfiCond275) V2 load(1, XDATA, add(CFA_XSP16, literal(-19)))
          CFI (cfiCond275) V3 load(1, XDATA, add(CFA_XSP16, literal(-18)))
          CFI (cfiCond275) V4 load(1, XDATA, add(CFA_XSP16, literal(-17)))
          CFI (cfiCond275) V5 load(1, XDATA, add(CFA_XSP16, literal(-16)))
          CFI (cfiCond275) V6 load(1, XDATA, add(CFA_XSP16, literal(-15)))
          CFI (cfiCond275) V7 load(1, XDATA, add(CFA_XSP16, literal(-14)))
          CFI (cfiCond275) V8 load(1, XDATA, add(CFA_XSP16, literal(-13)))
          CFI (cfiCond275) V9 load(1, XDATA, add(CFA_XSP16, literal(-12)))
          CFI (cfiCond275) V10 load(1, XDATA, add(CFA_XSP16, literal(-11)))
          CFI (cfiCond275) V11 load(1, XDATA, add(CFA_XSP16, literal(-10)))
          CFI (cfiCond275) V12 load(1, XDATA, add(CFA_XSP16, literal(-9)))
          CFI (cfiCond275) V13 load(1, XDATA, add(CFA_XSP16, literal(-8)))
          CFI (cfiCond275) V14 load(1, XDATA, add(CFA_XSP16, literal(-7)))
          CFI (cfiCond275) R7 load(1, XDATA, add(CFA_XSP16, literal(-6)))
          CFI (cfiCond275) ?RET_LOW load(1, XDATA, add(CFA_XSP16, literal(-5)))
          CFI (cfiCond275) ?RET_HIGH load(1, XDATA, add(CFA_XSP16, literal(-4)))
          CFI (cfiCond275) ?BRET_EXT load(1, XDATA, add(CFA_XSP16, literal(-3)))
          CFI (cfiCond275) DPL0 load(1, XDATA, add(CFA_XSP16, literal(-2)))
          CFI (cfiCond275) DPH0 load(1, XDATA, add(CFA_XSP16, literal(-1)))
          CFI (cfiCond275) CFA_SP SP+0
          CFI (cfiCond275) CFA_XSP16 add(XSP16, 23)
          CFI Block cfiCond276 Using cfiCommon0
          CFI (cfiCond276) Function MT_AfIncomingMsg
          CFI (cfiCond276) Conditional ??CrossCallReturnLabel_140, ??CrossCallReturnLabel_105
          CFI (cfiCond276) R6 load(1, XDATA, add(CFA_XSP16, literal(-23)))
          CFI (cfiCond276) VB load(1, XDATA, add(CFA_XSP16, literal(-22)))
          CFI (cfiCond276) V0 load(1, XDATA, add(CFA_XSP16, literal(-21)))
          CFI (cfiCond276) V1 load(1, XDATA, add(CFA_XSP16, literal(-20)))
          CFI (cfiCond276) V2 load(1, XDATA, add(CFA_XSP16, literal(-19)))
          CFI (cfiCond276) V3 load(1, XDATA, add(CFA_XSP16, literal(-18)))
          CFI (cfiCond276) V4 load(1, XDATA, add(CFA_XSP16, literal(-17)))
          CFI (cfiCond276) V5 load(1, XDATA, add(CFA_XSP16, literal(-16)))
          CFI (cfiCond276) V6 load(1, XDATA, add(CFA_XSP16, literal(-15)))
          CFI (cfiCond276) V7 load(1, XDATA, add(CFA_XSP16, literal(-14)))
          CFI (cfiCond276) V8 load(1, XDATA, add(CFA_XSP16, literal(-13)))
          CFI (cfiCond276) V9 load(1, XDATA, add(CFA_XSP16, literal(-12)))
          CFI (cfiCond276) V10 load(1, XDATA, add(CFA_XSP16, literal(-11)))
          CFI (cfiCond276) V11 load(1, XDATA, add(CFA_XSP16, literal(-10)))
          CFI (cfiCond276) V12 load(1, XDATA, add(CFA_XSP16, literal(-9)))
          CFI (cfiCond276) V13 load(1, XDATA, add(CFA_XSP16, literal(-8)))
          CFI (cfiCond276) V14 load(1, XDATA, add(CFA_XSP16, literal(-7)))
          CFI (cfiCond276) R7 load(1, XDATA, add(CFA_XSP16, literal(-6)))
          CFI (cfiCond276) ?RET_LOW load(1, XDATA, add(CFA_XSP16, literal(-5)))
          CFI (cfiCond276) ?RET_HIGH load(1, XDATA, add(CFA_XSP16, literal(-4)))
          CFI (cfiCond276) ?BRET_EXT load(1, XDATA, add(CFA_XSP16, literal(-3)))
          CFI (cfiCond276) DPL0 load(1, XDATA, add(CFA_XSP16, literal(-2)))
          CFI (cfiCond276) DPH0 load(1, XDATA, add(CFA_XSP16, literal(-1)))
          CFI (cfiCond276) CFA_SP SP+0
          CFI (cfiCond276) CFA_XSP16 add(XSP16, 23)
          CFI Block cfiCond277 Using cfiCommon0
          CFI (cfiCond277) Function MT_AfExec
          CFI (cfiCond277) Conditional ??CrossCallReturnLabel_140, ??CrossCallReturnLabel_100
          CFI (cfiCond277) R6 load(1, XDATA, add(CFA_XSP16, literal(-9)))
          CFI (cfiCond277) VB load(1, XDATA, add(CFA_XSP16, literal(-8)))
          CFI (cfiCond277) V0 load(1, XDATA, add(CFA_XSP16, literal(-7)))
          CFI (cfiCond277) R7 load(1, XDATA, add(CFA_XSP16, literal(-6)))
          CFI (cfiCond277) ?RET_LOW load(1, XDATA, add(CFA_XSP16, literal(-5)))
          CFI (cfiCond277) ?RET_HIGH load(1, XDATA, add(CFA_XSP16, literal(-4)))
          CFI (cfiCond277) ?BRET_EXT load(1, XDATA, add(CFA_XSP16, literal(-3)))
          CFI (cfiCond277) DPL0 load(1, XDATA, add(CFA_XSP16, literal(-2)))
          CFI (cfiCond277) DPH0 load(1, XDATA, add(CFA_XSP16, literal(-1)))
          CFI (cfiCond277) CFA_SP SP+0
          CFI (cfiCond277) CFA_XSP16 add(XSP16, 9)
          CFI Block cfiCond278 Using cfiCommon0
          CFI (cfiCond278) Function MT_AfExec
          CFI (cfiCond278) Conditional ??CrossCallReturnLabel_140, ??CrossCallReturnLabel_101
          CFI (cfiCond278) R6 load(1, XDATA, add(CFA_XSP16, literal(-9)))
          CFI (cfiCond278) VB load(1, XDATA, add(CFA_XSP16, literal(-8)))
          CFI (cfiCond278) V0 load(1, XDATA, add(CFA_XSP16, literal(-7)))
          CFI (cfiCond278) R7 load(1, XDATA, add(CFA_XSP16, literal(-6)))
          CFI (cfiCond278) ?RET_LOW load(1, XDATA, add(CFA_XSP16, literal(-5)))
          CFI (cfiCond278) ?RET_HIGH load(1, XDATA, add(CFA_XSP16, literal(-4)))
          CFI (cfiCond278) ?BRET_EXT load(1, XDATA, add(CFA_XSP16, literal(-3)))
          CFI (cfiCond278) DPL0 load(1, XDATA, add(CFA_XSP16, literal(-2)))
          CFI (cfiCond278) DPH0 load(1, XDATA, add(CFA_XSP16, literal(-1)))
          CFI (cfiCond278) CFA_SP SP+0
          CFI (cfiCond278) CFA_XSP16 add(XSP16, 9)
          CFI Block cfiCond279 Using cfiCommon0
          CFI (cfiCond279) Function MT_AfIncomingMsg
          CFI (cfiCond279) Conditional ??CrossCallReturnLabel_140, ??CrossCallReturnLabel_102
          CFI (cfiCond279) R6 load(1, XDATA, add(CFA_XSP16, literal(-23)))
          CFI (cfiCond279) VB load(1, XDATA, add(CFA_XSP16, literal(-22)))
          CFI (cfiCond279) V0 load(1, XDATA, add(CFA_XSP16, literal(-21)))
          CFI (cfiCond279) V1 load(1, XDATA, add(CFA_XSP16, literal(-20)))
          CFI (cfiCond279) V2 load(1, XDATA, add(CFA_XSP16, literal(-19)))
          CFI (cfiCond279) V3 load(1, XDATA, add(CFA_XSP16, literal(-18)))
          CFI (cfiCond279) V4 load(1, XDATA, add(CFA_XSP16, literal(-17)))
          CFI (cfiCond279) V5 load(1, XDATA, add(CFA_XSP16, literal(-16)))
          CFI (cfiCond279) V6 load(1, XDATA, add(CFA_XSP16, literal(-15)))
          CFI (cfiCond279) V7 load(1, XDATA, add(CFA_XSP16, literal(-14)))
          CFI (cfiCond279) V8 load(1, XDATA, add(CFA_XSP16, literal(-13)))
          CFI (cfiCond279) V9 load(1, XDATA, add(CFA_XSP16, literal(-12)))
          CFI (cfiCond279) V10 load(1, XDATA, add(CFA_XSP16, literal(-11)))
          CFI (cfiCond279) V11 load(1, XDATA, add(CFA_XSP16, literal(-10)))
          CFI (cfiCond279) V12 load(1, XDATA, add(CFA_XSP16, literal(-9)))
          CFI (cfiCond279) V13 load(1, XDATA, add(CFA_XSP16, literal(-8)))
          CFI (cfiCond279) V14 load(1, XDATA, add(CFA_XSP16, literal(-7)))
          CFI (cfiCond279) R7 load(1, XDATA, add(CFA_XSP16, literal(-6)))
          CFI (cfiCond279) ?RET_LOW load(1, XDATA, add(CFA_XSP16, literal(-5)))
          CFI (cfiCond279) ?RET_HIGH load(1, XDATA, add(CFA_XSP16, literal(-4)))
          CFI (cfiCond279) ?BRET_EXT load(1, XDATA, add(CFA_XSP16, literal(-3)))
          CFI (cfiCond279) DPL0 load(1, XDATA, add(CFA_XSP16, literal(-2)))
          CFI (cfiCond279) DPH0 load(1, XDATA, add(CFA_XSP16, literal(-1)))
          CFI (cfiCond279) CFA_SP SP+0
          CFI (cfiCond279) CFA_XSP16 add(XSP16, 23)
          CFI Block cfiCond280 Using cfiCommon0
          CFI (cfiCond280) Function MT_AfIncomingMsg
          CFI (cfiCond280) Conditional ??CrossCallReturnLabel_140, ??CrossCallReturnLabel_103
          CFI (cfiCond280) R6 load(1, XDATA, add(CFA_XSP16, literal(-23)))
          CFI (cfiCond280) VB load(1, XDATA, add(CFA_XSP16, literal(-22)))
          CFI (cfiCond280) V0 load(1, XDATA, add(CFA_XSP16, literal(-21)))
          CFI (cfiCond280) V1 load(1, XDATA, add(CFA_XSP16, literal(-20)))
          CFI (cfiCond280) V2 load(1, XDATA, add(CFA_XSP16, literal(-19)))
          CFI (cfiCond280) V3 load(1, XDATA, add(CFA_XSP16, literal(-18)))
          CFI (cfiCond280) V4 load(1, XDATA, add(CFA_XSP16, literal(-17)))
          CFI (cfiCond280) V5 load(1, XDATA, add(CFA_XSP16, literal(-16)))
          CFI (cfiCond280) V6 load(1, XDATA, add(CFA_XSP16, literal(-15)))
          CFI (cfiCond280) V7 load(1, XDATA, add(CFA_XSP16, literal(-14)))
          CFI (cfiCond280) V8 load(1, XDATA, add(CFA_XSP16, literal(-13)))
          CFI (cfiCond280) V9 load(1, XDATA, add(CFA_XSP16, literal(-12)))
          CFI (cfiCond280) V10 load(1, XDATA, add(CFA_XSP16, literal(-11)))
          CFI (cfiCond280) V11 load(1, XDATA, add(CFA_XSP16, literal(-10)))
          CFI (cfiCond280) V12 load(1, XDATA, add(CFA_XSP16, literal(-9)))
          CFI (cfiCond280) V13 load(1, XDATA, add(CFA_XSP16, literal(-8)))
          CFI (cfiCond280) V14 load(1, XDATA, add(CFA_XSP16, literal(-7)))
          CFI (cfiCond280) R7 load(1, XDATA, add(CFA_XSP16, literal(-6)))
          CFI (cfiCond280) ?RET_LOW load(1, XDATA, add(CFA_XSP16, literal(-5)))
          CFI (cfiCond280) ?RET_HIGH load(1, XDATA, add(CFA_XSP16, literal(-4)))
          CFI (cfiCond280) ?BRET_EXT load(1, XDATA, add(CFA_XSP16, literal(-3)))
          CFI (cfiCond280) DPL0 load(1, XDATA, add(CFA_XSP16, literal(-2)))
          CFI (cfiCond280) DPH0 load(1, XDATA, add(CFA_XSP16, literal(-1)))
          CFI (cfiCond280) CFA_SP SP+0
          CFI (cfiCond280) CFA_XSP16 add(XSP16, 23)
          CFI Block cfiCond281 Using cfiCommon0
          CFI (cfiCond281) Function MT_AfIncomingMsg
          CFI (cfiCond281) Conditional ??CrossCallReturnLabel_132, ??CrossCallReturnLabel_26
          CFI (cfiCond281) R6 load(1, XDATA, add(CFA_XSP16, literal(-23)))
          CFI (cfiCond281) VB load(1, XDATA, add(CFA_XSP16, literal(-22)))
          CFI (cfiCond281) V0 load(1, XDATA, add(CFA_XSP16, literal(-21)))
          CFI (cfiCond281) V1 load(1, XDATA, add(CFA_XSP16, literal(-20)))
          CFI (cfiCond281) V2 load(1, XDATA, add(CFA_XSP16, literal(-19)))
          CFI (cfiCond281) V3 load(1, XDATA, add(CFA_XSP16, literal(-18)))
          CFI (cfiCond281) V4 load(1, XDATA, add(CFA_XSP16, literal(-17)))
          CFI (cfiCond281) V5 load(1, XDATA, add(CFA_XSP16, literal(-16)))
          CFI (cfiCond281) V6 load(1, XDATA, add(CFA_XSP16, literal(-15)))
          CFI (cfiCond281) V7 load(1, XDATA, add(CFA_XSP16, literal(-14)))
          CFI (cfiCond281) V8 load(1, XDATA, add(CFA_XSP16, literal(-13)))
          CFI (cfiCond281) V9 load(1, XDATA, add(CFA_XSP16, literal(-12)))
          CFI (cfiCond281) V10 load(1, XDATA, add(CFA_XSP16, literal(-11)))
          CFI (cfiCond281) V11 load(1, XDATA, add(CFA_XSP16, literal(-10)))
          CFI (cfiCond281) V12 load(1, XDATA, add(CFA_XSP16, literal(-9)))
          CFI (cfiCond281) V13 load(1, XDATA, add(CFA_XSP16, literal(-8)))
          CFI (cfiCond281) V14 load(1, XDATA, add(CFA_XSP16, literal(-7)))
          CFI (cfiCond281) R7 load(1, XDATA, add(CFA_XSP16, literal(-6)))
          CFI (cfiCond281) ?RET_LOW load(1, XDATA, add(CFA_XSP16, literal(-5)))
          CFI (cfiCond281) ?RET_HIGH load(1, XDATA, add(CFA_XSP16, literal(-4)))
          CFI (cfiCond281) ?BRET_EXT load(1, XDATA, add(CFA_XSP16, literal(-3)))
          CFI (cfiCond281) DPL0 load(1, XDATA, add(CFA_XSP16, literal(-2)))
          CFI (cfiCond281) DPH0 load(1, XDATA, add(CFA_XSP16, literal(-1)))
          CFI (cfiCond281) CFA_SP SP+0
          CFI (cfiCond281) CFA_XSP16 add(XSP16, 23)
          CFI Block cfiCond282 Using cfiCommon0
          CFI (cfiCond282) Function MT_AfIncomingMsg
          CFI (cfiCond282) Conditional ??CrossCallReturnLabel_132, ??CrossCallReturnLabel_27
          CFI (cfiCond282) R6 load(1, XDATA, add(CFA_XSP16, literal(-23)))
          CFI (cfiCond282) VB load(1, XDATA, add(CFA_XSP16, literal(-22)))
          CFI (cfiCond282) V0 load(1, XDATA, add(CFA_XSP16, literal(-21)))
          CFI (cfiCond282) V1 load(1, XDATA, add(CFA_XSP16, literal(-20)))
          CFI (cfiCond282) V2 load(1, XDATA, add(CFA_XSP16, literal(-19)))
          CFI (cfiCond282) V3 load(1, XDATA, add(CFA_XSP16, literal(-18)))
          CFI (cfiCond282) V4 load(1, XDATA, add(CFA_XSP16, literal(-17)))
          CFI (cfiCond282) V5 load(1, XDATA, add(CFA_XSP16, literal(-16)))
          CFI (cfiCond282) V6 load(1, XDATA, add(CFA_XSP16, literal(-15)))
          CFI (cfiCond282) V7 load(1, XDATA, add(CFA_XSP16, literal(-14)))
          CFI (cfiCond282) V8 load(1, XDATA, add(CFA_XSP16, literal(-13)))
          CFI (cfiCond282) V9 load(1, XDATA, add(CFA_XSP16, literal(-12)))
          CFI (cfiCond282) V10 load(1, XDATA, add(CFA_XSP16, literal(-11)))
          CFI (cfiCond282) V11 load(1, XDATA, add(CFA_XSP16, literal(-10)))
          CFI (cfiCond282) V12 load(1, XDATA, add(CFA_XSP16, literal(-9)))
          CFI (cfiCond282) V13 load(1, XDATA, add(CFA_XSP16, literal(-8)))
          CFI (cfiCond282) V14 load(1, XDATA, add(CFA_XSP16, literal(-7)))
          CFI (cfiCond282) R7 load(1, XDATA, add(CFA_XSP16, literal(-6)))
          CFI (cfiCond282) ?RET_LOW load(1, XDATA, add(CFA_XSP16, literal(-5)))
          CFI (cfiCond282) ?RET_HIGH load(1, XDATA, add(CFA_XSP16, literal(-4)))
          CFI (cfiCond282) ?BRET_EXT load(1, XDATA, add(CFA_XSP16, literal(-3)))
          CFI (cfiCond282) DPL0 load(1, XDATA, add(CFA_XSP16, literal(-2)))
          CFI (cfiCond282) DPH0 load(1, XDATA, add(CFA_XSP16, literal(-1)))
          CFI (cfiCond282) CFA_SP SP+0
          CFI (cfiCond282) CFA_XSP16 add(XSP16, 23)
          CFI Block cfiCond283 Using cfiCommon0
          CFI (cfiCond283) Function MT_AfIncomingMsg
          CFI (cfiCond283) Conditional ??CrossCallReturnLabel_131, ??CrossCallReturnLabel_110
          CFI (cfiCond283) R6 load(1, XDATA, add(CFA_XSP16, literal(-23)))
          CFI (cfiCond283) VB load(1, XDATA, add(CFA_XSP16, literal(-22)))
          CFI (cfiCond283) V0 load(1, XDATA, add(CFA_XSP16, literal(-21)))
          CFI (cfiCond283) V1 load(1, XDATA, add(CFA_XSP16, literal(-20)))
          CFI (cfiCond283) V2 load(1, XDATA, add(CFA_XSP16, literal(-19)))
          CFI (cfiCond283) V3 load(1, XDATA, add(CFA_XSP16, literal(-18)))
          CFI (cfiCond283) V4 load(1, XDATA, add(CFA_XSP16, literal(-17)))
          CFI (cfiCond283) V5 load(1, XDATA, add(CFA_XSP16, literal(-16)))
          CFI (cfiCond283) V6 load(1, XDATA, add(CFA_XSP16, literal(-15)))
          CFI (cfiCond283) V7 load(1, XDATA, add(CFA_XSP16, literal(-14)))
          CFI (cfiCond283) V8 load(1, XDATA, add(CFA_XSP16, literal(-13)))
          CFI (cfiCond283) V9 load(1, XDATA, add(CFA_XSP16, literal(-12)))
          CFI (cfiCond283) V10 load(1, XDATA, add(CFA_XSP16, literal(-11)))
          CFI (cfiCond283) V11 load(1, XDATA, add(CFA_XSP16, literal(-10)))
          CFI (cfiCond283) V12 load(1, XDATA, add(CFA_XSP16, literal(-9)))
          CFI (cfiCond283) V13 load(1, XDATA, add(CFA_XSP16, literal(-8)))
          CFI (cfiCond283) V14 load(1, XDATA, add(CFA_XSP16, literal(-7)))
          CFI (cfiCond283) R7 load(1, XDATA, add(CFA_XSP16, literal(-6)))
          CFI (cfiCond283) ?RET_LOW load(1, XDATA, add(CFA_XSP16, literal(-5)))
          CFI (cfiCond283) ?RET_HIGH load(1, XDATA, add(CFA_XSP16, literal(-4)))
          CFI (cfiCond283) ?BRET_EXT load(1, XDATA, add(CFA_XSP16, literal(-3)))
          CFI (cfiCond283) DPL0 load(1, XDATA, add(CFA_XSP16, literal(-2)))
          CFI (cfiCond283) DPH0 load(1, XDATA, add(CFA_XSP16, literal(-1)))
          CFI (cfiCond283) CFA_SP SP+0
          CFI (cfiCond283) CFA_XSP16 add(XSP16, 23)
          CFI Block cfiCond284 Using cfiCommon0
          CFI (cfiCond284) Function MT_AfIncomingMsg
          CFI (cfiCond284) Conditional ??CrossCallReturnLabel_131, ??CrossCallReturnLabel_111
          CFI (cfiCond284) R6 load(1, XDATA, add(CFA_XSP16, literal(-23)))
          CFI (cfiCond284) VB load(1, XDATA, add(CFA_XSP16, literal(-22)))
          CFI (cfiCond284) V0 load(1, XDATA, add(CFA_XSP16, literal(-21)))
          CFI (cfiCond284) V1 load(1, XDATA, add(CFA_XSP16, literal(-20)))
          CFI (cfiCond284) V2 load(1, XDATA, add(CFA_XSP16, literal(-19)))
          CFI (cfiCond284) V3 load(1, XDATA, add(CFA_XSP16, literal(-18)))
          CFI (cfiCond284) V4 load(1, XDATA, add(CFA_XSP16, literal(-17)))
          CFI (cfiCond284) V5 load(1, XDATA, add(CFA_XSP16, literal(-16)))
          CFI (cfiCond284) V6 load(1, XDATA, add(CFA_XSP16, literal(-15)))
          CFI (cfiCond284) V7 load(1, XDATA, add(CFA_XSP16, literal(-14)))
          CFI (cfiCond284) V8 load(1, XDATA, add(CFA_XSP16, literal(-13)))
          CFI (cfiCond284) V9 load(1, XDATA, add(CFA_XSP16, literal(-12)))
          CFI (cfiCond284) V10 load(1, XDATA, add(CFA_XSP16, literal(-11)))
          CFI (cfiCond284) V11 load(1, XDATA, add(CFA_XSP16, literal(-10)))
          CFI (cfiCond284) V12 load(1, XDATA, add(CFA_XSP16, literal(-9)))
          CFI (cfiCond284) V13 load(1, XDATA, add(CFA_XSP16, literal(-8)))
          CFI (cfiCond284) V14 load(1, XDATA, add(CFA_XSP16, literal(-7)))
          CFI (cfiCond284) R7 load(1, XDATA, add(CFA_XSP16, literal(-6)))
          CFI (cfiCond284) ?RET_LOW load(1, XDATA, add(CFA_XSP16, literal(-5)))
          CFI (cfiCond284) ?RET_HIGH load(1, XDATA, add(CFA_XSP16, literal(-4)))
          CFI (cfiCond284) ?BRET_EXT load(1, XDATA, add(CFA_XSP16, literal(-3)))
          CFI (cfiCond284) DPL0 load(1, XDATA, add(CFA_XSP16, literal(-2)))
          CFI (cfiCond284) DPH0 load(1, XDATA, add(CFA_XSP16, literal(-1)))
          CFI (cfiCond284) CFA_SP SP+0
          CFI (cfiCond284) CFA_XSP16 add(XSP16, 23)
          CFI Block cfiCond285 Using cfiCommon0
          CFI (cfiCond285) Function MT_AfIncomingMsg
          CFI (cfiCond285) Conditional ??CrossCallReturnLabel_131, ??CrossCallReturnLabel_112
          CFI (cfiCond285) R6 load(1, XDATA, add(CFA_XSP16, literal(-23)))
          CFI (cfiCond285) VB load(1, XDATA, add(CFA_XSP16, literal(-22)))
          CFI (cfiCond285) V0 load(1, XDATA, add(CFA_XSP16, literal(-21)))
          CFI (cfiCond285) V1 load(1, XDATA, add(CFA_XSP16, literal(-20)))
          CFI (cfiCond285) V2 load(1, XDATA, add(CFA_XSP16, literal(-19)))
          CFI (cfiCond285) V3 load(1, XDATA, add(CFA_XSP16, literal(-18)))
          CFI (cfiCond285) V4 load(1, XDATA, add(CFA_XSP16, literal(-17)))
          CFI (cfiCond285) V5 load(1, XDATA, add(CFA_XSP16, literal(-16)))
          CFI (cfiCond285) V6 load(1, XDATA, add(CFA_XSP16, literal(-15)))
          CFI (cfiCond285) V7 load(1, XDATA, add(CFA_XSP16, literal(-14)))
          CFI (cfiCond285) V8 load(1, XDATA, add(CFA_XSP16, literal(-13)))
          CFI (cfiCond285) V9 load(1, XDATA, add(CFA_XSP16, literal(-12)))
          CFI (cfiCond285) V10 load(1, XDATA, add(CFA_XSP16, literal(-11)))
          CFI (cfiCond285) V11 load(1, XDATA, add(CFA_XSP16, literal(-10)))
          CFI (cfiCond285) V12 load(1, XDATA, add(CFA_XSP16, literal(-9)))
          CFI (cfiCond285) V13 load(1, XDATA, add(CFA_XSP16, literal(-8)))
          CFI (cfiCond285) V14 load(1, XDATA, add(CFA_XSP16, literal(-7)))
          CFI (cfiCond285) R7 load(1, XDATA, add(CFA_XSP16, literal(-6)))
          CFI (cfiCond285) ?RET_LOW load(1, XDATA, add(CFA_XSP16, literal(-5)))
          CFI (cfiCond285) ?RET_HIGH load(1, XDATA, add(CFA_XSP16, literal(-4)))
          CFI (cfiCond285) ?BRET_EXT load(1, XDATA, add(CFA_XSP16, literal(-3)))
          CFI (cfiCond285) DPL0 load(1, XDATA, add(CFA_XSP16, literal(-2)))
          CFI (cfiCond285) DPH0 load(1, XDATA, add(CFA_XSP16, literal(-1)))
          CFI (cfiCond285) CFA_SP SP+0
          CFI (cfiCond285) CFA_XSP16 add(XSP16, 23)
          CFI Block cfiCond286 Using cfiCommon0
          CFI (cfiCond286) Function MT_AfIncomingMsg
          CFI (cfiCond286) Conditional ??CrossCallReturnLabel_131, ??CrossCallReturnLabel_113
          CFI (cfiCond286) R6 load(1, XDATA, add(CFA_XSP16, literal(-23)))
          CFI (cfiCond286) VB load(1, XDATA, add(CFA_XSP16, literal(-22)))
          CFI (cfiCond286) V0 load(1, XDATA, add(CFA_XSP16, literal(-21)))
          CFI (cfiCond286) V1 load(1, XDATA, add(CFA_XSP16, literal(-20)))
          CFI (cfiCond286) V2 load(1, XDATA, add(CFA_XSP16, literal(-19)))
          CFI (cfiCond286) V3 load(1, XDATA, add(CFA_XSP16, literal(-18)))
          CFI (cfiCond286) V4 load(1, XDATA, add(CFA_XSP16, literal(-17)))
          CFI (cfiCond286) V5 load(1, XDATA, add(CFA_XSP16, literal(-16)))
          CFI (cfiCond286) V6 load(1, XDATA, add(CFA_XSP16, literal(-15)))
          CFI (cfiCond286) V7 load(1, XDATA, add(CFA_XSP16, literal(-14)))
          CFI (cfiCond286) V8 load(1, XDATA, add(CFA_XSP16, literal(-13)))
          CFI (cfiCond286) V9 load(1, XDATA, add(CFA_XSP16, literal(-12)))
          CFI (cfiCond286) V10 load(1, XDATA, add(CFA_XSP16, literal(-11)))
          CFI (cfiCond286) V11 load(1, XDATA, add(CFA_XSP16, literal(-10)))
          CFI (cfiCond286) V12 load(1, XDATA, add(CFA_XSP16, literal(-9)))
          CFI (cfiCond286) V13 load(1, XDATA, add(CFA_XSP16, literal(-8)))
          CFI (cfiCond286) V14 load(1, XDATA, add(CFA_XSP16, literal(-7)))
          CFI (cfiCond286) R7 load(1, XDATA, add(CFA_XSP16, literal(-6)))
          CFI (cfiCond286) ?RET_LOW load(1, XDATA, add(CFA_XSP16, literal(-5)))
          CFI (cfiCond286) ?RET_HIGH load(1, XDATA, add(CFA_XSP16, literal(-4)))
          CFI (cfiCond286) ?BRET_EXT load(1, XDATA, add(CFA_XSP16, literal(-3)))
          CFI (cfiCond286) DPL0 load(1, XDATA, add(CFA_XSP16, literal(-2)))
          CFI (cfiCond286) DPH0 load(1, XDATA, add(CFA_XSP16, literal(-1)))
          CFI (cfiCond286) CFA_SP SP+0
          CFI (cfiCond286) CFA_XSP16 add(XSP16, 23)
          CFI Block cfiCond287 Using cfiCommon0
          CFI (cfiCond287) Function MT_AfDataRequest
          CFI (cfiCond287) Conditional ??CrossCallReturnLabel_133
          CFI (cfiCond287) R6 load(1, XDATA, add(CFA_XSP16, literal(-20)))
          CFI (cfiCond287) VB load(1, XDATA, add(CFA_XSP16, literal(-19)))
          CFI (cfiCond287) V0 load(1, XDATA, add(CFA_XSP16, literal(-18)))
          CFI (cfiCond287) V1 load(1, XDATA, add(CFA_XSP16, literal(-17)))
          CFI (cfiCond287) V2 load(1, XDATA, add(CFA_XSP16, literal(-16)))
          CFI (cfiCond287) V3 load(1, XDATA, add(CFA_XSP16, literal(-15)))
          CFI (cfiCond287) V4 load(1, XDATA, add(CFA_XSP16, literal(-14)))
          CFI (cfiCond287) V5 load(1, XDATA, add(CFA_XSP16, literal(-13)))
          CFI (cfiCond287) V6 load(1, XDATA, add(CFA_XSP16, literal(-12)))
          CFI (cfiCond287) V7 load(1, XDATA, add(CFA_XSP16, literal(-11)))
          CFI (cfiCond287) V8 load(1, XDATA, add(CFA_XSP16, literal(-10)))
          CFI (cfiCond287) V9 load(1, XDATA, add(CFA_XSP16, literal(-9)))
          CFI (cfiCond287) V10 load(1, XDATA, add(CFA_XSP16, literal(-8)))
          CFI (cfiCond287) V11 load(1, XDATA, add(CFA_XSP16, literal(-7)))
          CFI (cfiCond287) R7 load(1, XDATA, add(CFA_XSP16, literal(-6)))
          CFI (cfiCond287) ?RET_LOW load(1, XDATA, add(CFA_XSP16, literal(-5)))
          CFI (cfiCond287) ?RET_HIGH load(1, XDATA, add(CFA_XSP16, literal(-4)))
          CFI (cfiCond287) ?BRET_EXT load(1, XDATA, add(CFA_XSP16, literal(-3)))
          CFI (cfiCond287) DPL0 load(1, XDATA, add(CFA_XSP16, literal(-2)))
          CFI (cfiCond287) DPH0 load(1, XDATA, add(CFA_XSP16, literal(-1)))
          CFI (cfiCond287) CFA_SP SP+-1
          CFI (cfiCond287) CFA_XSP16 add(XSP16, 34)
          CFI Block cfiCond288 Using cfiCommon0
          CFI (cfiCond288) Function MT_AfExec
          CFI (cfiCond288) Conditional ??CrossCallReturnLabel_134, ??CrossCallReturnLabel_7
          CFI (cfiCond288) R6 load(1, XDATA, add(CFA_XSP16, literal(-9)))
          CFI (cfiCond288) VB load(1, XDATA, add(CFA_XSP16, literal(-8)))
          CFI (cfiCond288) V0 load(1, XDATA, add(CFA_XSP16, literal(-7)))
          CFI (cfiCond288) R7 load(1, XDATA, add(CFA_XSP16, literal(-6)))
          CFI (cfiCond288) ?RET_LOW load(1, XDATA, add(CFA_XSP16, literal(-5)))
          CFI (cfiCond288) ?RET_HIGH load(1, XDATA, add(CFA_XSP16, literal(-4)))
          CFI (cfiCond288) ?BRET_EXT load(1, XDATA, add(CFA_XSP16, literal(-3)))
          CFI (cfiCond288) DPL0 load(1, XDATA, add(CFA_XSP16, literal(-2)))
          CFI (cfiCond288) DPH0 load(1, XDATA, add(CFA_XSP16, literal(-1)))
          CFI (cfiCond288) CFA_SP SP+0
          CFI (cfiCond288) CFA_XSP16 add(XSP16, 9)
          CFI Block cfiCond289 Using cfiCommon0
          CFI (cfiCond289) Function MT_AfDataRequest
          CFI (cfiCond289) Conditional ??CrossCallReturnLabel_134, ??CrossCallReturnLabel_6
          CFI (cfiCond289) R6 load(1, XDATA, add(CFA_XSP16, literal(-20)))
          CFI (cfiCond289) VB load(1, XDATA, add(CFA_XSP16, literal(-19)))
          CFI (cfiCond289) V0 load(1, XDATA, add(CFA_XSP16, literal(-18)))
          CFI (cfiCond289) V1 load(1, XDATA, add(CFA_XSP16, literal(-17)))
          CFI (cfiCond289) V2 load(1, XDATA, add(CFA_XSP16, literal(-16)))
          CFI (cfiCond289) V3 load(1, XDATA, add(CFA_XSP16, literal(-15)))
          CFI (cfiCond289) V4 load(1, XDATA, add(CFA_XSP16, literal(-14)))
          CFI (cfiCond289) V5 load(1, XDATA, add(CFA_XSP16, literal(-13)))
          CFI (cfiCond289) V6 load(1, XDATA, add(CFA_XSP16, literal(-12)))
          CFI (cfiCond289) V7 load(1, XDATA, add(CFA_XSP16, literal(-11)))
          CFI (cfiCond289) V8 load(1, XDATA, add(CFA_XSP16, literal(-10)))
          CFI (cfiCond289) V9 load(1, XDATA, add(CFA_XSP16, literal(-9)))
          CFI (cfiCond289) V10 load(1, XDATA, add(CFA_XSP16, literal(-8)))
          CFI (cfiCond289) V11 load(1, XDATA, add(CFA_XSP16, literal(-7)))
          CFI (cfiCond289) R7 load(1, XDATA, add(CFA_XSP16, literal(-6)))
          CFI (cfiCond289) ?RET_LOW load(1, XDATA, add(CFA_XSP16, literal(-5)))
          CFI (cfiCond289) ?RET_HIGH load(1, XDATA, add(CFA_XSP16, literal(-4)))
          CFI (cfiCond289) ?BRET_EXT load(1, XDATA, add(CFA_XSP16, literal(-3)))
          CFI (cfiCond289) DPL0 load(1, XDATA, add(CFA_XSP16, literal(-2)))
          CFI (cfiCond289) DPH0 load(1, XDATA, add(CFA_XSP16, literal(-1)))
          CFI (cfiCond289) CFA_SP SP+0
          CFI (cfiCond289) CFA_XSP16 add(XSP16, 34)
          CFI Block cfiCond290 Using cfiCommon0
          CFI (cfiCond290) Function MT_AfDataRequest
          CFI (cfiCond290) Conditional ??CrossCallReturnLabel_139, ??CrossCallReturnLabel_16
          CFI (cfiCond290) R6 load(1, XDATA, add(CFA_XSP16, literal(-20)))
          CFI (cfiCond290) VB load(1, XDATA, add(CFA_XSP16, literal(-19)))
          CFI (cfiCond290) V0 load(1, XDATA, add(CFA_XSP16, literal(-18)))
          CFI (cfiCond290) V1 load(1, XDATA, add(CFA_XSP16, literal(-17)))
          CFI (cfiCond290) V2 load(1, XDATA, add(CFA_XSP16, literal(-16)))
          CFI (cfiCond290) V3 load(1, XDATA, add(CFA_XSP16, literal(-15)))
          CFI (cfiCond290) V4 load(1, XDATA, add(CFA_XSP16, literal(-14)))
          CFI (cfiCond290) V5 load(1, XDATA, add(CFA_XSP16, literal(-13)))
          CFI (cfiCond290) V6 load(1, XDATA, add(CFA_XSP16, literal(-12)))
          CFI (cfiCond290) V7 load(1, XDATA, add(CFA_XSP16, literal(-11)))
          CFI (cfiCond290) V8 load(1, XDATA, add(CFA_XSP16, literal(-10)))
          CFI (cfiCond290) V9 load(1, XDATA, add(CFA_XSP16, literal(-9)))
          CFI (cfiCond290) V10 load(1, XDATA, add(CFA_XSP16, literal(-8)))
          CFI (cfiCond290) V11 load(1, XDATA, add(CFA_XSP16, literal(-7)))
          CFI (cfiCond290) R7 load(1, XDATA, add(CFA_XSP16, literal(-6)))
          CFI (cfiCond290) ?RET_LOW load(1, XDATA, add(CFA_XSP16, literal(-5)))
          CFI (cfiCond290) ?RET_HIGH load(1, XDATA, add(CFA_XSP16, literal(-4)))
          CFI (cfiCond290) ?BRET_EXT load(1, XDATA, add(CFA_XSP16, literal(-3)))
          CFI (cfiCond290) DPL0 load(1, XDATA, add(CFA_XSP16, literal(-2)))
          CFI (cfiCond290) DPH0 load(1, XDATA, add(CFA_XSP16, literal(-1)))
          CFI (cfiCond290) CFA_SP SP+0
          CFI (cfiCond290) CFA_XSP16 add(XSP16, 34)
          CFI Block cfiCond291 Using cfiCommon0
          CFI (cfiCond291) Function MT_AfDataStore
          CFI (cfiCond291) Conditional ??CrossCallReturnLabel_139, ??CrossCallReturnLabel_17
          CFI (cfiCond291) R6 load(1, XDATA, add(CFA_XSP16, literal(-11)))
          CFI (cfiCond291) VB load(1, XDATA, add(CFA_XSP16, literal(-10)))
          CFI (cfiCond291) V0 load(1, XDATA, add(CFA_XSP16, literal(-9)))
          CFI (cfiCond291) V1 load(1, XDATA, add(CFA_XSP16, literal(-8)))
          CFI (cfiCond291) V2 load(1, XDATA, add(CFA_XSP16, literal(-7)))
          CFI (cfiCond291) R7 load(1, XDATA, add(CFA_XSP16, literal(-6)))
          CFI (cfiCond291) ?RET_LOW load(1, XDATA, add(CFA_XSP16, literal(-5)))
          CFI (cfiCond291) ?RET_HIGH load(1, XDATA, add(CFA_XSP16, literal(-4)))
          CFI (cfiCond291) ?BRET_EXT load(1, XDATA, add(CFA_XSP16, literal(-3)))
          CFI (cfiCond291) DPL0 load(1, XDATA, add(CFA_XSP16, literal(-2)))
          CFI (cfiCond291) DPH0 load(1, XDATA, add(CFA_XSP16, literal(-1)))
          CFI (cfiCond291) CFA_SP SP+0
          CFI (cfiCond291) CFA_XSP16 add(XSP16, 12)
          CFI Block cfiCond292 Using cfiCommon0
          CFI (cfiCond292) Function MT_AfDataRequest
          CFI (cfiCond292) Conditional ??CrossCallReturnLabel_138, ??CrossCallReturnLabel_14
          CFI (cfiCond292) R6 load(1, XDATA, add(CFA_XSP16, literal(-20)))
          CFI (cfiCond292) VB load(1, XDATA, add(CFA_XSP16, literal(-19)))
          CFI (cfiCond292) V0 load(1, XDATA, add(CFA_XSP16, literal(-18)))
          CFI (cfiCond292) V1 load(1, XDATA, add(CFA_XSP16, literal(-17)))
          CFI (cfiCond292) V2 load(1, XDATA, add(CFA_XSP16, literal(-16)))
          CFI (cfiCond292) V3 load(1, XDATA, add(CFA_XSP16, literal(-15)))
          CFI (cfiCond292) V4 load(1, XDATA, add(CFA_XSP16, literal(-14)))
          CFI (cfiCond292) V5 load(1, XDATA, add(CFA_XSP16, literal(-13)))
          CFI (cfiCond292) V6 load(1, XDATA, add(CFA_XSP16, literal(-12)))
          CFI (cfiCond292) V7 load(1, XDATA, add(CFA_XSP16, literal(-11)))
          CFI (cfiCond292) V8 load(1, XDATA, add(CFA_XSP16, literal(-10)))
          CFI (cfiCond292) V9 load(1, XDATA, add(CFA_XSP16, literal(-9)))
          CFI (cfiCond292) V10 load(1, XDATA, add(CFA_XSP16, literal(-8)))
          CFI (cfiCond292) V11 load(1, XDATA, add(CFA_XSP16, literal(-7)))
          CFI (cfiCond292) R7 load(1, XDATA, add(CFA_XSP16, literal(-6)))
          CFI (cfiCond292) ?RET_LOW load(1, XDATA, add(CFA_XSP16, literal(-5)))
          CFI (cfiCond292) ?RET_HIGH load(1, XDATA, add(CFA_XSP16, literal(-4)))
          CFI (cfiCond292) ?BRET_EXT load(1, XDATA, add(CFA_XSP16, literal(-3)))
          CFI (cfiCond292) DPL0 load(1, XDATA, add(CFA_XSP16, literal(-2)))
          CFI (cfiCond292) DPH0 load(1, XDATA, add(CFA_XSP16, literal(-1)))
          CFI (cfiCond292) CFA_SP SP+0
          CFI (cfiCond292) CFA_XSP16 add(XSP16, 34)
          CFI Block cfiCond293 Using cfiCommon0
          CFI (cfiCond293) Function MT_AfDataStore
          CFI (cfiCond293) Conditional ??CrossCallReturnLabel_138, ??CrossCallReturnLabel_15
          CFI (cfiCond293) R6 load(1, XDATA, add(CFA_XSP16, literal(-11)))
          CFI (cfiCond293) VB load(1, XDATA, add(CFA_XSP16, literal(-10)))
          CFI (cfiCond293) V0 load(1, XDATA, add(CFA_XSP16, literal(-9)))
          CFI (cfiCond293) V1 load(1, XDATA, add(CFA_XSP16, literal(-8)))
          CFI (cfiCond293) V2 load(1, XDATA, add(CFA_XSP16, literal(-7)))
          CFI (cfiCond293) R7 load(1, XDATA, add(CFA_XSP16, literal(-6)))
          CFI (cfiCond293) ?RET_LOW load(1, XDATA, add(CFA_XSP16, literal(-5)))
          CFI (cfiCond293) ?RET_HIGH load(1, XDATA, add(CFA_XSP16, literal(-4)))
          CFI (cfiCond293) ?BRET_EXT load(1, XDATA, add(CFA_XSP16, literal(-3)))
          CFI (cfiCond293) DPL0 load(1, XDATA, add(CFA_XSP16, literal(-2)))
          CFI (cfiCond293) DPH0 load(1, XDATA, add(CFA_XSP16, literal(-1)))
          CFI (cfiCond293) CFA_SP SP+0
          CFI (cfiCond293) CFA_XSP16 add(XSP16, 21)
          CFI Block cfiCond294 Using cfiCommon0
          CFI (cfiCond294) Function MT_AfDataRequest
          CFI (cfiCond294) Conditional ??CrossCallReturnLabel_137, ??CrossCallReturnLabel_12
          CFI (cfiCond294) R6 load(1, XDATA, add(CFA_XSP16, literal(-20)))
          CFI (cfiCond294) VB load(1, XDATA, add(CFA_XSP16, literal(-19)))
          CFI (cfiCond294) V0 load(1, XDATA, add(CFA_XSP16, literal(-18)))
          CFI (cfiCond294) V1 load(1, XDATA, add(CFA_XSP16, literal(-17)))
          CFI (cfiCond294) V2 load(1, XDATA, add(CFA_XSP16, literal(-16)))
          CFI (cfiCond294) V3 load(1, XDATA, add(CFA_XSP16, literal(-15)))
          CFI (cfiCond294) V4 load(1, XDATA, add(CFA_XSP16, literal(-14)))
          CFI (cfiCond294) V5 load(1, XDATA, add(CFA_XSP16, literal(-13)))
          CFI (cfiCond294) V6 load(1, XDATA, add(CFA_XSP16, literal(-12)))
          CFI (cfiCond294) V7 load(1, XDATA, add(CFA_XSP16, literal(-11)))
          CFI (cfiCond294) V8 load(1, XDATA, add(CFA_XSP16, literal(-10)))
          CFI (cfiCond294) V9 load(1, XDATA, add(CFA_XSP16, literal(-9)))
          CFI (cfiCond294) V10 load(1, XDATA, add(CFA_XSP16, literal(-8)))
          CFI (cfiCond294) V11 load(1, XDATA, add(CFA_XSP16, literal(-7)))
          CFI (cfiCond294) R7 load(1, XDATA, add(CFA_XSP16, literal(-6)))
          CFI (cfiCond294) ?RET_LOW load(1, XDATA, add(CFA_XSP16, literal(-5)))
          CFI (cfiCond294) ?RET_HIGH load(1, XDATA, add(CFA_XSP16, literal(-4)))
          CFI (cfiCond294) ?BRET_EXT load(1, XDATA, add(CFA_XSP16, literal(-3)))
          CFI (cfiCond294) DPL0 load(1, XDATA, add(CFA_XSP16, literal(-2)))
          CFI (cfiCond294) DPH0 load(1, XDATA, add(CFA_XSP16, literal(-1)))
          CFI (cfiCond294) CFA_SP SP+0
          CFI (cfiCond294) CFA_XSP16 add(XSP16, 34)
          CFI Block cfiCond295 Using cfiCommon0
          CFI (cfiCond295) Function MT_AfDataStore
          CFI (cfiCond295) Conditional ??CrossCallReturnLabel_137, ??CrossCallReturnLabel_13
          CFI (cfiCond295) R6 load(1, XDATA, add(CFA_XSP16, literal(-11)))
          CFI (cfiCond295) VB load(1, XDATA, add(CFA_XSP16, literal(-10)))
          CFI (cfiCond295) V0 load(1, XDATA, add(CFA_XSP16, literal(-9)))
          CFI (cfiCond295) V1 load(1, XDATA, add(CFA_XSP16, literal(-8)))
          CFI (cfiCond295) V2 load(1, XDATA, add(CFA_XSP16, literal(-7)))
          CFI (cfiCond295) R7 load(1, XDATA, add(CFA_XSP16, literal(-6)))
          CFI (cfiCond295) ?RET_LOW load(1, XDATA, add(CFA_XSP16, literal(-5)))
          CFI (cfiCond295) ?RET_HIGH load(1, XDATA, add(CFA_XSP16, literal(-4)))
          CFI (cfiCond295) ?BRET_EXT load(1, XDATA, add(CFA_XSP16, literal(-3)))
          CFI (cfiCond295) DPL0 load(1, XDATA, add(CFA_XSP16, literal(-2)))
          CFI (cfiCond295) DPH0 load(1, XDATA, add(CFA_XSP16, literal(-1)))
          CFI (cfiCond295) CFA_SP SP+0
          CFI (cfiCond295) CFA_XSP16 add(XSP16, 17)
          CFI Block cfiCond296 Using cfiCommon0
          CFI (cfiCond296) Function MT_AfDataRequest
          CFI (cfiCond296) Conditional ??CrossCallReturnLabel_136, ??CrossCallReturnLabel_10
          CFI (cfiCond296) R6 load(1, XDATA, add(CFA_XSP16, literal(-20)))
          CFI (cfiCond296) VB load(1, XDATA, add(CFA_XSP16, literal(-19)))
          CFI (cfiCond296) V0 load(1, XDATA, add(CFA_XSP16, literal(-18)))
          CFI (cfiCond296) V1 load(1, XDATA, add(CFA_XSP16, literal(-17)))
          CFI (cfiCond296) V2 load(1, XDATA, add(CFA_XSP16, literal(-16)))
          CFI (cfiCond296) V3 load(1, XDATA, add(CFA_XSP16, literal(-15)))
          CFI (cfiCond296) V4 load(1, XDATA, add(CFA_XSP16, literal(-14)))
          CFI (cfiCond296) V5 load(1, XDATA, add(CFA_XSP16, literal(-13)))
          CFI (cfiCond296) V6 load(1, XDATA, add(CFA_XSP16, literal(-12)))
          CFI (cfiCond296) V7 load(1, XDATA, add(CFA_XSP16, literal(-11)))
          CFI (cfiCond296) V8 load(1, XDATA, add(CFA_XSP16, literal(-10)))
          CFI (cfiCond296) V9 load(1, XDATA, add(CFA_XSP16, literal(-9)))
          CFI (cfiCond296) V10 load(1, XDATA, add(CFA_XSP16, literal(-8)))
          CFI (cfiCond296) V11 load(1, XDATA, add(CFA_XSP16, literal(-7)))
          CFI (cfiCond296) R7 load(1, XDATA, add(CFA_XSP16, literal(-6)))
          CFI (cfiCond296) ?RET_LOW load(1, XDATA, add(CFA_XSP16, literal(-5)))
          CFI (cfiCond296) ?RET_HIGH load(1, XDATA, add(CFA_XSP16, literal(-4)))
          CFI (cfiCond296) ?BRET_EXT load(1, XDATA, add(CFA_XSP16, literal(-3)))
          CFI (cfiCond296) DPL0 load(1, XDATA, add(CFA_XSP16, literal(-2)))
          CFI (cfiCond296) DPH0 load(1, XDATA, add(CFA_XSP16, literal(-1)))
          CFI (cfiCond296) CFA_SP SP+0
          CFI (cfiCond296) CFA_XSP16 add(XSP16, 34)
          CFI Block cfiCond297 Using cfiCommon0
          CFI (cfiCond297) Function MT_AfDataStore
          CFI (cfiCond297) Conditional ??CrossCallReturnLabel_136, ??CrossCallReturnLabel_11
          CFI (cfiCond297) R6 load(1, XDATA, add(CFA_XSP16, literal(-11)))
          CFI (cfiCond297) VB load(1, XDATA, add(CFA_XSP16, literal(-10)))
          CFI (cfiCond297) V0 load(1, XDATA, add(CFA_XSP16, literal(-9)))
          CFI (cfiCond297) V1 load(1, XDATA, add(CFA_XSP16, literal(-8)))
          CFI (cfiCond297) V2 load(1, XDATA, add(CFA_XSP16, literal(-7)))
          CFI (cfiCond297) R7 load(1, XDATA, add(CFA_XSP16, literal(-6)))
          CFI (cfiCond297) ?RET_LOW load(1, XDATA, add(CFA_XSP16, literal(-5)))
          CFI (cfiCond297) ?RET_HIGH load(1, XDATA, add(CFA_XSP16, literal(-4)))
          CFI (cfiCond297) ?BRET_EXT load(1, XDATA, add(CFA_XSP16, literal(-3)))
          CFI (cfiCond297) DPL0 load(1, XDATA, add(CFA_XSP16, literal(-2)))
          CFI (cfiCond297) DPH0 load(1, XDATA, add(CFA_XSP16, literal(-1)))
          CFI (cfiCond297) CFA_SP SP+0
          CFI (cfiCond297) CFA_XSP16 add(XSP16, 19)
          CFI Block cfiCond298 Using cfiCommon0
          CFI (cfiCond298) Function MT_AfDataRequest
          CFI (cfiCond298) Conditional ??CrossCallReturnLabel_135, ??CrossCallReturnLabel_8
          CFI (cfiCond298) R6 load(1, XDATA, add(CFA_XSP16, literal(-20)))
          CFI (cfiCond298) VB load(1, XDATA, add(CFA_XSP16, literal(-19)))
          CFI (cfiCond298) V0 load(1, XDATA, add(CFA_XSP16, literal(-18)))
          CFI (cfiCond298) V1 load(1, XDATA, add(CFA_XSP16, literal(-17)))
          CFI (cfiCond298) V2 load(1, XDATA, add(CFA_XSP16, literal(-16)))
          CFI (cfiCond298) V3 load(1, XDATA, add(CFA_XSP16, literal(-15)))
          CFI (cfiCond298) V4 load(1, XDATA, add(CFA_XSP16, literal(-14)))
          CFI (cfiCond298) V5 load(1, XDATA, add(CFA_XSP16, literal(-13)))
          CFI (cfiCond298) V6 load(1, XDATA, add(CFA_XSP16, literal(-12)))
          CFI (cfiCond298) V7 load(1, XDATA, add(CFA_XSP16, literal(-11)))
          CFI (cfiCond298) V8 load(1, XDATA, add(CFA_XSP16, literal(-10)))
          CFI (cfiCond298) V9 load(1, XDATA, add(CFA_XSP16, literal(-9)))
          CFI (cfiCond298) V10 load(1, XDATA, add(CFA_XSP16, literal(-8)))
          CFI (cfiCond298) V11 load(1, XDATA, add(CFA_XSP16, literal(-7)))
          CFI (cfiCond298) R7 load(1, XDATA, add(CFA_XSP16, literal(-6)))
          CFI (cfiCond298) ?RET_LOW load(1, XDATA, add(CFA_XSP16, literal(-5)))
          CFI (cfiCond298) ?RET_HIGH load(1, XDATA, add(CFA_XSP16, literal(-4)))
          CFI (cfiCond298) ?BRET_EXT load(1, XDATA, add(CFA_XSP16, literal(-3)))
          CFI (cfiCond298) DPL0 load(1, XDATA, add(CFA_XSP16, literal(-2)))
          CFI (cfiCond298) DPH0 load(1, XDATA, add(CFA_XSP16, literal(-1)))
          CFI (cfiCond298) CFA_SP SP+0
          CFI (cfiCond298) CFA_XSP16 add(XSP16, 34)
          CFI Block cfiCond299 Using cfiCommon0
          CFI (cfiCond299) Function MT_AfDataStore
          CFI (cfiCond299) Conditional ??CrossCallReturnLabel_135, ??CrossCallReturnLabel_9
          CFI (cfiCond299) R6 load(1, XDATA, add(CFA_XSP16, literal(-11)))
          CFI (cfiCond299) VB load(1, XDATA, add(CFA_XSP16, literal(-10)))
          CFI (cfiCond299) V0 load(1, XDATA, add(CFA_XSP16, literal(-9)))
          CFI (cfiCond299) V1 load(1, XDATA, add(CFA_XSP16, literal(-8)))
          CFI (cfiCond299) V2 load(1, XDATA, add(CFA_XSP16, literal(-7)))
          CFI (cfiCond299) R7 load(1, XDATA, add(CFA_XSP16, literal(-6)))
          CFI (cfiCond299) ?RET_LOW load(1, XDATA, add(CFA_XSP16, literal(-5)))
          CFI (cfiCond299) ?RET_HIGH load(1, XDATA, add(CFA_XSP16, literal(-4)))
          CFI (cfiCond299) ?BRET_EXT load(1, XDATA, add(CFA_XSP16, literal(-3)))
          CFI (cfiCond299) DPL0 load(1, XDATA, add(CFA_XSP16, literal(-2)))
          CFI (cfiCond299) DPH0 load(1, XDATA, add(CFA_XSP16, literal(-1)))
          CFI (cfiCond299) CFA_SP SP+0
          CFI (cfiCond299) CFA_XSP16 add(XSP16, 21)
          CFI Block cfiPicker300 Using cfiCommon1
          CFI (cfiPicker300) NoFunction
          CFI (cfiPicker300) Picker
        ADDC    A,#0x0
        MOV     DPH,A
        RET
          CFI EndBlock cfiCond273
          CFI EndBlock cfiCond274
          CFI EndBlock cfiCond275
          CFI EndBlock cfiCond276
          CFI EndBlock cfiCond277
          CFI EndBlock cfiCond278
          CFI EndBlock cfiCond279
          CFI EndBlock cfiCond280
          CFI EndBlock cfiCond281
          CFI EndBlock cfiCond282
          CFI EndBlock cfiCond283
          CFI EndBlock cfiCond284
          CFI EndBlock cfiCond285
          CFI EndBlock cfiCond286
          CFI EndBlock cfiCond287
          CFI EndBlock cfiCond288
          CFI EndBlock cfiCond289
          CFI EndBlock cfiCond290
          CFI EndBlock cfiCond291
          CFI EndBlock cfiCond292
          CFI EndBlock cfiCond293
          CFI EndBlock cfiCond294
          CFI EndBlock cfiCond295
          CFI EndBlock cfiCond296
          CFI EndBlock cfiCond297
          CFI EndBlock cfiCond298
          CFI EndBlock cfiCond299
          CFI EndBlock cfiPicker300

        RSEG BANKED_CODE:CODE:NOROOT(0)
?Subroutine10:
          CFI Block cfiCond301 Using cfiCommon0
          CFI Function MT_AfDataRequest
          CFI Conditional ??CrossCallReturnLabel_10
          CFI R6 load(1, XDATA, add(CFA_XSP16, literal(-20)))
          CFI VB load(1, XDATA, add(CFA_XSP16, literal(-19)))
          CFI V0 load(1, XDATA, add(CFA_XSP16, literal(-18)))
          CFI V1 load(1, XDATA, add(CFA_XSP16, literal(-17)))
          CFI V2 load(1, XDATA, add(CFA_XSP16, literal(-16)))
          CFI V3 load(1, XDATA, add(CFA_XSP16, literal(-15)))
          CFI V4 load(1, XDATA, add(CFA_XSP16, literal(-14)))
          CFI V5 load(1, XDATA, add(CFA_XSP16, literal(-13)))
          CFI V6 load(1, XDATA, add(CFA_XSP16, literal(-12)))
          CFI V7 load(1, XDATA, add(CFA_XSP16, literal(-11)))
          CFI V8 load(1, XDATA, add(CFA_XSP16, literal(-10)))
          CFI V9 load(1, XDATA, add(CFA_XSP16, literal(-9)))
          CFI V10 load(1, XDATA, add(CFA_XSP16, literal(-8)))
          CFI V11 load(1, XDATA, add(CFA_XSP16, literal(-7)))
          CFI R7 load(1, XDATA, add(CFA_XSP16, literal(-6)))
          CFI ?RET_LOW load(1, XDATA, add(CFA_XSP16, literal(-5)))
          CFI ?RET_HIGH load(1, XDATA, add(CFA_XSP16, literal(-4)))
          CFI ?BRET_EXT load(1, XDATA, add(CFA_XSP16, literal(-3)))
          CFI DPL0 load(1, XDATA, add(CFA_XSP16, literal(-2)))
          CFI DPH0 load(1, XDATA, add(CFA_XSP16, literal(-1)))
          CFI CFA_SP SP+0
          CFI CFA_XSP16 add(XSP16, 34)
          CFI Block cfiCond302 Using cfiCommon0
          CFI (cfiCond302) Function MT_AfDataStore
          CFI (cfiCond302) Conditional ??CrossCallReturnLabel_11
          CFI (cfiCond302) R6 load(1, XDATA, add(CFA_XSP16, literal(-11)))
          CFI (cfiCond302) VB load(1, XDATA, add(CFA_XSP16, literal(-10)))
          CFI (cfiCond302) V0 load(1, XDATA, add(CFA_XSP16, literal(-9)))
          CFI (cfiCond302) V1 load(1, XDATA, add(CFA_XSP16, literal(-8)))
          CFI (cfiCond302) V2 load(1, XDATA, add(CFA_XSP16, literal(-7)))
          CFI (cfiCond302) R7 load(1, XDATA, add(CFA_XSP16, literal(-6)))
          CFI (cfiCond302) ?RET_LOW load(1, XDATA, add(CFA_XSP16, literal(-5)))
          CFI (cfiCond302) ?RET_HIGH load(1, XDATA, add(CFA_XSP16, literal(-4)))
          CFI (cfiCond302) ?BRET_EXT load(1, XDATA, add(CFA_XSP16, literal(-3)))
          CFI (cfiCond302) DPL0 load(1, XDATA, add(CFA_XSP16, literal(-2)))
          CFI (cfiCond302) DPH0 load(1, XDATA, add(CFA_XSP16, literal(-1)))
          CFI (cfiCond302) CFA_SP SP+0
          CFI (cfiCond302) CFA_XSP16 add(XSP16, 19)
          CFI Block cfiPicker303 Using cfiCommon1
          CFI (cfiPicker303) NoFunction
          CFI (cfiPicker303) Picker
        LCALL   ?Subroutine40 & 0xFFFF
??CrossCallReturnLabel_74:
        ADD     A,#0x10
        LCALL   ?Subroutine42 & 0xFFFF
??CrossCallReturnLabel_136:
        RET
          CFI EndBlock cfiCond301
          CFI EndBlock cfiCond302
          CFI EndBlock cfiPicker303

        RSEG BANKED_CODE:CODE:NOROOT(0)
?Subroutine9:
          CFI Block cfiCond304 Using cfiCommon0
          CFI Function MT_AfDataRequest
          CFI Conditional ??CrossCallReturnLabel_8
          CFI R6 load(1, XDATA, add(CFA_XSP16, literal(-20)))
          CFI VB load(1, XDATA, add(CFA_XSP16, literal(-19)))
          CFI V0 load(1, XDATA, add(CFA_XSP16, literal(-18)))
          CFI V1 load(1, XDATA, add(CFA_XSP16, literal(-17)))
          CFI V2 load(1, XDATA, add(CFA_XSP16, literal(-16)))
          CFI V3 load(1, XDATA, add(CFA_XSP16, literal(-15)))
          CFI V4 load(1, XDATA, add(CFA_XSP16, literal(-14)))
          CFI V5 load(1, XDATA, add(CFA_XSP16, literal(-13)))
          CFI V6 load(1, XDATA, add(CFA_XSP16, literal(-12)))
          CFI V7 load(1, XDATA, add(CFA_XSP16, literal(-11)))
          CFI V8 load(1, XDATA, add(CFA_XSP16, literal(-10)))
          CFI V9 load(1, XDATA, add(CFA_XSP16, literal(-9)))
          CFI V10 load(1, XDATA, add(CFA_XSP16, literal(-8)))
          CFI V11 load(1, XDATA, add(CFA_XSP16, literal(-7)))
          CFI R7 load(1, XDATA, add(CFA_XSP16, literal(-6)))
          CFI ?RET_LOW load(1, XDATA, add(CFA_XSP16, literal(-5)))
          CFI ?RET_HIGH load(1, XDATA, add(CFA_XSP16, literal(-4)))
          CFI ?BRET_EXT load(1, XDATA, add(CFA_XSP16, literal(-3)))
          CFI DPL0 load(1, XDATA, add(CFA_XSP16, literal(-2)))
          CFI DPH0 load(1, XDATA, add(CFA_XSP16, literal(-1)))
          CFI CFA_SP SP+0
          CFI CFA_XSP16 add(XSP16, 34)
          CFI Block cfiCond305 Using cfiCommon0
          CFI (cfiCond305) Function MT_AfDataStore
          CFI (cfiCond305) Conditional ??CrossCallReturnLabel_9
          CFI (cfiCond305) R6 load(1, XDATA, add(CFA_XSP16, literal(-11)))
          CFI (cfiCond305) VB load(1, XDATA, add(CFA_XSP16, literal(-10)))
          CFI (cfiCond305) V0 load(1, XDATA, add(CFA_XSP16, literal(-9)))
          CFI (cfiCond305) V1 load(1, XDATA, add(CFA_XSP16, literal(-8)))
          CFI (cfiCond305) V2 load(1, XDATA, add(CFA_XSP16, literal(-7)))
          CFI (cfiCond305) R7 load(1, XDATA, add(CFA_XSP16, literal(-6)))
          CFI (cfiCond305) ?RET_LOW load(1, XDATA, add(CFA_XSP16, literal(-5)))
          CFI (cfiCond305) ?RET_HIGH load(1, XDATA, add(CFA_XSP16, literal(-4)))
          CFI (cfiCond305) ?BRET_EXT load(1, XDATA, add(CFA_XSP16, literal(-3)))
          CFI (cfiCond305) DPL0 load(1, XDATA, add(CFA_XSP16, literal(-2)))
          CFI (cfiCond305) DPH0 load(1, XDATA, add(CFA_XSP16, literal(-1)))
          CFI (cfiCond305) CFA_SP SP+0
          CFI (cfiCond305) CFA_XSP16 add(XSP16, 21)
          CFI Block cfiPicker306 Using cfiCommon1
          CFI (cfiPicker306) NoFunction
          CFI (cfiPicker306) Picker
        LCALL   ?Subroutine40 & 0xFFFF
??CrossCallReturnLabel_73:
        ADD     A,#0xe
        LCALL   ?Subroutine42 & 0xFFFF
??CrossCallReturnLabel_135:
        RET
          CFI EndBlock cfiCond304
          CFI EndBlock cfiCond305
          CFI EndBlock cfiPicker306

        RSEG BANK_RELAYS:CODE:REORDER:NOROOT(0)
??MT_AfExec?relay:
        CODE
        LCALL   ?BDISPATCH
        DATA24
        DC24    MT_AfExec

        RSEG BANK_RELAYS:CODE:REORDER:NOROOT(0)
??MT_AfCommandProcessing?relay:
        CODE
        LCALL   ?BDISPATCH
        DATA24
        DC24    MT_AfCommandProcessing

        RSEG BANK_RELAYS:CODE:REORDER:NOROOT(0)
??MT_AfRegister?relay:
        CODE
        LCALL   ?BDISPATCH
        DATA24
        DC24    MT_AfRegister

        RSEG BANK_RELAYS:CODE:REORDER:NOROOT(0)
??MT_AfDataRequest?relay:
        CODE
        LCALL   ?BDISPATCH
        DATA24
        DC24    MT_AfDataRequest

        RSEG BANK_RELAYS:CODE:REORDER:NOROOT(0)
??MT_AfDataRequestSrcRtg?relay:
        CODE
        LCALL   ?BDISPATCH
        DATA24
        DC24    MT_AfDataRequestSrcRtg

        RSEG BANK_RELAYS:CODE:REORDER:NOROOT(0)
??MT_AfDataConfirm?relay:
        CODE
        LCALL   ?BDISPATCH
        DATA24
        DC24    MT_AfDataConfirm

        RSEG BANK_RELAYS:CODE:REORDER:NOROOT(0)
??MT_AfIncomingMsg?relay:
        CODE
        LCALL   ?BDISPATCH
        DATA24
        DC24    MT_AfIncomingMsg

        RSEG BANK_RELAYS:CODE:REORDER:NOROOT(0)
??MT_AfDataRetrieve?relay:
        CODE
        LCALL   ?BDISPATCH
        DATA24
        DC24    MT_AfDataRetrieve

        RSEG BANK_RELAYS:CODE:REORDER:NOROOT(0)
??MT_AfDataStore?relay:
        CODE
        LCALL   ?BDISPATCH
        DATA24
        DC24    MT_AfDataStore

        END
//  891 
//  892 /**************************************************************************************************
//  893  * @fn          MT_AfAPSF_ConfigSet
//  894  *
//  895  * @brief       This function is the MT proxy for afAPSF_ConfigSet().
//  896  *
//  897  * input parameters
//  898  *
//  899  * @param       pBuf - Pointer to the received buffer.
//  900  *
//  901  * output parameters
//  902  *
//  903  * None.
//  904  *
//  905  * @return      None.
//  906  */
//  907 static void MT_AfAPSF_ConfigSet(uint8 *pBuf)
//  908 {
//  909   afAPSF_Config_t cfg = { pBuf[MT_RPC_POS_DAT0+1], pBuf[MT_RPC_POS_DAT0+2] };
//  910   afStatus_t rtrn = afAPSF_ConfigSet(pBuf[MT_RPC_POS_DAT0], &cfg);
//  911 
//  912   MT_BuildAndSendZToolResponse(((uint8)MT_RPC_CMD_SRSP | (uint8)MT_RPC_SYS_AF),
//  913                                        MT_AF_APSF_CONFIG_SET, 1, (uint8 *)&rtrn);
//  914 }
//  915 
//  916 /***************************************************************************************************
//  917 ***************************************************************************************************/
// 
// 3 168 bytes in segment BANKED_CODE
//    54 bytes in segment BANK_RELAYS
//     4 bytes in segment XDATA_Z
// 
// 3 222 bytes of CODE  memory
//     4 bytes of XDATA memory
//
//Errors: none
//Warnings: none
