###############################################################################
#                                                                             #
# IAR C/C++ Compiler V8.20.2.41139 for 8051             09/Jan/2023  18:01:10 #
# Copyright 2004-2013 IAR Systems AB.                                         #
#                                                                             #
#    Core               =  plain                                              #
#    Code model         =  banked                                             #
#    Data model         =  large                                              #
#    Calling convention =  xdata reentrant                                    #
#    Constant location  =  data_rom                                           #
#    Dptr setup         =  1,16                                               #
#                                                                             #
#    Source file        =  E:\Project\ZStack\Components\osal\mcu\cc2530\OSAL_ #
#                          Nv.c                                               #
#    Command line       =  -f E:\Project\ZStack\Projects\zstack\Samples\Gener #
#                          icApp\CC2530DB\..\..\..\Tools\CC2530DB\f8wCoord.cf #
#                          g (-DCPU32MHZ -DROOT=__near_func                   #
#                          -DMAC_CFG_APP_PENDING_QUEUE=TRUE                   #
#                          -DMAC_CFG_TX_DATA_MAX=5 -DMAC_CFG_TX_MAX=8         #
#                          -DMAC_CFG_RX_MAX=5 -DZDO_COORDINATOR -DRTR_NWK)    #
#                          -f E:\Project\ZStack\Projects\zstack\Samples\Gener #
#                          icApp\CC2530DB\..\..\..\Tools\CC2530DB\f8wConfig.c #
#                          fg (-DZIGBEEPRO -DSECURE=0 -DZG_SECURE_DYNAMIC=0   #
#                          -DREFLECTOR -DDEFAULT_CHANLIST=0x00000800          #
#                          -DZDAPP_CONFIG_PAN_ID=0xFFFF                       #
#                          -DNWK_START_DELAY=100 -DEXTENDED_JOINING_RANDOM_MA #
#                          SK=0x007F -DBEACON_REQUEST_DELAY=100               #
#                          -DBEACON_REQ_DELAY_MASK=0x00FF                     #
#                          -DLINK_STATUS_JITTER_MASK=0x007F                   #
#                          -DROUTE_EXPIRY_TIME=30 -DAPSC_ACK_WAIT_DURATION_PO #
#                          LLED=3000 -DNWK_INDIRECT_MSG_TIMEOUT=7             #
#                          -DMAX_RREQ_ENTRIES=8 -DAPSC_MAX_FRAME_RETRIES=3    #
#                          -DNWK_MAX_DATA_RETRIES=2                           #
#                          -DMAX_POLL_FAILURE_RETRIES=2 -DMAX_BCAST=9         #
#                          -DAPS_MAX_GROUPS=16 -DMAX_RTG_ENTRIES=40           #
#                          -DNWK_MAX_BINDING_ENTRIES=4                        #
#                          -DMAX_BINDING_CLUSTER_IDS=4 "-DDEFAULT_KEY={0x01,  #
#                          0x03, 0x05, 0x07, 0x09, 0x0B, 0x0D, 0x0F, 0x00,    #
#                          0x02, 0x04, 0x06, 0x08, 0x0A, 0x0C, 0x0D}"         #
#                          -DMAC_MAX_FRAME_SIZE=116                           #
#                          -DZDNWKMGR_MIN_TRANSMISSIONS=20 "-DCONST=const     #
#                          __code" -DGENERIC=__generic                        #
#                          -DRFD_RCVC_ALWAYS_ON=FALSE -DPOLL_RATE=1000        #
#                          -DQUEUED_POLL_RATE=100 -DRESPONSE_POLL_RATE=100)   #
#                          -DREJOIN_POLL_RATE=440 E:\Project\ZStack\Component #
#                          s\osal\mcu\cc2530\OSAL_Nv.c -D MT_TASK -D          #
#                          MT_SYS_FUNC -D MT_ZDO_FUNC -D NV_INIT -D COOR -lC  #
#                          E:\Project\ZStack\Projects\zstack\Samples\GenericA #
#                          pp\CC2530DB\CoordinatorEB\List\ -lA                #
#                          E:\Project\ZStack\Projects\zstack\Samples\GenericA #
#                          pp\CC2530DB\CoordinatorEB\List\ --diag_suppress    #
#                          Pe001,Pa010 -o E:\Project\ZStack\Projects\zstack\S #
#                          amples\GenericApp\CC2530DB\CoordinatorEB\Obj\ -e   #
#                          --no_code_motion --debug --core=plain --dptr=16,1  #
#                          --data_model=large --code_model=banked             #
#                          --calling_convention=xdata_reentrant               #
#                          --place_constants=data_rom --nr_virtual_regs 24    #
#                          -I E:\Project\ZStack\Projects\zstack\Samples\Gener #
#                          icApp\CC2530DB\ -I E:\Project\ZStack\Projects\zsta #
#                          ck\Samples\GenericApp\CC2530DB\..\Source\ -I       #
#                          E:\Project\ZStack\Projects\zstack\Samples\GenericA #
#                          pp\CC2530DB\..\..\..\ZMain\TI2530DB\ -I            #
#                          E:\Project\ZStack\Projects\zstack\Samples\GenericA #
#                          pp\CC2530DB\..\..\..\..\..\Components\hal\include\ #
#                           -I E:\Project\ZStack\Projects\zstack\Samples\Gene #
#                          ricApp\CC2530DB\..\..\..\..\..\Components\hal\targ #
#                          et\CC2530EB\ -I E:\Project\ZStack\Projects\zstack\ #
#                          Samples\GenericApp\CC2530DB\..\..\..\..\..\Compone #
#                          nts\mac\include\ -I E:\Project\ZStack\Projects\zst #
#                          ack\Samples\GenericApp\CC2530DB\..\..\..\..\..\Com #
#                          ponents\mac\high_level\ -I                         #
#                          E:\Project\ZStack\Projects\zstack\Samples\GenericA #
#                          pp\CC2530DB\..\..\..\..\..\Components\mac\low_leve #
#                          l\srf04\ -I E:\Project\ZStack\Projects\zstack\Samp #
#                          les\GenericApp\CC2530DB\..\..\..\..\..\Components\ #
#                          mac\low_level\srf04\single_chip\ -I                #
#                          E:\Project\ZStack\Projects\zstack\Samples\GenericA #
#                          pp\CC2530DB\..\..\..\..\..\Components\mt\ -I       #
#                          E:\Project\ZStack\Projects\zstack\Samples\GenericA #
#                          pp\CC2530DB\..\..\..\..\..\Components\osal\include #
#                          \ -I E:\Project\ZStack\Projects\zstack\Samples\Gen #
#                          ericApp\CC2530DB\..\..\..\..\..\Components\service #
#                          s\saddr\ -I E:\Project\ZStack\Projects\zstack\Samp #
#                          les\GenericApp\CC2530DB\..\..\..\..\..\Components\ #
#                          services\sdata\ -I E:\Project\ZStack\Projects\zsta #
#                          ck\Samples\GenericApp\CC2530DB\..\..\..\..\..\Comp #
#                          onents\stack\af\ -I E:\Project\ZStack\Projects\zst #
#                          ack\Samples\GenericApp\CC2530DB\..\..\..\..\..\Com #
#                          ponents\stack\nwk\ -I E:\Project\ZStack\Projects\z #
#                          stack\Samples\GenericApp\CC2530DB\..\..\..\..\..\C #
#                          omponents\stack\sapi\ -I                           #
#                          E:\Project\ZStack\Projects\zstack\Samples\GenericA #
#                          pp\CC2530DB\..\..\..\..\..\Components\stack\sec\   #
#                          -I E:\Project\ZStack\Projects\zstack\Samples\Gener #
#                          icApp\CC2530DB\..\..\..\..\..\Components\stack\sys #
#                          \ -I E:\Project\ZStack\Projects\zstack\Samples\Gen #
#                          ericApp\CC2530DB\..\..\..\..\..\Components\stack\z #
#                          do\ -I E:\Project\ZStack\Projects\zstack\Samples\G #
#                          enericApp\CC2530DB\..\..\..\..\..\Components\zmac\ #
#                           -I E:\Project\ZStack\Projects\zstack\Samples\Gene #
#                          ricApp\CC2530DB\..\..\..\..\..\Components\zmac\f8w #
#                          \ -Ohz                                             #
#    List file          =  E:\Project\ZStack\Projects\zstack\Samples\GenericA #
#                          pp\CC2530DB\CoordinatorEB\List\OSAL_Nv.lst         #
#    Object file        =  E:\Project\ZStack\Projects\zstack\Samples\GenericA #
#                          pp\CC2530DB\CoordinatorEB\Obj\OSAL_Nv.r51          #
#                                                                             #
#                                                                             #
###############################################################################

E:\Project\ZStack\Components\osal\mcu\cc2530\OSAL_Nv.c
      1          /******************************************************************************
      2            Filename:       OSAL_Nv.c
      3            Revised:        $Date: 2011-06-05 18:52:21 -0700 (Sun, 05 Jun 2011) $
      4            Revision:       $Revision: 26212 $
      5          
      6            Description:    This module contains the OSAL non-volatile memory functions.
      7          
      8          
      9            Copyright 2006-2011 Texas Instruments Incorporated. All rights reserved.
     10          
     11            IMPORTANT: Your use of this Software is limited to those specific rights
     12            granted under the terms of a software license agreement between the user
     13            who downloaded the software, his/her employer (which must be your employer)
     14            and Texas Instruments Incorporated (the "License"). You may not use this
     15            Software unless you agree to abide by the terms of the License. The License
     16            limits your use, and you acknowledge, that the Software may not be modified,
     17            copied or distributed unless embedded on a Texas Instruments microcontroller
     18            or used solely and exclusively in conjunction with a Texas Instruments radio
     19            frequency transceiver, which is integrated into your product. Other than for
     20            the foregoing purpose, you may not use, reproduce, copy, prepare derivative
     21            works of, modify, distribute, perform, display or sell this Software and/or
     22            its documentation for any purpose.
     23          
     24            YOU FURTHER ACKNOWLEDGE AND AGREE THAT THE SOFTWARE AND DOCUMENTATION ARE
     25            PROVIDED “AS IS” WITHOUT WARRANTY OF ANY KIND, EITHER EXPRESS OR IMPLIED,
     26            INCLUDING WITHOUT LIMITATION, ANY WARRANTY OF MERCHANTABILITY, TITLE,
     27            NON-INFRINGEMENT AND FITNESS FOR A PARTICULAR PURPOSE. IN NO EVENT SHALL
     28            TEXAS INSTRUMENTS OR ITS LICENSORS BE LIABLE OR OBLIGATED UNDER CONTRACT,
     29            NEGLIGENCE, STRICT LIABILITY, CONTRIBUTION, BREACH OF WARRANTY, OR OTHER
     30            LEGAL EQUITABLE THEORY ANY DIRECT OR INDIRECT DAMAGES OR EXPENSES
     31            INCLUDING BUT NOT LIMITED TO ANY INCIDENTAL, SPECIAL, INDIRECT, PUNITIVE
     32            OR CONSEQUENTIAL DAMAGES, LOST PROFITS OR LOST DATA, COST OF PROCUREMENT
     33            OF SUBSTITUTE GOODS, TECHNOLOGY, SERVICES, OR ANY CLAIMS BY THIRD PARTIES
     34            (INCLUDING BUT NOT LIMITED TO ANY DEFENSE THEREOF), OR OTHER SIMILAR COSTS.
     35          
     36            Should you have any questions regarding your right to use this Software,
     37            contact Texas Instruments Incorporated at www.TI.com.
     38          ******************************************************************************/
     39          
     40          /******************************************************************************
     41            Notes:
     42              - A trick buried deep in initPage() requires that the MSB of the NV Item Id
     43                is to be reserved for use by this module.
     44          ******************************************************************************/
     45          
     46          /*********************************************************************
     47           * INCLUDES
     48           */
     49          
     50          #include "hal_adc.h"
     51          #include "hal_flash.h"
     52          #include "hal_types.h"
     53          #include "OSAL_Nv.h"
     54          #include "ZComDef.h"
     55          
     56          /*********************************************************************
     57           * CONSTANTS
     58           */
     59          
     60          #define OSAL_NV_PAGE_SIZE       HAL_FLASH_PAGE_SIZE
     61          #define OSAL_NV_PAGES_USED      HAL_NV_PAGE_CNT
     62          #define OSAL_NV_PAGE_BEG        HAL_NV_PAGE_BEG
     63          #define OSAL_NV_PAGE_END       (OSAL_NV_PAGE_BEG + OSAL_NV_PAGES_USED - 1)
     64          
     65          #define OSAL_NV_ACTIVE          0x00
     66          #define OSAL_NV_ERASED          0xFF
     67          #define OSAL_NV_ERASED_ID       0xFFFF
     68          #define OSAL_NV_ZEROED_ID       0x0000
     69          // Reserve MSB of Id to signal a search for the "old" source copy (new write interrupted/failed.)
     70          #define OSAL_NV_SOURCE_ID       0x8000
     71          
     72          // In case pages 0-1 are ever used, define a null page value.
     73          #define OSAL_NV_PAGE_NULL       0
     74          
     75          // In case item Id 0 is ever used, define a null item value.
     76          #define OSAL_NV_ITEM_NULL       0
     77          
     78          #define OSAL_NV_WORD_SIZE       HAL_FLASH_WORD_SIZE
     79          
     80          #define OSAL_NV_PAGE_HDR_OFFSET 0
     81          
     82          #define OSAL_NV_MAX_HOT         3

   \                                 In  segment XDATA_ROM_C, align 1
     83          static const uint16 hotIds[OSAL_NV_MAX_HOT] = {
   \                     hotIds:
   \   000000   8200         DW 130
   \   000002   3A00         DW 58
   \   000004   3B00         DW 59
     84            ZCD_NV_NWKKEY,
     85            ZCD_NV_NWK_ACTIVE_KEY_INFO,
     86            ZCD_NV_NWK_ALTERN_KEY_INFO,
     87          };
     88          
     89          /*********************************************************************
     90           * MACROS
     91           */
     92          
     93          #define OSAL_NV_CHECK_BUS_VOLTAGE  HalAdcCheckVdd(VDD_MIN_NV)
     94          
     95          #define OSAL_NV_DATA_SIZE( LEN )                      \
     96            (((LEN) >= ((uint16)(65536UL - OSAL_NV_WORD_SIZE))) ? \
     97                       ((uint16)(65536UL - OSAL_NV_WORD_SIZE))  : \
     98                       ((((LEN) + OSAL_NV_WORD_SIZE - 1) / OSAL_NV_WORD_SIZE) * OSAL_NV_WORD_SIZE))
     99          
    100          #define OSAL_NV_ITEM_SIZE( LEN )                                         \
    101            (((LEN) >= ((uint16)(65536UL - OSAL_NV_WORD_SIZE - OSAL_NV_HDR_SIZE))) ? \
    102                       ((uint16)(65536UL - OSAL_NV_WORD_SIZE))                     : \
    103            (((((LEN) + OSAL_NV_WORD_SIZE - 1) / OSAL_NV_WORD_SIZE) * OSAL_NV_WORD_SIZE) + OSAL_NV_HDR_SIZE))
    104          
    105          #define COMPACT_PAGE_CLEANUP( COM_PG ) st ( \
    106            /* In order to recover from a page compaction that is interrupted,\
    107             * the logic in osal_nv_init() depends upon the following order:\
    108             * 1. State of the target of compaction is changed to ePgInUse.\
    109             * 2. Compacted page is erased.\
    110             */\
    111            setPageUse( pgRes, TRUE );  /* Mark the reserve page as being in use. */\
    112            erasePage( (COM_PG) ); \
    113            \
    114            pgRes = (COM_PG);           /* Set the reserve page to be the newly erased page. */\
    115          )
    116          
    117          /*********************************************************************
    118           * TYPEDEFS
    119           */
    120          
    121          typedef struct
    122          {
    123            uint16 id;
    124            uint16 len;   // Enforce Flash-WORD size on len.
    125            uint16 chk;   // Byte-wise checksum of the 'len' data bytes of the item.
    126            uint16 stat;  // Item status.
    127          } osalNvHdr_t;
    128          // Struct member offsets.
    129          #define OSAL_NV_HDR_ID    0
    130          #define OSAL_NV_HDR_LEN   2
    131          #define OSAL_NV_HDR_CHK   4
    132          #define OSAL_NV_HDR_STAT  6
    133          
    134          #define OSAL_NV_HDR_ITEM  2  // Length of any item of a header struct.
    135          #define OSAL_NV_HDR_SIZE  8
    136          #define OSAL_NV_HDR_HALF (OSAL_NV_HDR_SIZE / 2)
    137          
    138          typedef struct
    139          {
    140            uint16 active;
    141            uint16 inUse;
    142            uint16 xfer;
    143            uint16 spare;
    144          } osalNvPgHdr_t;
    145          // Struct member offsets.
    146          #define OSAL_NV_PG_ACTIVE 0
    147          #define OSAL_NV_PG_INUSE  2
    148          #define OSAL_NV_PG_XFER   4
    149          #define OSAL_NV_PG_SPARE  6
    150          
    151          #define OSAL_NV_PAGE_HDR_SIZE  8
    152          #define OSAL_NV_PAGE_HDR_HALF (OSAL_NV_PAGE_HDR_SIZE / 2)
    153          
    154          typedef enum
    155          {
    156            eNvXfer,
    157            eNvZero
    158          } eNvHdrEnum;
    159          
    160          typedef enum
    161          {
    162            ePgActive,
    163            ePgInUse,
    164            ePgXfer,
    165            ePgSpare
    166          } ePgHdrEnum;
    167          
    168          /*********************************************************************
    169           * GLOBAL VARIABLES
    170           */
    171          
    172          #ifndef OAD_KEEP_NV_PAGES
    173          // When NV pages are to remain intact during OAD download,
    174          // the image itself should not include NV pages.
    175          #pragma location="ZIGNV_ADDRESS_SPACE"

   \                                 In  segment ZIGNV_ADDRESS_SPACE, align 1
    176          __no_init uint8 _nvBuf[OSAL_NV_PAGES_USED * OSAL_NV_PAGE_SIZE];
   \                     _nvBuf:
   \   000000                DS 12288
    177          #pragma required=_nvBuf
    178          #endif // OAD_KEEP_NV_PAGES
    179          
    180          /*********************************************************************
    181           * LOCAL VARIABLES
    182           */
    183          
    184          // Offset into the page of the first available erased space.

   \                                 In  segment XDATA_Z, align 1, keep-with-next
    185          static uint16 pgOff[OSAL_NV_PAGES_USED];
   \                     pgOff:
   \   000000                DS 12
   \   00000C                REQUIRE __INIT_XDATA_Z
   \   00000C                REQUIRE _nvBuf
    186          
    187          // Count of the bytes lost for the zeroed-out items.

   \                                 In  segment XDATA_Z, align 1, keep-with-next
    188          static uint16 pgLost[OSAL_NV_PAGES_USED];
   \                     pgLost:
   \   000000                DS 12
   \   00000C                REQUIRE __INIT_XDATA_Z
    189          

   \                                 In  segment XDATA_Z, align 1, keep-with-next
    190          static uint8 pgRes;  // Page reserved for item compacting transfer.
   \                     pgRes:
   \   000000                DS 1
   \   000001                REQUIRE __INIT_XDATA_Z
    191          
    192          // Saving ~100 code bytes to move a uint8* parameter/return value from findItem() to a global.

   \                                 In  segment XDATA_Z, align 1, keep-with-next
    193          static uint8 findPg;
   \                     findPg:
   \   000000                DS 1
   \   000001                REQUIRE __INIT_XDATA_Z
    194          
    195          // NV page and offsets for hot items.

   \                                 In  segment XDATA_Z, align 1, keep-with-next
    196          static uint8 hotPg[OSAL_NV_MAX_HOT];
   \                     hotPg:
   \   000000                DS 3
   \   000003                REQUIRE __INIT_XDATA_Z

   \                                 In  segment XDATA_Z, align 1, keep-with-next
    197          static uint16 hotOff[OSAL_NV_MAX_HOT];
   \                     hotOff:
   \   000000                DS 6
   \   000006                REQUIRE __INIT_XDATA_Z
    198          
    199          /*********************************************************************
    200           * LOCAL FUNCTIONS
    201           */
    202          
    203          static uint8  initNV( void );
    204          
    205          static void   setPageUse( uint8 pg, uint8 inUse );
    206          static uint16 initPage( uint8 pg, uint16 id, uint8 findDups );
    207          static void   erasePage( uint8 pg );
    208          static uint8  compactPage( uint8 srcPg, uint16 skipId );
    209          
    210          static uint16 findItem( uint16 id );
    211          static uint8  initItem( uint8 flag, uint16 id, uint16 len, void *buf );
    212          static void   setItem( uint8 pg, uint16 offset, eNvHdrEnum stat );
    213          static uint16 setChk( uint8 pg, uint16 offset, uint16 chk );
    214          
    215          static uint16 calcChkB( uint16 len, uint8 *buf );
    216          static uint16 calcChkF( uint8 pg, uint16 offset, uint16 len );
    217          
    218          static void   writeWord( uint8 pg, uint16 offset, uint8 *buf );
    219          static void   writeWordH( uint8 pg, uint16 offset, uint8 *buf );
    220          static void   writeWordM( uint8 pg, uint16 offset, uint8 *buf, uint16 cnt );
    221          static void   writeBuf( uint8 pg, uint16 offset, uint16 len, uint8 *buf );
    222          static void   xferBuf( uint8 srcPg, uint16 srcOff, uint8 dstPg, uint16 dstOff, uint16 len );
    223          
    224          static uint8  writeItem( uint8 pg, uint16 id, uint16 len, void *buf, uint8 flag );
    225          static uint8  hotItem(uint16 id);
    226          static void   hotItemUpdate(uint8 pg, uint16 off, uint16 id);
    227          
    228          /*********************************************************************
    229           * @fn      initNV
    230           *
    231           * @brief   Initialize the NV flash pages.
    232           *
    233           * @param   none
    234           *
    235           * @return  TRUE
    236           */

   \                                 In  segment BANKED_CODE, align 1, keep-with-next
    237          static uint8 initNV( void )
   \                     initNV:
    238          {
   \   000000   74F4         MOV     A,#-0xc
   \   000002   12....       LCALL   ?BANKED_ENTER_XDATA
   \   000005                ; Saved register size: 12
   \   000005                ; Auto size: 8
   \   000005   74F8         MOV     A,#-0x8
   \   000007   12....       LCALL   ?ALLOC_XSTACK8
    239            osalNvPgHdr_t pgHdr;
    240            uint8 oldPg = OSAL_NV_PAGE_NULL;
   \   00000A   7E00         MOV     R6,#0x0
    241            uint8 findDups = FALSE;
   \   00000C   8E..         MOV     ?V0 + 0,R6
    242            uint8 pg;
    243          
    244            pgRes = OSAL_NV_PAGE_NULL;
   \   00000E   90....       MOV     DPTR,#pgRes
   \   000011   E4           CLR     A
   \   000012   F0           MOVX    @DPTR,A
    245          
    246            for ( pg = OSAL_NV_PAGE_BEG; pg <= OSAL_NV_PAGE_END; pg++ )
   \   000013   7F79         MOV     R7,#0x79
    247            {
    248              HalFlashRead(pg, OSAL_NV_PAGE_HDR_OFFSET, (uint8 *)(&pgHdr), OSAL_NV_HDR_SIZE);
   \                     ??initNV_0:
   \   000015                ; Setup parameters for call to function HalFlashRead
   \   000015   75..08       MOV     ?V0 + 2,#0x8
   \   000018   75..00       MOV     ?V0 + 3,#0x0
   \   00001B   78..         MOV     R0,#?V0 + 2
   \   00001D   12....       LCALL   ?PUSH_XSTACK_I_TWO
   \   000020   7402         MOV     A,#0x2
   \   000022   12....       LCALL   ?XSTACK_DISP0_8
   \   000025   AC82         MOV     R4,DPL
   \   000027   AD83         MOV     R5,DPH
   \   000029   7A00         MOV     R2,#0x0
   \   00002B   7B00         MOV     R3,#0x0
   \   00002D   EF           MOV     A,R7
   \   00002E   F9           MOV     R1,A
   \   00002F   12....       LCALL   ??HalFlashRead?relay
   \   000032   7402         MOV     A,#0x2
   \   000034   12....       LCALL   ?DEALLOC_XSTACK8
    249          
    250              if ( pgHdr.active == OSAL_NV_ERASED_ID )
   \   000037   85..82       MOV     DPL,?XSP + 0
   \   00003A   85..83       MOV     DPH,?XSP + 1
   \   00003D   E0           MOVX    A,@DPTR
   \   00003E   F4           CPL     A
   \   00003F   7003         JNZ     ??initNV_1
   \   000041   A3           INC     DPTR
   \   000042   E0           MOVX    A,@DPTR
   \   000043   F4           CPL     A
   \                     ??initNV_1:
   \   000044   7013         JNZ     ??initNV_2
    251              {
    252                if ( pgRes == OSAL_NV_PAGE_NULL )
   \   000046   90....       MOV     DPTR,#pgRes
   \   000049   E0           MOVX    A,@DPTR
   \   00004A   7004         JNZ     ??initNV_3
    253                {
    254                  pgRes = pg;
   \   00004C   EF           MOV     A,R7
   \   00004D   F0           MOVX    @DPTR,A
   \   00004E   8019         SJMP    ??initNV_4
    255                }
    256                else
    257                {
    258                  setPageUse( pg, TRUE );
   \                     ??initNV_3:
   \   000050                ; Setup parameters for call to function setPageUse
   \   000050   7A01         MOV     R2,#0x1
   \   000052   EF           MOV     A,R7
   \   000053   F9           MOV     R1,A
   \   000054   12....       LCALL   ??setPageUse?relay
   \   000057   8010         SJMP    ??initNV_4
    259                }
    260              }
    261              // An Xfer from this page was in progress.
    262              else if ( pgHdr.xfer != OSAL_NV_ERASED_ID )
   \                     ??initNV_2:
   \   000059   7404         MOV     A,#0x4
   \   00005B   12....       LCALL   ?XSTACK_DISP0_8
   \   00005E   E0           MOVX    A,@DPTR
   \   00005F   F4           CPL     A
   \   000060   7003         JNZ     ??initNV_5
   \   000062   A3           INC     DPTR
   \   000063   E0           MOVX    A,@DPTR
   \   000064   F4           CPL     A
   \                     ??initNV_5:
   \   000065   6002         JZ      ??initNV_4
    263              {
    264                oldPg = pg;
   \   000067   EF           MOV     A,R7
   \   000068   FE           MOV     R6,A
    265              }
    266            }
   \                     ??initNV_4:
   \   000069   0F           INC     R7
   \   00006A   EF           MOV     A,R7
   \   00006B   C3           CLR     C
   \   00006C   947F         SUBB    A,#0x7f
   \   00006E   40A5         JC      ??initNV_0
    267          
    268            // If a page compaction was interrupted before the old page was erased.
    269            if ( oldPg != OSAL_NV_PAGE_NULL )
   \   000070   EE           MOV     A,R6
   \   000071   90....       MOV     DPTR,#pgRes
   \   000074   601E         JZ      ??initNV_6
    270            {
    271              /* Interrupted compaction before the target of compaction was put in use;
    272               * so erase the target of compaction and start again.
    273               */
    274              if ( pgRes != OSAL_NV_PAGE_NULL )
   \   000076   E0           MOVX    A,@DPTR
   \   000077   600F         JZ      ??initNV_7
    275              {
    276                erasePage( pgRes );
   \   000079                ; Setup parameters for call to function erasePage
   \   000079   F9           MOV     R1,A
   \   00007A   12....       LCALL   ??erasePage?relay
    277                (void)compactPage( oldPg, OSAL_NV_ITEM_NULL );
   \   00007D                ; Setup parameters for call to function compactPage
   \   00007D   7A00         MOV     R2,#0x0
   \   00007F   7B00         MOV     R3,#0x0
   \   000081   EE           MOV     A,R6
   \   000082   F9           MOV     R1,A
   \   000083   12....       LCALL   ??compactPage?relay
   \   000086   8013         SJMP    ??initNV_8
    278              }
    279              /* Interrupted compaction after the target of compaction was put in use,
    280               * but before the old page was erased; so erase it now and create a new reserve page.
    281               */
    282              else
    283              {
    284                erasePage( oldPg );
   \                     ??initNV_7:
   \   000088                ; Setup parameters for call to function erasePage
   \   000088   EE           MOV     A,R6
   \   000089   F9           MOV     R1,A
   \   00008A   12....       LCALL   ??erasePage?relay
    285                pgRes = oldPg;
   \   00008D   EE           MOV     A,R6
   \   00008E   90....       MOV     DPTR,#pgRes
   \   000091   F0           MOVX    @DPTR,A
   \   000092   8007         SJMP    ??initNV_8
    286              }
    287            }
    288            else if ( pgRes != OSAL_NV_PAGE_NULL )
   \                     ??initNV_6:
   \   000094   E0           MOVX    A,@DPTR
   \   000095   6004         JZ      ??initNV_8
    289            {
    290              erasePage( pgRes );  // The last page erase could have been interrupted by a power-cycle.
   \   000097                ; Setup parameters for call to function erasePage
   \   000097   F9           MOV     R1,A
   \   000098   12....       LCALL   ??erasePage?relay
    291            }
    292            /* else if there is no reserve page, COMPACT_PAGE_CLEANUP() must have succeeded to put the old
    293             * reserve page (i.e. the target of the compacted items) into use but got interrupted by a reset
    294             * while trying to erase the page to be compacted. Such a page should only contain duplicate items
    295             * (i.e. all items will be marked 'Xfer') and thus should have the lost count equal to the page
    296             * size less the page header.
    297             */
    298          
    299            for ( pg = OSAL_NV_PAGE_BEG; pg <= OSAL_NV_PAGE_END; pg++ )
   \                     ??initNV_8:
   \   00009B   7F79         MOV     R7,#0x79
    300            {
    301              // Calculate page offset and lost bytes - any "old" item triggers an N^2 re-scan from start.
    302              if ( initPage( pg, OSAL_NV_ITEM_NULL, findDups ) != OSAL_NV_ITEM_NULL )
   \                     ??initNV_9:
   \   00009D                ; Setup parameters for call to function initPage
   \   00009D   AC..         MOV     R4,?V0 + 0
   \   00009F   7A00         MOV     R2,#0x0
   \   0000A1   7B00         MOV     R3,#0x0
   \   0000A3   EF           MOV     A,R7
   \   0000A4   F9           MOV     R1,A
   \   0000A5   12....       LCALL   ??initPage?relay
   \   0000A8   8B..         MOV     ?V0 + 3,R3
   \   0000AA   EA           MOV     A,R2
   \   0000AB   45..         ORL     A,?V0 + 3
   \   0000AD   6005         JZ      ??initNV_10
    303              {
    304                findDups = TRUE;
   \   0000AF   75..01       MOV     ?V0 + 0,#0x1
    305                pg = (OSAL_NV_PAGE_BEG - 1);  // Pre-decrement so that loop increment will start over at zero.
   \   0000B2   7F78         MOV     R7,#0x78
    306                continue;
    307              }
    308            }
   \                     ??initNV_10:
   \   0000B4   0F           INC     R7
   \   0000B5   EF           MOV     A,R7
   \   0000B6   C3           CLR     C
   \   0000B7   947F         SUBB    A,#0x7f
   \   0000B9   40E2         JC      ??initNV_9
    309          
    310            if (findDups)
   \   0000BB   E5..         MOV     A,?V0 + 0
   \   0000BD   A2E0         MOV     C,0xE0 /* A   */.0
   \   0000BF   5014         JNC     ??initNV_11
    311            {
    312              // Final pass to calculate page lost after invalidating duplicate items.
    313              for ( pg = OSAL_NV_PAGE_BEG; pg <= OSAL_NV_PAGE_END; pg++ )
   \   0000C1   7F79         MOV     R7,#0x79
    314              {
    315                (void)initPage( pg, OSAL_NV_ITEM_NULL, FALSE );
   \                     ??initNV_12:
   \   0000C3                ; Setup parameters for call to function initPage
   \   0000C3   7C00         MOV     R4,#0x0
   \   0000C5   7A00         MOV     R2,#0x0
   \   0000C7   7B00         MOV     R3,#0x0
   \   0000C9   EF           MOV     A,R7
   \   0000CA   F9           MOV     R1,A
   \   0000CB   12....       LCALL   ??initPage?relay
    316              }
   \   0000CE   0F           INC     R7
   \   0000CF   EF           MOV     A,R7
   \   0000D0   C3           CLR     C
   \   0000D1   947F         SUBB    A,#0x7f
   \   0000D3   40EE         JC      ??initNV_12
    317            }
    318          
    319            if ( pgRes == OSAL_NV_PAGE_NULL )
   \                     ??initNV_11:
   \   0000D5   90....       MOV     DPTR,#pgRes
   \   0000D8   E0           MOVX    A,@DPTR
   \   0000D9   704A         JNZ     ??initNV_13
    320            {
    321              uint8 idx, mostLost = 0;
   \   0000DB   7F00         MOV     R7,#0x0
    322          
    323              for ( idx = 0; idx < OSAL_NV_PAGES_USED; idx++ )
   \   0000DD   7A00         MOV     R2,#0x0
    324              {
    325                // Is this the page that was compacted?
    326                if (pgLost[idx] == (OSAL_NV_PAGE_SIZE - OSAL_NV_PAGE_HDR_SIZE))
   \                     ??initNV_14:
   \   0000DF   12....       LCALL   ?Subroutine27 & 0xFFFF
   \                     ??CrossCallReturnLabel_66:
   \   0000E2   64F8         XRL     A,#0xf8
   \   0000E4   7004         JNZ     ??initNV_15
   \   0000E6   A3           INC     DPTR
   \   0000E7   E0           MOVX    A,@DPTR
   \   0000E8   6407         XRL     A,#0x7
   \                     ??initNV_15:
   \   0000EA   7004         JNZ     ??initNV_16
    327                {
    328                  mostLost = idx;
   \   0000EC   EA           MOV     A,R2
   \   0000ED   FF           MOV     R7,A
    329                  break;
   \   0000EE   802A         SJMP    ??initNV_17
    330                }
    331                /* This check is not expected to be necessary because the above test should always succeed
    332                 * with an early loop exit.
    333                 */
    334                else if (pgLost[idx] > pgLost[mostLost])
   \                     ??initNV_16:
   \   0000F0   EF           MOV     A,R7
   \   0000F1   C3           CLR     C
   \   0000F2   33           RLC     A
   \   0000F3   F8           MOV     R0,A
   \   0000F4   E4           CLR     A
   \   0000F5   33           RLC     A
   \   0000F6   F9           MOV     R1,A
   \   0000F7   12....       LCALL   ?Subroutine38 & 0xFFFF
   \                     ??CrossCallReturnLabel_68:
   \   0000FA   C082         PUSH    DPL
   \   0000FC   C083         PUSH    DPH
   \   0000FE   12....       LCALL   ?Subroutine27 & 0xFFFF
   \                     ??CrossCallReturnLabel_67:
   \   000101   F8           MOV     R0,A
   \   000102   A3           INC     DPTR
   \   000103   E0           MOVX    A,@DPTR
   \   000104   F9           MOV     R1,A
   \   000105   D083         POP     DPH
   \   000107   D082         POP     DPL
   \   000109   C3           CLR     C
   \   00010A   E0           MOVX    A,@DPTR
   \   00010B   98           SUBB    A,R0
   \   00010C   A3           INC     DPTR
   \   00010D   E0           MOVX    A,@DPTR
   \   00010E   99           SUBB    A,R1
   \   00010F   5002         JNC     ??initNV_18
    335                {
    336                  mostLost = idx;
   \   000111   EA           MOV     A,R2
   \   000112   FF           MOV     R7,A
    337                }
    338              }
   \                     ??initNV_18:
   \   000113   0A           INC     R2
   \   000114   EA           MOV     A,R2
   \   000115   C3           CLR     C
   \   000116   9406         SUBB    A,#0x6
   \   000118   40C5         JC      ??initNV_14
    339          
    340              pgRes = mostLost + OSAL_NV_PAGE_BEG;
   \                     ??initNV_17:
   \   00011A   7479         MOV     A,#0x79
   \   00011C   2F           ADD     A,R7
   \   00011D   90....       MOV     DPTR,#pgRes
   \   000120   F0           MOVX    @DPTR,A
    341              erasePage( pgRes );  // The last page erase had been interrupted by a power-cycle.
   \   000121                ; Setup parameters for call to function erasePage
   \   000121   F9           MOV     R1,A
   \   000122   12....       LCALL   ??erasePage?relay
    342            }
    343          
    344            return TRUE;
   \                     ??initNV_13:
   \   000125   7901         MOV     R1,#0x1
   \   000127   02....       LJMP    ?Subroutine0 & 0xFFFF
    345          }

   \                                 In  segment BANKED_CODE, align 1, keep-with-next
   \                     ?Subroutine27:
   \   000000   EA           MOV     A,R2
   \   000001   C3           CLR     C
   \   000002   33           RLC     A
   \   000003   F8           MOV     R0,A
   \   000004   E4           CLR     A
   \   000005   33           RLC     A
   \   000006   F9           MOV     R1,A
   \   000007                REQUIRE ??Subroutine40_0
   \   000007                ; // Fall through to label ??Subroutine40_0

   \                                 In  segment BANKED_CODE, align 1, keep-with-next
   \                     ??Subroutine40_0:
   \   000000   12....       LCALL   ?Subroutine38 & 0xFFFF
   \                     ??CrossCallReturnLabel_69:
   \   000003   E0           MOVX    A,@DPTR
   \   000004   22           RET

   \                                 In  segment BANKED_CODE, align 1, keep-with-next
   \                     ?Subroutine38:
   \   000000   74..         MOV     A,#pgLost & 0xff
   \   000002   28           ADD     A,R0
   \   000003   F582         MOV     DPL,A
   \   000005   74..         MOV     A,#(pgLost >> 8) & 0xff
   \   000007   39           ADDC    A,R1
   \   000008   F583         MOV     DPH,A
   \   00000A   22           RET

   \                                 In  segment BANKED_CODE, align 1, keep-with-next
   \                     ?Subroutine0:
   \   000000   7408         MOV     A,#0x8
   \   000002                REQUIRE ??Subroutine46_0
   \   000002                ; // Fall through to label ??Subroutine46_0

   \                                 In  segment BANKED_CODE, align 1, keep-with-next
   \                     ??Subroutine46_0:
   \   000000   12....       LCALL   ?DEALLOC_XSTACK8
   \   000003                REQUIRE ??Subroutine47_0
   \   000003                ; // Fall through to label ??Subroutine47_0

   \                                 In  segment BANKED_CODE, align 1, keep-with-next
   \                     ??Subroutine47_0:
   \   000000   7F04         MOV     R7,#0x4
   \   000002   02....       LJMP    ?BANKED_LEAVE_XDATA
    346          
    347          /*********************************************************************
    348           * @fn      setPageUse
    349           *
    350           * @brief   Set page header active/inUse state according to 'inUse'.
    351           *
    352           * @param   pg - Valid NV page to verify and init.
    353           * @param   inUse - Boolean TRUE if inUse, FALSE if only active.
    354           *
    355           * @return  none
    356           */

   \                                 In  segment BANKED_CODE, align 1, keep-with-next
    357          static void setPageUse( uint8 pg, uint8 inUse )
   \                     setPageUse:
    358          {
   \   000000   74F7         MOV     A,#-0x9
   \   000002   12....       LCALL   ?BANKED_ENTER_XDATA
   \   000005                ; Saved register size: 9
   \   000005                ; Auto size: 8
   \   000005   74F8         MOV     A,#-0x8
   \   000007   12....       LCALL   ?ALLOC_XSTACK8
   \   00000A   EA           MOV     A,R2
   \   00000B   FF           MOV     R7,A
    359            osalNvPgHdr_t pgHdr;
    360          
    361            pgHdr.active = OSAL_NV_ZEROED_ID;
   \   00000C   85..82       MOV     DPL,?XSP + 0
   \   00000F   85..83       MOV     DPH,?XSP + 1
   \   000012   E4           CLR     A
   \   000013   F0           MOVX    @DPTR,A
   \   000014   A3           INC     DPTR
   \   000015   F0           MOVX    @DPTR,A
    362          
    363            if ( inUse )
   \   000016   EF           MOV     A,R7
   \   000017   6008         JZ      ??setPageUse_0
    364            {
    365              pgHdr.inUse = OSAL_NV_ZEROED_ID;
   \   000019   7402         MOV     A,#0x2
   \   00001B   12....       LCALL   ?XSTACK_DISP0_8
   \   00001E   E4           CLR     A
   \   00001F   8007         SJMP    ??setPageUse_1
    366            }
    367            else
    368            {
    369              pgHdr.inUse = OSAL_NV_ERASED_ID;
   \                     ??setPageUse_0:
   \   000021   7402         MOV     A,#0x2
   \   000023   12....       LCALL   ?XSTACK_DISP0_8
   \   000026   74FF         MOV     A,#-0x1
    370            }
   \                     ??setPageUse_1:
   \   000028   12....       LCALL   ??Subroutine43_0 & 0xFFFF
    371          
    372            writeWord( pg, OSAL_NV_PAGE_HDR_OFFSET, (uint8*)(&pgHdr) );
   \                     ??CrossCallReturnLabel_76:
   \   00002B   7A00         MOV     R2,#0x0
   \   00002D   7B00         MOV     R3,#0x0
   \   00002F   12....       LCALL   ??writeWord?relay
    373          }
   \   000032   7408         MOV     A,#0x8
   \   000034                REQUIRE ?Subroutine1
   \   000034                ; // Fall through to label ?Subroutine1

   \                                 In  segment BANKED_CODE, align 1, keep-with-next
   \                     ?Subroutine1:
   \   000000   12....       LCALL   ?DEALLOC_XSTACK8
   \   000003                REQUIRE ??Subroutine41_0
   \   000003                ; // Fall through to label ??Subroutine41_0

   \                                 In  segment BANKED_CODE, align 1, keep-with-next
   \                     ??Subroutine41_0:
   \   000000   7F01         MOV     R7,#0x1
   \   000002   02....       LJMP    ?BANKED_LEAVE_XDATA

   \                                 In  segment BANKED_CODE, align 1, keep-with-next
   \                     ??Subroutine43_0:
   \   000000   F0           MOVX    @DPTR,A
   \   000001   A3           INC     DPTR
   \   000002   12....       LCALL   ?Subroutine33 & 0xFFFF
   \                     ??CrossCallReturnLabel_77:
   \   000005   22           RET

   \                                 In  segment BANKED_CODE, align 1, keep-with-next
   \                     ?Subroutine33:
   \   000000   F0           MOVX    @DPTR,A
   \   000001                ; Setup parameters for call to function writeWordH
   \   000001                ; Setup parameters for call to function writeWord
   \   000001                ; Setup parameters for call to function writeWord
   \   000001                ; Setup parameters for call to function writeWord
   \   000001                ; Setup parameters for call to function writeWord
   \   000001   85..82       MOV     DPL,?XSP + 0
   \   000004   85..83       MOV     DPH,?XSP + 1
   \   000007   AC82         MOV     R4,DPL
   \   000009   AD83         MOV     R5,DPH
   \   00000B   22           RET
    374          
    375          /*********************************************************************
    376           * @fn      initPage
    377           *
    378           * @brief   Walk the page items; calculate checksums, lost bytes & page offset.
    379           *
    380           * @param   pg - Valid NV page to verify and init.
    381           * @param   id - Valid NV item Id to use function as a "findItem".
    382           *               If set to NULL then just perform the page initialization.
    383           * @param   findDups - TRUE on recursive call from initNV() to find and zero-out duplicate items
    384           *                     left from a write that is interrupted by a reset/power-cycle.
    385           *                     FALSE otherwise.
    386           *
    387           * @return  If 'id' is non-NULL and good checksums are found, return the offset
    388           *          of the data corresponding to item Id; else OSAL_NV_ITEM_NULL.
    389           */

   \                                 In  segment BANKED_CODE, align 1, keep-with-next
    390          static uint16 initPage( uint8 pg, uint16 id, uint8 findDups )
   \                     initPage:
    391          {
   \   000000   74EE         MOV     A,#-0x12
   \   000002   12....       LCALL   ?BANKED_ENTER_XDATA
   \   000005                ; Saved register size: 18
   \   000005                ; Auto size: 8
   \   000005   74F8         MOV     A,#-0x8
   \   000007   12....       LCALL   ?ALLOC_XSTACK8
   \   00000A   89..         MOV     ?V0 + 4,R1
   \   00000C   8A..         MOV     ?V0 + 6,R2
   \   00000E   8B..         MOV     ?V0 + 7,R3
   \   000010   8C..         MOV     ?V0 + 5,R4
    392            uint16 offset = OSAL_NV_PAGE_HDR_SIZE;
   \   000012   75..08       MOV     ?V0 + 2,#0x8
   \   000015   75..00       MOV     ?V0 + 3,#0x0
    393            uint16 sz, lost = 0;
   \   000018   7E00         MOV     R6,#0x0
   \   00001A   7F00         MOV     R7,#0x0
    394            osalNvHdr_t hdr;
    395          
    396            do
    397            {
    398              HalFlashRead(pg, offset, (uint8 *)(&hdr), OSAL_NV_HDR_SIZE);
   \                     ??initPage_0:
   \   00001C                ; Setup parameters for call to function HalFlashRead
   \   00001C   75..08       MOV     ?V0 + 0,#0x8
   \   00001F   75..00       MOV     ?V0 + 1,#0x0
   \   000022   78..         MOV     R0,#?V0 + 0
   \   000024   12....       LCALL   ?PUSH_XSTACK_I_TWO
   \   000027   7402         MOV     A,#0x2
   \   000029   12....       LCALL   ?XSTACK_DISP0_8
   \   00002C   AC82         MOV     R4,DPL
   \   00002E   AD83         MOV     R5,DPH
   \   000030   AA..         MOV     R2,?V0 + 2
   \   000032   AB..         MOV     R3,?V0 + 3
   \   000034   A9..         MOV     R1,?V0 + 4
   \   000036   12....       LCALL   ??HalFlashRead?relay
   \   000039   7402         MOV     A,#0x2
   \   00003B   12....       LCALL   ?DEALLOC_XSTACK8
    399          
    400              if ( hdr.id == OSAL_NV_ERASED_ID )
   \   00003E   85..82       MOV     DPL,?XSP + 0
   \   000041   85..83       MOV     DPH,?XSP + 1
   \   000044   E0           MOVX    A,@DPTR
   \   000045   F4           CPL     A
   \   000046   7003         JNZ     ??initPage_1
   \   000048   A3           INC     DPTR
   \   000049   E0           MOVX    A,@DPTR
   \   00004A   F4           CPL     A
   \                     ??initPage_1:
   \   00004B   7003         JNZ     $+5
   \   00004D   02....       LJMP    ??initPage_2 & 0xFFFF
    401              {
    402                break;
    403              }
    404          
    405              // Get the actual size in bytes which is the ceiling(hdr.len)
    406              sz = OSAL_NV_DATA_SIZE( hdr.len );
   \   000050   7402         MOV     A,#0x2
   \   000052   12....       LCALL   ?XSTACK_DISP0_8
   \   000055   12....       LCALL   ?Subroutine19 & 0xFFFF
   \                     ??CrossCallReturnLabel_23:
   \   000058   4008         JC      ??initPage_3
   \   00005A   75..FC       MOV     ?V0 + 0,#-0x4
   \   00005D   75..FF       MOV     ?V0 + 1,#-0x1
   \   000060   800D         SJMP    ??initPage_4
   \                     ??initPage_3:
   \   000062   7402         MOV     A,#0x2
   \   000064   12....       LCALL   ?XSTACK_DISP0_8
   \   000067   12....       LCALL   ?Subroutine16 & 0xFFFF
   \                     ??CrossCallReturnLabel_14:
   \   00006A   F5..         MOV     ?V0 + 0,A
   \   00006C   E9           MOV     A,R1
   \   00006D   F5..         MOV     ?V0 + 1,A
    407          
    408              // A bad 'len' write has blown away the rest of the page.
    409              if (sz > (OSAL_NV_PAGE_SIZE - OSAL_NV_HDR_SIZE - offset))
   \                     ??initPage_4:
   \   00006F   74F8         MOV     A,#-0x8
   \   000071   C3           CLR     C
   \   000072   95..         SUBB    A,?V0 + 2
   \   000074   F8           MOV     R0,A
   \   000075   7407         MOV     A,#0x7
   \   000077   95..         SUBB    A,?V0 + 3
   \   000079   F9           MOV     R1,A
   \   00007A   C3           CLR     C
   \   00007B   E8           MOV     A,R0
   \   00007C   95..         SUBB    A,?V0 + 0
   \   00007E   E9           MOV     A,R1
   \   00007F   95..         SUBB    A,?V0 + 1
   \   000081   501A         JNC     ??initPage_5
    410              {
    411                lost += (OSAL_NV_PAGE_SIZE - offset);
   \   000083   EE           MOV     A,R6
   \   000084   2400         ADD     A,#0x0
   \   000086   F8           MOV     R0,A
   \   000087   EF           MOV     A,R7
   \   000088   3408         ADDC    A,#0x8
   \   00008A   F9           MOV     R1,A
   \   00008B   E8           MOV     A,R0
   \   00008C   C3           CLR     C
   \   00008D   95..         SUBB    A,?V0 + 2
   \   00008F   FE           MOV     R6,A
   \   000090   E9           MOV     A,R1
   \   000091   95..         SUBB    A,?V0 + 3
   \   000093   FF           MOV     R7,A
    412                offset = OSAL_NV_PAGE_SIZE;
   \   000094   75..00       MOV     ?V0 + 2,#0x0
   \   000097   75..08       MOV     ?V0 + 3,#0x8
    413                break;
   \   00009A   02....       LJMP    ??initPage_2 & 0xFFFF
    414              }
    415          
    416              offset += OSAL_NV_HDR_SIZE;
   \                     ??initPage_5:
   \   00009D   E5..         MOV     A,?V0 + 2
   \   00009F   2408         ADD     A,#0x8
   \   0000A1   F5..         MOV     ?V0 + 2,A
   \   0000A3   E5..         MOV     A,?V0 + 3
   \   0000A5   3400         ADDC    A,#0x0
   \   0000A7   F5..         MOV     ?V0 + 3,A
    417          
    418              if ( hdr.id != OSAL_NV_ZEROED_ID )
   \   0000A9   12....       LCALL   ?Subroutine35 & 0xFFFF
   \                     ??CrossCallReturnLabel_72:
   \   0000AC   E8           MOV     A,R0
   \   0000AD   49           ORL     A,R1
   \   0000AE   7003         JNZ     $+5
   \   0000B0   02....       LJMP    ??initPage_6 & 0xFFFF
    419              {
    420                /* This trick allows function to do double duty for findItem() without
    421                 * compromising its essential functionality at powerup initialization.
    422                 */
    423                if ( id != OSAL_NV_ITEM_NULL )
   \   0000B3   E5..         MOV     A,?V0 + 6
   \   0000B5   45..         ORL     A,?V0 + 7
   \   0000B7   604A         JZ      ??initPage_7
    424                {
    425                  /* This trick allows asking to find the old/transferred item in case
    426                   * of a successful new item write that gets interrupted before the
    427                   * old item can be zeroed out.
    428                   */
    429                  if ( (id & 0x7fff) == hdr.id )
   \   0000B9   A8..         MOV     R0,?V0 + 6
   \   0000BB   E5..         MOV     A,?V0 + 7
   \   0000BD   547F         ANL     A,#0x7f
   \   0000BF   F9           MOV     R1,A
   \   0000C0   85..82       MOV     DPL,?XSP + 0
   \   0000C3   85..83       MOV     DPH,?XSP + 1
   \   0000C6   E0           MOVX    A,@DPTR
   \   0000C7   68           XRL     A,R0
   \   0000C8   7003         JNZ     ??initPage_8
   \   0000CA   A3           INC     DPTR
   \   0000CB   E0           MOVX    A,@DPTR
   \   0000CC   69           XRL     A,R1
   \                     ??initPage_8:
   \   0000CD   6003         JZ      $+5
   \   0000CF   02....       LJMP    ??initPage_9 & 0xFFFF
    430                  {
    431                    if ( (((id & OSAL_NV_SOURCE_ID) == 0) && (hdr.stat == OSAL_NV_ERASED_ID)) ||
    432                         (((id & OSAL_NV_SOURCE_ID) != 0) && (hdr.stat != OSAL_NV_ERASED_ID)) )
   \   0000D2   E5..         MOV     A,?V0 + 7
   \   0000D4   5480         ANL     A,#0x80
   \   0000D6   7013         JNZ     ??initPage_10
   \   0000D8   7406         MOV     A,#0x6
   \   0000DA   12....       LCALL   ?XSTACK_DISP0_8
   \   0000DD   E0           MOVX    A,@DPTR
   \   0000DE   F4           CPL     A
   \   0000DF   7003         JNZ     ??initPage_11
   \   0000E1   A3           INC     DPTR
   \   0000E2   E0           MOVX    A,@DPTR
   \   0000E3   F4           CPL     A
   \                     ??initPage_11:
   \   0000E4   6003         JZ      $+5
   \   0000E6   02....       LJMP    ??initPage_9 & 0xFFFF
   \   0000E9   8011         SJMP    ??initPage_12
   \                     ??initPage_10:
   \   0000EB   7406         MOV     A,#0x6
   \   0000ED   12....       LCALL   ?XSTACK_DISP0_8
   \   0000F0   E0           MOVX    A,@DPTR
   \   0000F1   F4           CPL     A
   \   0000F2   7003         JNZ     ??initPage_13
   \   0000F4   A3           INC     DPTR
   \   0000F5   E0           MOVX    A,@DPTR
   \   0000F6   F4           CPL     A
   \                     ??initPage_13:
   \   0000F7   7003         JNZ     $+5
   \   0000F9   02....       LJMP    ??initPage_9 & 0xFFFF
    433                    {
    434                      return offset;
   \                     ??initPage_12:
   \   0000FC   AA..         MOV     R2,?V0 + 2
   \   0000FE   AB..         MOV     R3,?V0 + 3
   \   000100   02....       LJMP    ??initPage_14 & 0xFFFF
    435                    }
    436                  }
    437                }
    438                // When invoked from the osal_nv_init(), verify checksums and find & zero any duplicates.
    439                else
    440                {
    441                  if ( hdr.chk == calcChkF( pg, offset, hdr.len ) )
   \                     ??initPage_7:
   \   000103                ; Setup parameters for call to function calcChkF
   \   000103   7402         MOV     A,#0x2
   \   000105   12....       LCALL   ?XSTACK_DISP0_8
   \   000108   12....       LCALL   ?Subroutine25 & 0xFFFF
   \                     ??CrossCallReturnLabel_40:
   \   00010B   AA..         MOV     R2,?V0 + 2
   \   00010D   AB..         MOV     R3,?V0 + 3
   \   00010F   A9..         MOV     R1,?V0 + 4
   \   000111   12....       LCALL   ??calcChkF?relay
   \   000114   8A..         MOV     ?V0 + 8,R2
   \   000116   8B..         MOV     ?V0 + 9,R3
   \   000118   A8..         MOV     R0,?V0 + 8
   \   00011A   A9..         MOV     R1,?V0 + 9
   \   00011C   7404         MOV     A,#0x4
   \   00011E   12....       LCALL   ?XSTACK_DISP0_8
   \   000121   E0           MOVX    A,@DPTR
   \   000122   68           XRL     A,R0
   \   000123   7003         JNZ     ??initPage_15
   \   000125   A3           INC     DPTR
   \   000126   E0           MOVX    A,@DPTR
   \   000127   69           XRL     A,R1
   \                     ??initPage_15:
   \   000128   7046         JNZ     ??initPage_16
    442                  {
    443                    if ( findDups )
   \   00012A   E5..         MOV     A,?V0 + 5
   \   00012C   602E         JZ      ??initPage_17
    444                    {
    445                      if ( hdr.stat == OSAL_NV_ERASED_ID )
   \   00012E   7406         MOV     A,#0x6
   \   000130   12....       LCALL   ?XSTACK_DISP0_8
   \   000133   E0           MOVX    A,@DPTR
   \   000134   F4           CPL     A
   \   000135   7003         JNZ     ??initPage_18
   \   000137   A3           INC     DPTR
   \   000138   E0           MOVX    A,@DPTR
   \   000139   F4           CPL     A
   \                     ??initPage_18:
   \   00013A   704F         JNZ     ??initPage_9
    446                      {
    447                        /* The trick of setting the MSB of the item Id causes the logic
    448                         * immediately above to return a valid page only if the header 'stat'
    449                         * indicates that it was the older item being transferred.
    450                         */
    451                        uint16 off = findItem( (hdr.id | OSAL_NV_SOURCE_ID) );
   \   00013C                ; Setup parameters for call to function findItem
   \   00013C   85..82       MOV     DPL,?XSP + 0
   \   00013F   85..83       MOV     DPH,?XSP + 1
   \   000142   E0           MOVX    A,@DPTR
   \   000143   FA           MOV     R2,A
   \   000144   A3           INC     DPTR
   \   000145   E0           MOVX    A,@DPTR
   \   000146   4480         ORL     A,#0x80
   \   000148   FB           MOV     R3,A
   \   000149   12....       LCALL   ??findItem?relay
    452          
    453                        if ( off != OSAL_NV_ITEM_NULL )
   \   00014C   EA           MOV     A,R2
   \   00014D   4B           ORL     A,R3
   \   00014E   603B         JZ      ??initPage_9
    454                        {
    455                          setItem( findPg, off, eNvZero );  // Mark old duplicate as invalid.
   \   000150                ; Setup parameters for call to function setItem
   \   000150   7C01         MOV     R4,#0x1
   \   000152   90....       MOV     DPTR,#findPg
   \   000155   E0           MOVX    A,@DPTR
   \   000156   F9           MOV     R1,A
   \   000157   12....       LCALL   ??setItem?relay
   \   00015A   802F         SJMP    ??initPage_9
    456                        }
    457                      }
    458                    }
    459                    // Any "old" item immediately exits and triggers the N^2 exhaustive initialization.
    460                    else if ( hdr.stat != OSAL_NV_ERASED_ID )
   \                     ??initPage_17:
   \   00015C   7406         MOV     A,#0x6
   \   00015E   12....       LCALL   ?XSTACK_DISP0_8
   \   000161   E0           MOVX    A,@DPTR
   \   000162   F4           CPL     A
   \   000163   7003         JNZ     ??initPage_19
   \   000165   A3           INC     DPTR
   \   000166   E0           MOVX    A,@DPTR
   \   000167   F4           CPL     A
   \                     ??initPage_19:
   \   000168   6021         JZ      ??initPage_9
    461                    {
    462                      return OSAL_NV_ERASED_ID;
   \   00016A   7AFF         MOV     R2,#-0x1
   \   00016C   7BFF         MOV     R3,#-0x1
   \   00016E   804C         SJMP    ??initPage_14
    463                    }
    464                  }
    465                  else
    466                  {
    467                    setItem( pg, offset, eNvZero );  // Mark bad checksum as invalid.
   \                     ??initPage_16:
   \   000170                ; Setup parameters for call to function setItem
   \   000170   7C01         MOV     R4,#0x1
   \   000172   AA..         MOV     R2,?V0 + 2
   \   000174   AB..         MOV     R3,?V0 + 3
   \   000176   A9..         MOV     R1,?V0 + 4
   \   000178   12....       LCALL   ??setItem?relay
    468                    lost += (OSAL_NV_HDR_SIZE + sz);
    469                  }
    470                }
    471              }
    472              else
    473              {
    474                lost += (OSAL_NV_HDR_SIZE + sz);
   \                     ??initPage_6:
   \   00017B   E5..         MOV     A,?V0 + 0
   \   00017D   2408         ADD     A,#0x8
   \   00017F   F8           MOV     R0,A
   \   000180   E5..         MOV     A,?V0 + 1
   \   000182   3400         ADDC    A,#0x0
   \   000184   F9           MOV     R1,A
   \   000185   EE           MOV     A,R6
   \   000186   28           ADD     A,R0
   \   000187   FE           MOV     R6,A
   \   000188   EF           MOV     A,R7
   \   000189   39           ADDC    A,R1
   \   00018A   FF           MOV     R7,A
    475              }
    476              offset += sz;
   \                     ??initPage_9:
   \   00018B   E5..         MOV     A,?V0 + 2
   \   00018D   25..         ADD     A,?V0 + 0
   \   00018F   F5..         MOV     ?V0 + 2,A
   \   000191   E5..         MOV     A,?V0 + 3
   \   000193   35..         ADDC    A,?V0 + 1
   \   000195   F5..         MOV     ?V0 + 3,A
    477          
    478            } while (offset < (OSAL_NV_PAGE_SIZE - OSAL_NV_HDR_SIZE));
   \   000197   C3           CLR     C
   \   000198   E5..         MOV     A,?V0 + 2
   \   00019A   94F8         SUBB    A,#-0x8
   \   00019C   E5..         MOV     A,?V0 + 3
   \   00019E   9407         SUBB    A,#0x7
   \   0001A0   5003         JNC     $+5
   \   0001A2   02....       LJMP    ??initPage_0 & 0xFFFF
    479          
    480            pgOff[pg - OSAL_NV_PAGE_BEG] = offset;
   \                     ??initPage_2:
   \   0001A5   E5..         MOV     A,?V0 + 4
   \   0001A7   12....       LCALL   ?Subroutine26 & 0xFFFF
   \                     ??CrossCallReturnLabel_44:
   \   0001AA   E5..         MOV     A,?V0 + 2
   \   0001AC   F0           MOVX    @DPTR,A
   \   0001AD   A3           INC     DPTR
   \   0001AE   E5..         MOV     A,?V0 + 3
   \   0001B0   12....       LCALL   ?Subroutine10 & 0xFFFF
    481            pgLost[pg - OSAL_NV_PAGE_BEG] = lost;
   \                     ??CrossCallReturnLabel_2:
   \   0001B3   EE           MOV     A,R6
   \   0001B4   F0           MOVX    @DPTR,A
   \   0001B5   A3           INC     DPTR
   \   0001B6   EF           MOV     A,R7
   \   0001B7   F0           MOVX    @DPTR,A
    482          
    483            return OSAL_NV_ITEM_NULL;
   \   0001B8   7A00         MOV     R2,#0x0
   \   0001BA   7B00         MOV     R3,#0x0
   \                     ??initPage_14:
   \   0001BC   02....       LJMP    ?Subroutine2 & 0xFFFF
    484          }

   \                                 In  segment BANKED_CODE, align 1, keep-with-next
   \                     ?Subroutine35:
   \   000000   85..82       MOV     DPL,?XSP + 0
   \   000003   85..83       MOV     DPH,?XSP + 1
   \   000006                REQUIRE ??Subroutine42_0
   \   000006                ; // Fall through to label ??Subroutine42_0

   \                                 In  segment BANKED_CODE, align 1, keep-with-next
   \                     ??Subroutine42_0:
   \   000000   E0           MOVX    A,@DPTR
   \   000001   F8           MOV     R0,A
   \   000002   A3           INC     DPTR
   \   000003   E0           MOVX    A,@DPTR
   \   000004   F9           MOV     R1,A
   \   000005   22           RET

   \                                 In  segment BANKED_CODE, align 1, keep-with-next
   \                     ?Subroutine10:
   \   000000   F0           MOVX    @DPTR,A
   \   000001   74..         MOV     A,#(pgLost + 14) & 0xff
   \   000003   28           ADD     A,R0
   \   000004   F582         MOV     DPL,A
   \   000006   74..         MOV     A,#((pgLost - 242) >> 8) & 0xff
   \   000008   39           ADDC    A,R1
   \   000009   F583         MOV     DPH,A
   \   00000B   22           RET

   \                                 In  segment BANKED_CODE, align 1, keep-with-next
   \                     ?Subroutine26:
   \   000000   12....       LCALL   ??Subroutine48_0 & 0xFFFF
   \                     ??CrossCallReturnLabel_82:
   \   000003   22           RET

   \                                 In  segment BANKED_CODE, align 1, keep-with-next
   \                     ?Subroutine25:
   \   000000   E0           MOVX    A,@DPTR
   \   000001   FC           MOV     R4,A
   \   000002   A3           INC     DPTR
   \   000003   E0           MOVX    A,@DPTR
   \   000004   FD           MOV     R5,A
   \   000005   22           RET

   \                                 In  segment BANKED_CODE, align 1, keep-with-next
   \                     ?Subroutine19:
   \   000000   C3           CLR     C
   \   000001   E0           MOVX    A,@DPTR
   \   000002   94FC         SUBB    A,#-0x4
   \   000004   A3           INC     DPTR
   \   000005   E0           MOVX    A,@DPTR
   \   000006   94FF         SUBB    A,#-0x1
   \   000008   22           RET

   \                                 In  segment BANKED_CODE, align 1, keep-with-next
   \                     ?Subroutine16:
   \   000000   12....       LCALL   ?Subroutine34 & 0xFFFF
   \                     ??CrossCallReturnLabel_60:
   \   000003   22           RET

   \                                 In  segment BANKED_CODE, align 1, keep-with-next
   \                     ?Subroutine34:
   \   000000   E0           MOVX    A,@DPTR
   \   000001   2403         ADD     A,#0x3
   \   000003   F8           MOV     R0,A
   \   000004   A3           INC     DPTR
   \   000005   E0           MOVX    A,@DPTR
   \   000006   3400         ADDC    A,#0x0
   \   000008   F9           MOV     R1,A
   \   000009   E8           MOV     A,R0
   \   00000A   54FC         ANL     A,#0xfc
   \   00000C   22           RET

   \                                 In  segment BANKED_CODE, align 1, keep-with-next
   \                     ?Subroutine2:
   \   000000   7408         MOV     A,#0x8
   \   000002                REQUIRE ??Subroutine44_0
   \   000002                ; // Fall through to label ??Subroutine44_0

   \                                 In  segment BANKED_CODE, align 1, keep-with-next
   \                     ??Subroutine44_0:
   \   000000   12....       LCALL   ?DEALLOC_XSTACK8
   \   000003   7F0A         MOV     R7,#0xa
   \   000005   02....       LJMP    ?BANKED_LEAVE_XDATA

   \                                 In  segment BANKED_CODE, align 1, keep-with-next
   \                     ??Subroutine48_0:
   \   000000   C3           CLR     C
   \   000001   33           RLC     A
   \   000002   F8           MOV     R0,A
   \   000003   E4           CLR     A
   \   000004   33           RLC     A
   \   000005   F9           MOV     R1,A
   \   000006   74..         MOV     A,#(pgOff + 14) & 0xff
   \   000008   28           ADD     A,R0
   \   000009   F582         MOV     DPL,A
   \   00000B   74..         MOV     A,#((pgOff - 242) >> 8) & 0xff
   \   00000D   39           ADDC    A,R1
   \   00000E   F583         MOV     DPH,A
   \   000010   22           RET
    485          
    486          /*********************************************************************
    487           * @fn      erasePage
    488           *
    489           * @brief   Erases a page in Flash.
    490           *
    491           * @param   pg - Valid NV page to erase.
    492           *
    493           * @return  none
    494           */

   \                                 In  segment BANKED_CODE, align 1, keep-with-next
    495          static void erasePage( uint8 pg )
   \                     erasePage:
    496          {
   \   000000   74F7         MOV     A,#-0x9
   \   000002   12....       LCALL   ?BANKED_ENTER_XDATA
   \   000005                ; Saved register size: 9
   \   000005                ; Auto size: 0
   \   000005   E9           MOV     A,R1
   \   000006   FE           MOV     R6,A
    497            HalFlashErase(pg);
   \   000007                ; Setup parameters for call to function HalFlashErase
   \   000007   12....       LCALL   ??HalFlashErase?relay
    498          
    499            pgOff[pg - OSAL_NV_PAGE_BEG] = OSAL_NV_PAGE_HDR_SIZE;
   \   00000A   EE           MOV     A,R6
   \   00000B   12....       LCALL   ?Subroutine26 & 0xFFFF
   \                     ??CrossCallReturnLabel_45:
   \   00000E   7408         MOV     A,#0x8
   \   000010   F0           MOVX    @DPTR,A
   \   000011   A3           INC     DPTR
   \   000012   E4           CLR     A
   \   000013   12....       LCALL   ?Subroutine10 & 0xFFFF
    500            pgLost[pg - OSAL_NV_PAGE_BEG] = 0;
   \                     ??CrossCallReturnLabel_3:
   \   000016   E4           CLR     A
   \   000017   F0           MOVX    @DPTR,A
   \   000018   A3           INC     DPTR
   \   000019   F0           MOVX    @DPTR,A
    501          }
   \   00001A   02....       LJMP    ??Subroutine41_0 & 0xFFFF
    502          
    503          /*********************************************************************
    504           * @fn      compactPage
    505           *
    506           * @brief   Compacts the page specified.
    507           *
    508           * @param   srcPg - Valid NV page to erase.
    509           * @param   skipId - Item Id to not compact.
    510           *
    511           * @return  TRUE if valid items from 'srcPg' are successully compacted onto the 'pgRes';
    512           *          FALSE otherwise.
    513           *          Note that on a failure, this could loop, re-erasing the 'pgRes' and re-compacting with
    514           *          the risk of infinitely looping on HAL flash failure.
    515           *          Worst case scenario: HAL flash starts failing in general, perhaps low Vdd?
    516           *          All page compactions will fail which will cause all osal_nv_write() calls to return
    517           *          NV_OPER_FAILED.
    518           *          Eventually, all pages in use may also be in the state of "pending compaction" where
    519           *          the page header member OSAL_NV_PG_XFER is zeroed out.
    520           *          During this "HAL flash brown-out", the code will run and OTA should work (until low Vdd
    521           *          causes an actual chip brown-out, of course.) Although no new NV items will be created
    522           *          or written, the last value written with a return value of SUCCESS can continue to be
    523           *          read successfully.
    524           *          If eventually HAL flash starts working again, all of the pages marked as
    525           *          "pending compaction" may or may not be eventually compacted. But, initNV() will
    526           *          deterministically clean-up one page pending compaction per power-cycle
    527           *          (if HAL flash is working.) Nevertheless, one erased reserve page will be maintained
    528           *          through such a scenario.
    529           */

   \                                 In  segment BANKED_CODE, align 1, keep-with-next
    530          static uint8 compactPage( uint8 srcPg, uint16 skipId )
   \                     compactPage:
    531          {
   \   000000   74EE         MOV     A,#-0x12
   \   000002   12....       LCALL   ?BANKED_ENTER_XDATA
   \   000005                ; Saved register size: 18
   \   000005                ; Auto size: 9
   \   000005   74F7         MOV     A,#-0x9
   \   000007   12....       LCALL   ?ALLOC_XSTACK8
   \   00000A   89..         MOV     ?V0 + 0,R1
   \   00000C   8A..         MOV     ?V0 + 2,R2
   \   00000E   8B..         MOV     ?V0 + 3,R3
    532            uint16 srcOff;
    533            uint8 rtrn;
    534          
    535            // To minimize code size, only check for a clean page here where it's absolutely required.
    536            for (srcOff = 0; srcOff < OSAL_NV_PAGE_SIZE; srcOff++)
   \   000010   7E00         MOV     R6,#0x0
   \   000012   7F00         MOV     R7,#0x0
    537            {
    538              HalFlashRead(pgRes, srcOff, &rtrn, 1);
   \                     ??compactPage_0:
   \   000014                ; Setup parameters for call to function HalFlashRead
   \   000014   75..01       MOV     ?V0 + 4,#0x1
   \   000017   75..00       MOV     ?V0 + 5,#0x0
   \   00001A   78..         MOV     R0,#?V0 + 4
   \   00001C   12....       LCALL   ?PUSH_XSTACK_I_TWO
   \   00001F   7402         MOV     A,#0x2
   \   000021   12....       LCALL   ?XSTACK_DISP0_8
   \   000024   AC82         MOV     R4,DPL
   \   000026   AD83         MOV     R5,DPH
   \   000028   EE           MOV     A,R6
   \   000029   FA           MOV     R2,A
   \   00002A   EF           MOV     A,R7
   \   00002B   FB           MOV     R3,A
   \   00002C   90....       MOV     DPTR,#pgRes
   \   00002F   E0           MOVX    A,@DPTR
   \   000030   F9           MOV     R1,A
   \   000031   12....       LCALL   ??HalFlashRead?relay
   \   000034   7402         MOV     A,#0x2
   \   000036   12....       LCALL   ?DEALLOC_XSTACK8
    539              if (rtrn != OSAL_NV_ERASED)
   \   000039   85..82       MOV     DPL,?XSP + 0
   \   00003C   85..83       MOV     DPH,?XSP + 1
   \   00003F   E0           MOVX    A,@DPTR
   \   000040   F4           CPL     A
   \   000041   600D         JZ      ??compactPage_1
    540              {
    541                erasePage(pgRes);
   \   000043                ; Setup parameters for call to function erasePage
   \   000043   90....       MOV     DPTR,#pgRes
   \   000046   E0           MOVX    A,@DPTR
   \   000047   F9           MOV     R1,A
   \   000048   12....       LCALL   ??erasePage?relay
    542                return FALSE;
   \   00004B   7900         MOV     R1,#0x0
   \   00004D   02....       LJMP    ??compactPage_2 & 0xFFFF
    543              }
    544            }
   \                     ??compactPage_1:
   \   000050   EE           MOV     A,R6
   \   000051   2401         ADD     A,#0x1
   \   000053   0E           INC     R6
   \   000054   EF           MOV     A,R7
   \   000055   3400         ADDC    A,#0x0
   \   000057   FF           MOV     R7,A
   \   000058   C3           CLR     C
   \   000059   9408         SUBB    A,#0x8
   \   00005B   40B7         JC      ??compactPage_0
    545          
    546            srcOff = OSAL_NV_PAGE_HDR_SIZE;
   \   00005D   7E08         MOV     R6,#0x8
   \   00005F   7F00         MOV     R7,#0x0
    547            rtrn = TRUE;
   \   000061   7401         MOV     A,#0x1
   \   000063   F0           MOVX    @DPTR,A
    548          
    549            while ( srcOff < (OSAL_NV_PAGE_SIZE - OSAL_NV_HDR_SIZE ) )
    550            {
    551              osalNvHdr_t hdr;
    552              uint16 sz, dstOff = pgOff[pgRes-OSAL_NV_PAGE_BEG];
   \                     ??compactPage_3:
   \   000064   90....       MOV     DPTR,#pgRes
   \   000067   E0           MOVX    A,@DPTR
   \   000068   12....       LCALL   ?Subroutine26 & 0xFFFF
   \                     ??CrossCallReturnLabel_46:
   \   00006B   12....       LCALL   ?Subroutine22 & 0xFFFF
    553          
    554              HalFlashRead(srcPg, srcOff, (uint8 *)(&hdr), OSAL_NV_HDR_SIZE);
   \                     ??CrossCallReturnLabel_33:
   \   00006E                ; Setup parameters for call to function HalFlashRead
   \   00006E   75..08       MOV     ?V0 + 6,#0x8
   \   000071   75..00       MOV     ?V0 + 7,#0x0
   \   000074   78..         MOV     R0,#?V0 + 6
   \   000076   12....       LCALL   ?PUSH_XSTACK_I_TWO
   \   000079   7403         MOV     A,#0x3
   \   00007B   12....       LCALL   ?XSTACK_DISP0_8
   \   00007E   AC82         MOV     R4,DPL
   \   000080   AD83         MOV     R5,DPH
   \   000082   EE           MOV     A,R6
   \   000083   FA           MOV     R2,A
   \   000084   EF           MOV     A,R7
   \   000085   FB           MOV     R3,A
   \   000086   A9..         MOV     R1,?V0 + 0
   \   000088   12....       LCALL   ??HalFlashRead?relay
   \   00008B   7402         MOV     A,#0x2
   \   00008D   12....       LCALL   ?DEALLOC_XSTACK8
    555          
    556              if ( hdr.id == OSAL_NV_ERASED_ID )
   \   000090   7401         MOV     A,#0x1
   \   000092   12....       LCALL   ?XSTACK_DISP0_8
   \   000095   E0           MOVX    A,@DPTR
   \   000096   F4           CPL     A
   \   000097   7003         JNZ     ??compactPage_4
   \   000099   A3           INC     DPTR
   \   00009A   E0           MOVX    A,@DPTR
   \   00009B   F4           CPL     A
   \                     ??compactPage_4:
   \   00009C   7003         JNZ     $+5
   \   00009E   02....       LJMP    ??compactPage_5 & 0xFFFF
    557              {
    558                break;
    559              }
    560          
    561              // Get the actual size in bytes which is the ceiling(hdr.len)
    562              sz = OSAL_NV_DATA_SIZE( hdr.len );
   \   0000A1   7403         MOV     A,#0x3
   \   0000A3   12....       LCALL   ?XSTACK_DISP0_8
   \   0000A6   12....       LCALL   ?Subroutine19 & 0xFFFF
   \                     ??CrossCallReturnLabel_24:
   \   0000A9   4008         JC      ??compactPage_6
   \   0000AB   75..FC       MOV     ?V0 + 6,#-0x4
   \   0000AE   75..FF       MOV     ?V0 + 7,#-0x1
   \   0000B1   800D         SJMP    ??compactPage_7
   \                     ??compactPage_6:
   \   0000B3   7403         MOV     A,#0x3
   \   0000B5   12....       LCALL   ?XSTACK_DISP0_8
   \   0000B8   12....       LCALL   ?Subroutine16 & 0xFFFF
   \                     ??CrossCallReturnLabel_15:
   \   0000BB   F5..         MOV     ?V0 + 6,A
   \   0000BD   E9           MOV     A,R1
   \   0000BE   F5..         MOV     ?V0 + 7,A
    563          
    564              if ( sz > (OSAL_NV_PAGE_SIZE - OSAL_NV_HDR_SIZE - srcOff) )
   \                     ??compactPage_7:
   \   0000C0   74F8         MOV     A,#-0x8
   \   0000C2   C3           CLR     C
   \   0000C3   9E           SUBB    A,R6
   \   0000C4   F8           MOV     R0,A
   \   0000C5   7407         MOV     A,#0x7
   \   0000C7   9F           SUBB    A,R7
   \   0000C8   F9           MOV     R1,A
   \   0000C9   C3           CLR     C
   \   0000CA   E8           MOV     A,R0
   \   0000CB   95..         SUBB    A,?V0 + 6
   \   0000CD   E9           MOV     A,R1
   \   0000CE   95..         SUBB    A,?V0 + 7
   \   0000D0   5003         JNC     $+5
   \   0000D2   02....       LJMP    ??compactPage_5 & 0xFFFF
    565              {
    566                break;
    567              }
    568          
    569              if ( sz > (OSAL_NV_PAGE_SIZE - OSAL_NV_HDR_SIZE - dstOff) )
   \   0000D5   74F8         MOV     A,#-0x8
   \   0000D7   C3           CLR     C
   \   0000D8   95..         SUBB    A,?V0 + 4
   \   0000DA   F8           MOV     R0,A
   \   0000DB   7407         MOV     A,#0x7
   \   0000DD   95..         SUBB    A,?V0 + 5
   \   0000DF   F9           MOV     R1,A
   \   0000E0   C3           CLR     C
   \   0000E1   E8           MOV     A,R0
   \   0000E2   95..         SUBB    A,?V0 + 6
   \   0000E4   E9           MOV     A,R1
   \   0000E5   95..         SUBB    A,?V0 + 7
   \   0000E7   5003         JNC     $+5
   \   0000E9   02....       LJMP    ??compactPage_8 & 0xFFFF
    570              {
    571                rtrn = FALSE;
    572                break;
    573              }
    574          
    575              srcOff += OSAL_NV_HDR_SIZE;
   \   0000EC   EE           MOV     A,R6
   \   0000ED   2408         ADD     A,#0x8
   \   0000EF   FE           MOV     R6,A
   \   0000F0   EF           MOV     A,R7
   \   0000F1   3400         ADDC    A,#0x0
   \   0000F3   FF           MOV     R7,A
    576          
    577              if ( (hdr.id != OSAL_NV_ZEROED_ID) && (hdr.id != skipId) )
   \   0000F4   7401         MOV     A,#0x1
   \   0000F6   12....       LCALL   ?XSTACK_DISP0_8
   \   0000F9   12....       LCALL   ??Subroutine42_0 & 0xFFFF
   \                     ??CrossCallReturnLabel_70:
   \   0000FC   E8           MOV     A,R0
   \   0000FD   49           ORL     A,R1
   \   0000FE   7003         JNZ     $+5
   \   000100   02....       LJMP    ??compactPage_9 & 0xFFFF
   \   000103   7401         MOV     A,#0x1
   \   000105   12....       LCALL   ?XSTACK_DISP0_8
   \   000108   E0           MOVX    A,@DPTR
   \   000109   65..         XRL     A,?V0 + 2
   \   00010B   7004         JNZ     ??compactPage_10
   \   00010D   A3           INC     DPTR
   \   00010E   E0           MOVX    A,@DPTR
   \   00010F   65..         XRL     A,?V0 + 3
   \                     ??compactPage_10:
   \   000111   7003         JNZ     $+5
   \   000113   02....       LJMP    ??compactPage_9 & 0xFFFF
    578              {
    579                if ( hdr.chk == calcChkF( srcPg, srcOff, hdr.len ) )
   \   000116                ; Setup parameters for call to function calcChkF
   \   000116   7403         MOV     A,#0x3
   \   000118   12....       LCALL   ?XSTACK_DISP0_8
   \   00011B   12....       LCALL   ?Subroutine25 & 0xFFFF
   \                     ??CrossCallReturnLabel_41:
   \   00011E   EE           MOV     A,R6
   \   00011F   FA           MOV     R2,A
   \   000120   EF           MOV     A,R7
   \   000121   FB           MOV     R3,A
   \   000122   A9..         MOV     R1,?V0 + 0
   \   000124   12....       LCALL   ??calcChkF?relay
   \   000127   8A..         MOV     ?V0 + 8,R2
   \   000129   8B..         MOV     ?V0 + 9,R3
   \   00012B   A8..         MOV     R0,?V0 + 8
   \   00012D   A9..         MOV     R1,?V0 + 9
   \   00012F   7405         MOV     A,#0x5
   \   000131   12....       LCALL   ?XSTACK_DISP0_8
   \   000134   E0           MOVX    A,@DPTR
   \   000135   68           XRL     A,R0
   \   000136   7003         JNZ     ??compactPage_11
   \   000138   A3           INC     DPTR
   \   000139   E0           MOVX    A,@DPTR
   \   00013A   69           XRL     A,R1
   \                     ??compactPage_11:
   \   00013B   6003         JZ      $+5
   \   00013D   02....       LJMP    ??compactPage_9 & 0xFFFF
    580                {
    581                  /* Prevent excessive re-writes to item header caused by numerous, rapid, & successive
    582                   * OSAL_Nv interruptions caused by resets.
    583                   */
    584                  if ( hdr.stat == OSAL_NV_ERASED_ID )
   \   000140   7407         MOV     A,#0x7
   \   000142   12....       LCALL   ?XSTACK_DISP0_8
   \   000145   E0           MOVX    A,@DPTR
   \   000146   F4           CPL     A
   \   000147   7003         JNZ     ??compactPage_12
   \   000149   A3           INC     DPTR
   \   00014A   E0           MOVX    A,@DPTR
   \   00014B   F4           CPL     A
   \                     ??compactPage_12:
   \   00014C   700B         JNZ     ??compactPage_13
    585                  {
    586                    setItem( srcPg, srcOff, eNvXfer );
   \   00014E                ; Setup parameters for call to function setItem
   \   00014E   7C00         MOV     R4,#0x0
   \   000150   EE           MOV     A,R6
   \   000151   FA           MOV     R2,A
   \   000152   EF           MOV     A,R7
   \   000153   FB           MOV     R3,A
   \   000154   A9..         MOV     R1,?V0 + 0
   \   000156   12....       LCALL   ??setItem?relay
    587                  }
    588          
    589                  if ( writeItem( pgRes, hdr.id, hdr.len, NULL, FALSE ) )
   \                     ??compactPage_13:
   \   000159                ; Setup parameters for call to function writeItem
   \   000159   75..00       MOV     ?V0 + 1,#0x0
   \   00015C   78..         MOV     R0,#?V0 + 1
   \   00015E   12....       LCALL   ?PUSH_XSTACK_I_ONE
   \   000161   E4           CLR     A
   \   000162   F5..         MOV     ?V0 + 8,A
   \   000164   F5..         MOV     ?V0 + 9,A
   \   000166   78..         MOV     R0,#?V0 + 8
   \   000168   12....       LCALL   ?PUSH_XSTACK_I_TWO
   \   00016B   7406         MOV     A,#0x6
   \   00016D   12....       LCALL   ?XSTACK_DISP0_8
   \   000170   12....       LCALL   ?Subroutine25 & 0xFFFF
   \                     ??CrossCallReturnLabel_42:
   \   000173   7404         MOV     A,#0x4
   \   000175   12....       LCALL   ?XSTACK_DISP0_8
   \   000178   12....       LCALL   ?Subroutine21 & 0xFFFF
   \                     ??CrossCallReturnLabel_28:
   \   00017B   90....       MOV     DPTR,#pgRes
   \   00017E   E0           MOVX    A,@DPTR
   \   00017F   F9           MOV     R1,A
   \   000180   12....       LCALL   ??writeItem?relay
   \   000183   7403         MOV     A,#0x3
   \   000185   12....       LCALL   ?DEALLOC_XSTACK8
   \   000188   E9           MOV     A,R1
   \   000189   7003         JNZ     $+5
   \   00018B   02....       LJMP    ??compactPage_8 & 0xFFFF
    590                  {
    591                    dstOff += OSAL_NV_HDR_SIZE;
   \   00018E   E5..         MOV     A,?V0 + 4
   \   000190   2408         ADD     A,#0x8
   \   000192   F5..         MOV     ?V0 + 4,A
   \   000194   E5..         MOV     A,?V0 + 5
   \   000196   3400         ADDC    A,#0x0
   \   000198   F5..         MOV     ?V0 + 5,A
    592                    xferBuf( srcPg, srcOff, pgRes, dstOff, sz );
   \   00019A                ; Setup parameters for call to function xferBuf
   \   00019A   78..         MOV     R0,#?V0 + 6
   \   00019C   12....       LCALL   ?PUSH_XSTACK_I_TWO
   \   00019F   78..         MOV     R0,#?V0 + 4
   \   0001A1   12....       LCALL   ?PUSH_XSTACK_I_TWO
   \   0001A4   90....       MOV     DPTR,#pgRes
   \   0001A7   E0           MOVX    A,@DPTR
   \   0001A8   FC           MOV     R4,A
   \   0001A9   EE           MOV     A,R6
   \   0001AA   FA           MOV     R2,A
   \   0001AB   EF           MOV     A,R7
   \   0001AC   FB           MOV     R3,A
   \   0001AD   A9..         MOV     R1,?V0 + 0
   \   0001AF   12....       LCALL   ??xferBuf?relay
   \   0001B2   7404         MOV     A,#0x4
   \   0001B4   12....       LCALL   ?DEALLOC_XSTACK8
    593                    // Calculate and write the new checksum.
    594                    if (hdr.chk == calcChkF(pgRes, dstOff, hdr.len))
   \   0001B7                ; Setup parameters for call to function calcChkF
   \   0001B7   7403         MOV     A,#0x3
   \   0001B9   12....       LCALL   ?XSTACK_DISP0_8
   \   0001BC   12....       LCALL   ?Subroutine15 & 0xFFFF
   \                     ??CrossCallReturnLabel_11:
   \   0001BF   12....       LCALL   ??calcChkF?relay
   \   0001C2   8A..         MOV     ?V0 + 8,R2
   \   0001C4   8B..         MOV     ?V0 + 9,R3
   \   0001C6   A8..         MOV     R0,?V0 + 8
   \   0001C8   A9..         MOV     R1,?V0 + 9
   \   0001CA   7405         MOV     A,#0x5
   \   0001CC   12....       LCALL   ?XSTACK_DISP0_8
   \   0001CF   E0           MOVX    A,@DPTR
   \   0001D0   68           XRL     A,R0
   \   0001D1   7003         JNZ     ??compactPage_14
   \   0001D3   A3           INC     DPTR
   \   0001D4   E0           MOVX    A,@DPTR
   \   0001D5   69           XRL     A,R1
   \                     ??compactPage_14:
   \   0001D6   7053         JNZ     ??compactPage_8
    595                    {
    596                      if ( hdr.chk != setChk( pgRes, dstOff, hdr.chk ) )
   \   0001D8                ; Setup parameters for call to function setChk
   \   0001D8   7405         MOV     A,#0x5
   \   0001DA   12....       LCALL   ?XSTACK_DISP0_8
   \   0001DD   12....       LCALL   ?Subroutine15 & 0xFFFF
   \                     ??CrossCallReturnLabel_12:
   \   0001E0   12....       LCALL   ??setChk?relay
   \   0001E3   8A..         MOV     ?V0 + 8,R2
   \   0001E5   8B..         MOV     ?V0 + 9,R3
   \   0001E7   A8..         MOV     R0,?V0 + 8
   \   0001E9   A9..         MOV     R1,?V0 + 9
   \   0001EB   7405         MOV     A,#0x5
   \   0001ED   12....       LCALL   ?XSTACK_DISP0_8
   \   0001F0   E0           MOVX    A,@DPTR
   \   0001F1   68           XRL     A,R0
   \   0001F2   7003         JNZ     ??compactPage_15
   \   0001F4   A3           INC     DPTR
   \   0001F5   E0           MOVX    A,@DPTR
   \   0001F6   69           XRL     A,R1
   \                     ??compactPage_15:
   \   0001F7   7032         JNZ     ??compactPage_8
    597                      {
    598                        rtrn = FALSE;
    599                        break;
    600                      }
    601                      else
    602                      {
    603                        hotItemUpdate(pgRes, dstOff, hdr.id);
   \   0001F9                ; Setup parameters for call to function hotItemUpdate
   \   0001F9   7401         MOV     A,#0x1
   \   0001FB   12....       LCALL   ?XSTACK_DISP0_8
   \   0001FE   12....       LCALL   ?Subroutine15 & 0xFFFF
    604                      }
    605                    }
    606                    else
    607                    {
    608                      rtrn = FALSE;
    609                      break;
    610                    }
    611                  }
   \                     ??CrossCallReturnLabel_13:
   \   000201   12....       LCALL   ??hotItemUpdate?relay
    612                  else
    613                  {
    614                    rtrn = FALSE;
    615                    break;
    616                  }
    617                }
    618              }
    619          
    620              srcOff += sz;
   \                     ??compactPage_9:
   \   000204   EE           MOV     A,R6
   \   000205   25..         ADD     A,?V0 + 6
   \   000207   FE           MOV     R6,A
   \   000208   EF           MOV     A,R7
   \   000209   35..         ADDC    A,?V0 + 7
   \   00020B   FF           MOV     R7,A
   \   00020C   C3           CLR     C
   \   00020D   EE           MOV     A,R6
   \   00020E   94F8         SUBB    A,#-0x8
   \   000210   EF           MOV     A,R7
   \   000211   9407         SUBB    A,#0x7
   \   000213   5003         JNC     $+5
   \   000215   02....       LJMP    ??compactPage_3 & 0xFFFF
    621            }
    622          
    623            if (rtrn == FALSE)
   \                     ??compactPage_5:
   \   000218   85..82       MOV     DPL,?XSP + 0
   \   00021B   85..83       MOV     DPH,?XSP + 1
   \   00021E   E0           MOVX    A,@DPTR
   \   00021F   7014         JNZ     ??compactPage_16
    624            {
    625              erasePage(pgRes);
   \                     ??compactPage_17:
   \   000221                ; Setup parameters for call to function erasePage
   \   000221   90....       MOV     DPTR,#pgRes
   \   000224   E0           MOVX    A,@DPTR
   \   000225   F9           MOV     R1,A
   \   000226   12....       LCALL   ??erasePage?relay
   \   000229   8025         SJMP    ??compactPage_18
    626            }
   \                     ??compactPage_8:
   \   00022B   85..82       MOV     DPL,?XSP + 0
   \   00022E   85..83       MOV     DPH,?XSP + 1
   \   000231   E4           CLR     A
   \   000232   F0           MOVX    @DPTR,A
   \   000233   80EC         SJMP    ??compactPage_17
    627            else if (skipId == OSAL_NV_ITEM_NULL)
   \                     ??compactPage_16:
   \   000235   E5..         MOV     A,?V0 + 2
   \   000237   45..         ORL     A,?V0 + 3
   \   000239   7015         JNZ     ??compactPage_18
    628            {
    629              COMPACT_PAGE_CLEANUP(srcPg);
   \   00023B                ; Setup parameters for call to function setPageUse
   \   00023B   7A01         MOV     R2,#0x1
   \   00023D   90....       MOV     DPTR,#pgRes
   \   000240   E0           MOVX    A,@DPTR
   \   000241   F9           MOV     R1,A
   \   000242   12....       LCALL   ??setPageUse?relay
   \   000245                ; Setup parameters for call to function erasePage
   \   000245   A9..         MOV     R1,?V0 + 0
   \   000247   12....       LCALL   ??erasePage?relay
   \   00024A   E5..         MOV     A,?V0 + 0
   \   00024C   90....       MOV     DPTR,#pgRes
   \   00024F   F0           MOVX    @DPTR,A
    630            }
    631            // else invoking function must cleanup.
    632          
    633            return rtrn;
   \                     ??compactPage_18:
   \   000250   85..82       MOV     DPL,?XSP + 0
   \   000253   85..83       MOV     DPH,?XSP + 1
   \   000256   E0           MOVX    A,@DPTR
   \   000257   F9           MOV     R1,A
   \                     ??compactPage_2:
   \   000258   7409         MOV     A,#0x9
   \   00025A   02....       LJMP    ??Subroutine44_0 & 0xFFFF
    634          }

   \                                 In  segment BANKED_CODE, align 1, keep-with-next
   \                     ?Subroutine15:
   \   000000   12....       LCALL   ?Subroutine36 & 0xFFFF
   \                     ??CrossCallReturnLabel_61:
   \   000003   90....       MOV     DPTR,#pgRes
   \   000006   E0           MOVX    A,@DPTR
   \   000007   F9           MOV     R1,A
   \   000008   22           RET

   \                                 In  segment BANKED_CODE, align 1, keep-with-next
   \                     ?Subroutine21:
   \   000000   E0           MOVX    A,@DPTR
   \   000001   FA           MOV     R2,A
   \   000002   A3           INC     DPTR
   \   000003   E0           MOVX    A,@DPTR
   \   000004   FB           MOV     R3,A
   \   000005   22           RET

   \                                 In  segment BANKED_CODE, align 1, keep-with-next
   \                     ?Subroutine22:
   \   000000   E0           MOVX    A,@DPTR
   \   000001   F5..         MOV     ?V0 + 4,A
   \   000003   A3           INC     DPTR
   \   000004   E0           MOVX    A,@DPTR
   \   000005   F5..         MOV     ?V0 + 5,A
   \   000007   22           RET

   \                                 In  segment BANKED_CODE, align 1, keep-with-next
   \                     ?Subroutine36:
   \   000000   E0           MOVX    A,@DPTR
   \   000001   FC           MOV     R4,A
   \   000002   A3           INC     DPTR
   \   000003   E0           MOVX    A,@DPTR
   \   000004   FD           MOV     R5,A
   \   000005   AA..         MOV     R2,?V0 + 4
   \   000007   AB..         MOV     R3,?V0 + 5
   \   000009   22           RET
    635          
    636          /*********************************************************************
    637           * @fn      findItem
    638           *
    639           * @brief   Find an item Id in NV and return the page and offset to its data.
    640           *
    641           * @param   id - Valid NV item Id.
    642           *
    643           * @return  Offset of data corresponding to item Id, if found;
    644           *          otherwise OSAL_NV_ITEM_NULL.
    645           *
    646           *          The page containing the item, if found;
    647           *          otherwise no valid assignment made - left equal to item Id.
    648           *
    649           */

   \                                 In  segment BANKED_CODE, align 1, keep-with-next
    650          static uint16 findItem( uint16 id )
   \                     findItem:
    651          {
   \   000000   74F4         MOV     A,#-0xc
   \   000002   12....       LCALL   ?BANKED_ENTER_XDATA
   \   000005                ; Saved register size: 12
   \   000005                ; Auto size: 0
   \   000005   EA           MOV     A,R2
   \   000006   FE           MOV     R6,A
   \   000007   EB           MOV     A,R3
   \   000008   8003         SJMP    ??findItem_0
    652            uint16 off;
    653            uint8 pg;
    654          
    655            for ( pg = OSAL_NV_PAGE_BEG; pg <= OSAL_NV_PAGE_END; pg++ )
    656            {
    657              if ( (off = initPage( pg, id, FALSE )) != OSAL_NV_ITEM_NULL )
    658              {
    659                findPg = pg;
    660                return off;
    661              }
    662            }
    663          
    664            // Now attempt to find the item as the "old" item of a failed/interrupted NV write.
    665            if ( (id & OSAL_NV_SOURCE_ID) == 0 )
    666            {
    667              return findItem( id | OSAL_NV_SOURCE_ID );
   \                     ??findItem_1:
   \   00000A   7480         MOV     A,#-0x80
   \   00000C   4F           ORL     A,R7
   \                     ??findItem_0:
   \   00000D   FF           MOV     R7,A
    668            }
   \   00000E   75..79       MOV     ?V0 + 0,#0x79
   \                     ??findItem_2:
   \   000011                ; Setup parameters for call to function initPage
   \   000011   7C00         MOV     R4,#0x0
   \   000013   EE           MOV     A,R6
   \   000014   FA           MOV     R2,A
   \   000015   EF           MOV     A,R7
   \   000016   FB           MOV     R3,A
   \   000017   A9..         MOV     R1,?V0 + 0
   \   000019   12....       LCALL   ??initPage?relay
   \   00001C   EA           MOV     A,R2
   \   00001D   4B           ORL     A,R3
   \   00001E   6008         JZ      ??findItem_3
   \   000020   E5..         MOV     A,?V0 + 0
   \   000022   90....       MOV     DPTR,#findPg
   \   000025   F0           MOVX    @DPTR,A
   \   000026   8015         SJMP    ??findItem_4
   \                     ??findItem_3:
   \   000028   05..         INC     ?V0 + 0
   \   00002A   E5..         MOV     A,?V0 + 0
   \   00002C   C3           CLR     C
   \   00002D   947F         SUBB    A,#0x7f
   \   00002F   40E0         JC      ??findItem_2
   \   000031   EF           MOV     A,R7
   \   000032   5480         ANL     A,#0x80
   \   000034   60D4         JZ      ??findItem_1
    669            else
    670            {
    671              findPg = OSAL_NV_PAGE_NULL;
   \   000036   90....       MOV     DPTR,#findPg
   \   000039   E4           CLR     A
   \   00003A   F0           MOVX    @DPTR,A
    672              return OSAL_NV_ITEM_NULL;
   \   00003B   FA           MOV     R2,A
   \   00003C   FB           MOV     R3,A
    673            }
   \                     ??findItem_4:
   \   00003D   02....       LJMP    ??Subroutine47_0 & 0xFFFF
    674          }
    675          
    676          /*********************************************************************
    677           * @fn      initItem
    678           *
    679           * @brief   An NV item is created and initialized with the data passed to the function, if any.
    680           *
    681           * @param   flag - TRUE if the 'buf' parameter contains data for the call to writeItem().
    682           *                 (i.e. if invoked from osal_nv_item_init() ).
    683           *                 FALSE if writeItem() should just write the header and the 'buf' parameter
    684           *                 is ok to use as a return value of the page number to be cleaned with
    685           *                 COMPACT_PAGE_CLEANUP().
    686           *                 (i.e. if invoked from osal_nv_write() ).
    687           * @param   id  - Valid NV item Id.
    688           * @param   len - Item data length.
    689           * @param  *buf - Pointer to item initalization data. Set to NULL if none.
    690           *
    691           * @return  The OSAL Nv page number if item write and read back checksums ok;
    692           *          OSAL_NV_PAGE_NULL otherwise.
    693           */

   \                                 In  segment BANKED_CODE, align 1, keep-with-next
    694          static uint8 initItem( uint8 flag, uint16 id, uint16 len, void *buf )
   \                     initItem:
    695          {
   \   000000   74EE         MOV     A,#-0x12
   \   000002   12....       LCALL   ?BANKED_ENTER_XDATA
   \   000005                ; Saved register size: 18
   \   000005                ; Auto size: 10
   \   000005   74F6         MOV     A,#-0xa
   \   000007   12....       LCALL   ?ALLOC_XSTACK8
   \   00000A   89..         MOV     ?V0 + 1,R1
   \   00000C   8A..         MOV     ?V0 + 4,R2
   \   00000E   8B..         MOV     ?V0 + 5,R3
   \   000010   EC           MOV     A,R4
   \   000011   FE           MOV     R6,A
   \   000012   ED           MOV     A,R5
   \   000013   FF           MOV     R7,A
    696            uint16 sz = OSAL_NV_ITEM_SIZE( len );
   \   000014   C3           CLR     C
   \   000015   EE           MOV     A,R6
   \   000016   94F4         SUBB    A,#-0xc
   \   000018   EF           MOV     A,R7
   \   000019   94FF         SUBB    A,#-0x1
   \   00001B   400E         JC      ??initItem_0
   \   00001D   85..82       MOV     DPL,?XSP + 0
   \   000020   85..83       MOV     DPH,?XSP + 1
   \   000023   74FC         MOV     A,#-0x4
   \   000025   F0           MOVX    @DPTR,A
   \   000026   A3           INC     DPTR
   \   000027   74FF         MOV     A,#-0x1
   \   000029   801C         SJMP    ??initItem_1
   \                     ??initItem_0:
   \   00002B   EE           MOV     A,R6
   \   00002C   2403         ADD     A,#0x3
   \   00002E   F8           MOV     R0,A
   \   00002F   EF           MOV     A,R7
   \   000030   3400         ADDC    A,#0x0
   \   000032   F9           MOV     R1,A
   \   000033   E8           MOV     A,R0
   \   000034   54FC         ANL     A,#0xfc
   \   000036   2408         ADD     A,#0x8
   \   000038   F8           MOV     R0,A
   \   000039   E9           MOV     A,R1
   \   00003A   3400         ADDC    A,#0x0
   \   00003C   F9           MOV     R1,A
   \   00003D   85..82       MOV     DPL,?XSP + 0
   \   000040   85..83       MOV     DPH,?XSP + 1
   \   000043   E8           MOV     A,R0
   \   000044   F0           MOVX    @DPTR,A
   \   000045   A3           INC     DPTR
   \   000046   E9           MOV     A,R1
   \                     ??initItem_1:
   \   000047   F0           MOVX    @DPTR,A
    697            uint8 rtrn = OSAL_NV_PAGE_NULL;
   \   000048   75..00       MOV     ?V0 + 0,#0x0
    698            uint8 cnt = OSAL_NV_PAGES_USED;
   \   00004B   7C06         MOV     R4,#0x6
    699            uint8 pg = pgRes+1;  // Set to 1 after the reserve page to even wear across all available pages.
   \   00004D   90....       MOV     DPTR,#pgRes
   \   000050   E0           MOVX    A,@DPTR
   \   000051   04           INC     A
   \   000052   F5..         MOV     ?V0 + 2,A
    700          
    701            do {
    702              if (pg >= OSAL_NV_PAGE_BEG+OSAL_NV_PAGES_USED)
   \                     ??initItem_2:
   \   000054   E5..         MOV     A,?V0 + 2
   \   000056   C3           CLR     C
   \   000057   947F         SUBB    A,#0x7f
   \   000059   4003         JC      ??initItem_3
    703              {
    704                pg = OSAL_NV_PAGE_BEG;
   \   00005B   75..79       MOV     ?V0 + 2,#0x79
    705              }
    706              if ( pg != pgRes )
   \                     ??initItem_3:
   \   00005E   90....       MOV     DPTR,#pgRes
   \   000061   E0           MOVX    A,@DPTR
   \   000062   65..         XRL     A,?V0 + 2
   \   000064   602C         JZ      ??initItem_4
    707              {
    708                uint8 idx = pg - OSAL_NV_PAGE_BEG;
   \   000066   7487         MOV     A,#-0x79
   \   000068   25..         ADD     A,?V0 + 2
    709                if ( sz <= (OSAL_NV_PAGE_SIZE - pgOff[idx] + pgLost[idx]) )
   \   00006A   C3           CLR     C
   \   00006B   33           RLC     A
   \   00006C   F8           MOV     R0,A
   \   00006D   E4           CLR     A
   \   00006E   33           RLC     A
   \   00006F   F9           MOV     R1,A
   \   000070   74..         MOV     A,#pgOff & 0xff
   \   000072   28           ADD     A,R0
   \   000073   F582         MOV     DPL,A
   \   000075   74..         MOV     A,#(pgOff >> 8) & 0xff
   \   000077   39           ADDC    A,R1
   \   000078   F583         MOV     DPH,A
   \   00007A   12....       LCALL   ?Subroutine21 & 0xFFFF
    710                {
    711                  break;
    712                }
    713              }
   \                     ??CrossCallReturnLabel_29:
   \   00007D   E4           CLR     A
   \   00007E   C3           CLR     C
   \   00007F   9A           SUBB    A,R2
   \   000080   FA           MOV     R2,A
   \   000081   7408         MOV     A,#0x8
   \   000083   9B           SUBB    A,R3
   \   000084   FB           MOV     R3,A
   \   000085   12....       LCALL   ??Subroutine40_0 & 0xFFFF
   \                     ??CrossCallReturnLabel_65:
   \   000088   2A           ADD     A,R2
   \   000089   FA           MOV     R2,A
   \   00008A   A3           INC     DPTR
   \   00008B   E0           MOVX    A,@DPTR
   \   00008C   3B           ADDC    A,R3
   \   00008D   12....       LCALL   ?Subroutine23 & 0xFFFF
   \                     ??CrossCallReturnLabel_36:
   \   000090   5009         JNC     ??initItem_5
    714              pg++;
   \                     ??initItem_4:
   \   000092   05..         INC     ?V0 + 2
    715            } while (--cnt);
   \   000094   1C           DEC     R4
   \   000095   EC           MOV     A,R4
   \   000096   70BC         JNZ     ??initItem_2
   \   000098   02....       LJMP    ??initItem_6 & 0xFFFF
    716          
    717            if (cnt)
   \                     ??initItem_5:
   \   00009B   EC           MOV     A,R4
   \   00009C   7003         JNZ     $+5
   \   00009E   02....       LJMP    ??initItem_6 & 0xFFFF
   \   0000A1   741C         MOV     A,#0x1c
   \   0000A3   12....       LCALL   ?XSTACK_DISP0_8
   \   0000A6   E0           MOVX    A,@DPTR
   \   0000A7   F5..         MOV     ?V0 + 6,A
   \   0000A9   A3           INC     DPTR
   \   0000AA   E0           MOVX    A,@DPTR
   \   0000AB   F5..         MOV     ?V0 + 7,A
    718            {
    719              // Item fits if an old page is compacted.
    720              if ( sz > (OSAL_NV_PAGE_SIZE - pgOff[pg - OSAL_NV_PAGE_BEG]) )
   \   0000AD   12....       LCALL   ?Subroutine18 & 0xFFFF
   \                     ??CrossCallReturnLabel_20:
   \   0000B0   FA           MOV     R2,A
   \   0000B1   7408         MOV     A,#0x8
   \   0000B3   99           SUBB    A,R1
   \   0000B4   12....       LCALL   ?Subroutine23 & 0xFFFF
   \                     ??CrossCallReturnLabel_37:
   \   0000B7   4003         JC      $+5
   \   0000B9   02....       LJMP    ??initItem_7 & 0xFFFF
    721              {
    722                osalNvPgHdr_t pgHdr;
    723          
    724                /* Prevent excessive re-writes to page header caused by numerous, rapid, & successive
    725                 * OSAL_Nv interruptions caused by resets.
    726                 */
    727                HalFlashRead(pg, OSAL_NV_PAGE_HDR_OFFSET, (uint8 *)(&pgHdr), OSAL_NV_PAGE_HDR_SIZE);
   \   0000BC                ; Setup parameters for call to function HalFlashRead
   \   0000BC   75..08       MOV     ?V0 + 8,#0x8
   \   0000BF   75..00       MOV     ?V0 + 9,#0x0
   \   0000C2   78..         MOV     R0,#?V0 + 8
   \   0000C4   12....       LCALL   ?PUSH_XSTACK_I_TWO
   \   0000C7   7404         MOV     A,#0x4
   \   0000C9   12....       LCALL   ?XSTACK_DISP0_8
   \   0000CC   AC82         MOV     R4,DPL
   \   0000CE   AD83         MOV     R5,DPH
   \   0000D0   7A00         MOV     R2,#0x0
   \   0000D2   7B00         MOV     R3,#0x0
   \   0000D4   A9..         MOV     R1,?V0 + 2
   \   0000D6   12....       LCALL   ??HalFlashRead?relay
   \   0000D9   7402         MOV     A,#0x2
   \   0000DB   12....       LCALL   ?DEALLOC_XSTACK8
    728                if ( pgHdr.xfer == OSAL_NV_ERASED_ID )
   \   0000DE   7406         MOV     A,#0x6
   \   0000E0   12....       LCALL   ?XSTACK_DISP0_8
   \   0000E3   E0           MOVX    A,@DPTR
   \   0000E4   F4           CPL     A
   \   0000E5   7003         JNZ     ??initItem_8
   \   0000E7   A3           INC     DPTR
   \   0000E8   E0           MOVX    A,@DPTR
   \   0000E9   F4           CPL     A
   \                     ??initItem_8:
   \   0000EA   700B         JNZ     ??initItem_9
    729                {
    730                  // Mark the old page as being in process of compaction.
    731                  sz = OSAL_NV_ZEROED_ID;
   \   0000EC   12....       LCALL   ?Subroutine8 & 0xFFFF
    732                  writeWordH( pg, OSAL_NV_PG_XFER, (uint8*)(&sz) );
    733                }
   \                     ??CrossCallReturnLabel_74:
   \   0000EF   7A04         MOV     R2,#0x4
   \   0000F1   FB           MOV     R3,A
   \   0000F2   A9..         MOV     R1,?V0 + 2
   \   0000F4   12....       LCALL   ??writeWordH?relay
    734          
    735                /* First the old page is compacted, then the new item will be the last one written to what
    736                 * had been the reserved page.
    737                 */
    738                if (compactPage( pg, id ))
   \                     ??initItem_9:
   \   0000F7                ; Setup parameters for call to function compactPage
   \   0000F7   AA..         MOV     R2,?V0 + 4
   \   0000F9   AB..         MOV     R3,?V0 + 5
   \   0000FB   A9..         MOV     R1,?V0 + 2
   \   0000FD   12....       LCALL   ??compactPage?relay
   \   000100   E9           MOV     A,R1
   \   000101   6075         JZ      ??initItem_6
    739                {
    740                  if ( writeItem( pgRes, id, len, buf, flag ) )
   \   000103                ; Setup parameters for call to function writeItem
   \   000103   E5..         MOV     A,?V0 + 1
   \   000105   F5..         MOV     ?V0 + 3,A
   \   000107   78..         MOV     R0,#?V0 + 3
   \   000109   12....       LCALL   ?PUSH_XSTACK_I_ONE
   \   00010C   78..         MOV     R0,#?V0 + 6
   \   00010E   12....       LCALL   ?PUSH_XSTACK_I_TWO
   \   000111   EE           MOV     A,R6
   \   000112   FC           MOV     R4,A
   \   000113   EF           MOV     A,R7
   \   000114   FD           MOV     R5,A
   \   000115   AA..         MOV     R2,?V0 + 4
   \   000117   AB..         MOV     R3,?V0 + 5
   \   000119   90....       MOV     DPTR,#pgRes
   \   00011C   E0           MOVX    A,@DPTR
   \   00011D   F9           MOV     R1,A
   \   00011E   12....       LCALL   ??writeItem?relay
   \   000121   7403         MOV     A,#0x3
   \   000123   12....       LCALL   ?DEALLOC_XSTACK8
   \   000126   E9           MOV     A,R1
   \   000127   6006         JZ      ??initItem_10
    741                  {
    742                    rtrn = pgRes;
   \   000129   90....       MOV     DPTR,#pgRes
   \   00012C   E0           MOVX    A,@DPTR
   \   00012D   F5..         MOV     ?V0 + 0,A
    743                  }
    744          
    745                  if ( flag == FALSE )
   \                     ??initItem_10:
   \   00012F   E5..         MOV     A,?V0 + 1
   \   000131   700A         JNZ     ??initItem_11
    746                  {
    747                    /* Overload 'buf' as an OUT parameter to pass back to the calling function
    748                     * the old page to be cleaned up.
    749                     */
    750                    *(uint8 *)buf = pg;
   \   000133   85..82       MOV     DPL,?V0 + 6
   \   000136   85..83       MOV     DPH,?V0 + 7
   \   000139   E5..         MOV     A,?V0 + 2
   \   00013B   8014         SJMP    ??initItem_12
    751                  }
    752                  else
    753                  {
    754                    /* Safe to do the compacted page cleanup even if writeItem() above failed because the
    755                     * item does not yet exist since this call with flag==TRUE is from osal_nv_item_init().
    756                     */
    757                    COMPACT_PAGE_CLEANUP( pg );
   \                     ??initItem_11:
   \   00013D                ; Setup parameters for call to function setPageUse
   \   00013D   7A01         MOV     R2,#0x1
   \   00013F   90....       MOV     DPTR,#pgRes
   \   000142   E0           MOVX    A,@DPTR
   \   000143   F9           MOV     R1,A
   \   000144   12....       LCALL   ??setPageUse?relay
   \   000147                ; Setup parameters for call to function erasePage
   \   000147   A9..         MOV     R1,?V0 + 2
   \   000149   12....       LCALL   ??erasePage?relay
   \   00014C   E5..         MOV     A,?V0 + 2
   \   00014E   90....       MOV     DPTR,#pgRes
   \                     ??initItem_12:
   \   000151   F0           MOVX    @DPTR,A
   \   000152   8024         SJMP    ??initItem_6
    758                  }
    759                }
    760              }
    761              else
    762              {
    763                if ( writeItem( pg, id, len, buf, flag ) )
   \                     ??initItem_7:
   \   000154                ; Setup parameters for call to function writeItem
   \   000154   E5..         MOV     A,?V0 + 1
   \   000156   F5..         MOV     ?V0 + 3,A
   \   000158   78..         MOV     R0,#?V0 + 3
   \   00015A   12....       LCALL   ?PUSH_XSTACK_I_ONE
   \   00015D   78..         MOV     R0,#?V0 + 6
   \   00015F   12....       LCALL   ?PUSH_XSTACK_I_TWO
   \   000162   EE           MOV     A,R6
   \   000163   FC           MOV     R4,A
   \   000164   AA..         MOV     R2,?V0 + 4
   \   000166   AB..         MOV     R3,?V0 + 5
   \   000168   A9..         MOV     R1,?V0 + 2
   \   00016A   12....       LCALL   ??writeItem?relay
   \   00016D   7403         MOV     A,#0x3
   \   00016F   12....       LCALL   ?DEALLOC_XSTACK8
   \   000172   E9           MOV     A,R1
   \   000173   6003         JZ      ??initItem_6
    764                {
    765                  rtrn = pg;
   \   000175   85....       MOV     ?V0 + 0,?V0 + 2
    766                }
    767              }
    768            }
    769          
    770            return rtrn;
   \                     ??initItem_6:
   \   000178   A9..         MOV     R1,?V0 + 0
   \   00017A   740A         MOV     A,#0xa
   \   00017C   80..         SJMP    ??Subroutine44_0
    771          }

   \                                 In  segment BANKED_CODE, align 1, keep-with-next
   \                     ?Subroutine23:
   \   000000   FB           MOV     R3,A
   \   000001   12....       LCALL   ?Subroutine35 & 0xFFFF
   \                     ??CrossCallReturnLabel_73:
   \   000004   C3           CLR     C
   \   000005   EA           MOV     A,R2
   \   000006   98           SUBB    A,R0
   \   000007   EB           MOV     A,R3
   \   000008   99           SUBB    A,R1
   \   000009   22           RET

   \                                 In  segment BANKED_CODE, align 1, keep-with-next
   \                     ?Subroutine8:
   \   000000   85..82       MOV     DPL,?XSP + 0
   \   000003   85..83       MOV     DPH,?XSP + 1
   \   000006   E4           CLR     A
   \   000007                REQUIRE ??Subroutine43_0
   \   000007                ; // Fall through to label ??Subroutine43_0

   \                                 In  segment BANKED_CODE, align 1, keep-with-next
   \                     ?Subroutine18:
   \   000000   12....       LCALL   ?Subroutine37 & 0xFFFF
   \                     ??CrossCallReturnLabel_83:
   \   000003   12....       LCALL   ??Subroutine42_0 & 0xFFFF
   \                     ??CrossCallReturnLabel_71:
   \   000006   E4           CLR     A
   \   000007   C3           CLR     C
   \   000008   98           SUBB    A,R0
   \   000009   22           RET

   \                                 In  segment BANKED_CODE, align 1, keep-with-next
   \                     ?Subroutine37:
   \   000000   E5..         MOV     A,?V0 + 2
   \   000002                REQUIRE ??Subroutine48_0
   \   000002                ; // Fall through to label ??Subroutine48_0
    772          
    773          /*********************************************************************
    774           * @fn      setItem
    775           *
    776           * @brief   Set an item Id or status to mark its state.
    777           *
    778           * @param   pg - Valid NV page.
    779           * @param   offset - Valid offset into the page of the item data - the header
    780           *                   offset is calculated from this.
    781           * @param   stat - Valid enum value for the item status.
    782           *
    783           * @return  none
    784           */

   \                                 In  segment BANKED_CODE, align 1, keep-with-next
    785          static void setItem( uint8 pg, uint16 offset, eNvHdrEnum stat )
   \                     setItem:
    786          {
   \   000000   74F4         MOV     A,#-0xc
   \   000002   12....       LCALL   ?BANKED_ENTER_XDATA
   \   000005                ; Saved register size: 12
   \   000005                ; Auto size: 8
   \   000005   74F8         MOV     A,#-0x8
   \   000007   12....       LCALL   ?ALLOC_XSTACK8
   \   00000A   89..         MOV     ?V0 + 2,R1
   \   00000C   EA           MOV     A,R2
   \   00000D   FE           MOV     R6,A
   \   00000E   EB           MOV     A,R3
   \   00000F   FF           MOV     R7,A
   \   000010   8C..         MOV     ?V0 + 3,R4
    787            osalNvHdr_t hdr;
    788          
    789            offset -= OSAL_NV_HDR_SIZE;
   \   000012   EE           MOV     A,R6
   \   000013   24F8         ADD     A,#-0x8
   \   000015   FE           MOV     R6,A
   \   000016   EF           MOV     A,R7
   \   000017   34FF         ADDC    A,#-0x1
   \   000019   FF           MOV     R7,A
    790            HalFlashRead(pg, offset, (uint8 *)(&hdr), OSAL_NV_HDR_SIZE);
   \   00001A                ; Setup parameters for call to function HalFlashRead
   \   00001A   75..08       MOV     ?V0 + 0,#0x8
   \   00001D   75..00       MOV     ?V0 + 1,#0x0
   \   000020   78..         MOV     R0,#?V0 + 0
   \   000022   12....       LCALL   ?PUSH_XSTACK_I_TWO
   \   000025   7402         MOV     A,#0x2
   \   000027   12....       LCALL   ?XSTACK_DISP0_8
   \   00002A   AC82         MOV     R4,DPL
   \   00002C   AD83         MOV     R5,DPH
   \   00002E   EE           MOV     A,R6
   \   00002F   FA           MOV     R2,A
   \   000030   EF           MOV     A,R7
   \   000031   FB           MOV     R3,A
   \   000032   12....       LCALL   ??HalFlashRead?relay
   \   000035   7402         MOV     A,#0x2
   \   000037   12....       LCALL   ?DEALLOC_XSTACK8
    791          
    792            if ( stat == eNvXfer )
   \   00003A   E5..         MOV     A,?V0 + 3
   \   00003C   7021         JNZ     ??setItem_0
    793            {
    794              hdr.stat = OSAL_NV_ACTIVE;
   \   00003E   7406         MOV     A,#0x6
   \   000040   12....       LCALL   ?XSTACK_DISP0_8
   \   000043   E4           CLR     A
   \   000044   F0           MOVX    @DPTR,A
   \   000045   A3           INC     DPTR
   \   000046   F0           MOVX    @DPTR,A
    795              writeWord( pg, offset+OSAL_NV_HDR_CHK, (uint8*)(&(hdr.chk)) );
   \   000047                ; Setup parameters for call to function writeWord
   \   000047   7404         MOV     A,#0x4
   \   000049   12....       LCALL   ?XSTACK_DISP0_8
   \   00004C   AC82         MOV     R4,DPL
   \   00004E   AD83         MOV     R5,DPH
   \   000050   EE           MOV     A,R6
   \   000051   2404         ADD     A,#0x4
   \   000053   FA           MOV     R2,A
   \   000054   EF           MOV     A,R7
   \   000055   3400         ADDC    A,#0x0
   \   000057   FB           MOV     R3,A
   \   000058   A9..         MOV     R1,?V0 + 2
   \   00005A   12....       LCALL   ??writeWord?relay
   \   00005D   8017         SJMP    ??CrossCallReturnLabel_80
    796            }
    797            else // if ( stat == eNvZero )
    798            {
    799              uint16 sz = ((hdr.len + (OSAL_NV_WORD_SIZE-1)) / OSAL_NV_WORD_SIZE) * OSAL_NV_WORD_SIZE +
    800                                                                                    OSAL_NV_HDR_SIZE;
   \                     ??setItem_0:
   \   00005F   7402         MOV     A,#0x2
   \   000061   12....       LCALL   ?XSTACK_DISP0_8
   \   000064   12....       LCALL   ?Subroutine14 & 0xFFFF
    801              hdr.id = 0;
   \                     ??CrossCallReturnLabel_8:
   \   000067   12....       LCALL   ?Subroutine8 & 0xFFFF
    802              writeWord( pg, offset, (uint8 *)(&hdr) );
   \                     ??CrossCallReturnLabel_75:
   \   00006A   EE           MOV     A,R6
   \   00006B   FA           MOV     R2,A
   \   00006C   EF           MOV     A,R7
   \   00006D   FB           MOV     R3,A
   \   00006E   A9..         MOV     R1,?V0 + 2
   \   000070   12....       LCALL   ??writeWord?relay
    803              pgLost[pg-OSAL_NV_PAGE_BEG] += sz;
   \   000073   12....       LCALL   ?Subroutine13 & 0xFFFF
    804            }
    805          }
   \                     ??CrossCallReturnLabel_80:
   \   000076   02....       LJMP    ?Subroutine0 & 0xFFFF

   \                                 In  segment BANKED_CODE, align 1, keep-with-next
   \                     ?Subroutine13:
   \   000000   E5..         MOV     A,?V0 + 2
   \   000002   C3           CLR     C
   \   000003   33           RLC     A
   \   000004   F8           MOV     R0,A
   \   000005   E4           CLR     A
   \   000006   33           RLC     A
   \   000007   F9           MOV     R1,A
   \   000008   74..         MOV     A,#(pgLost + 14) & 0xff
   \   00000A   28           ADD     A,R0
   \   00000B   F582         MOV     DPL,A
   \   00000D   74..         MOV     A,#((pgLost - 242) >> 8) & 0xff
   \   00000F                REQUIRE ??Subroutine45_0
   \   00000F                ; // Fall through to label ??Subroutine45_0

   \                                 In  segment BANKED_CODE, align 1, keep-with-next
   \                     ??Subroutine45_0:
   \   000000   39           ADDC    A,R1
   \   000001   F583         MOV     DPH,A
   \   000003   E0           MOVX    A,@DPTR
   \   000004   25..         ADD     A,?V0 + 0
   \   000006   F0           MOVX    @DPTR,A
   \   000007   A3           INC     DPTR
   \   000008   E0           MOVX    A,@DPTR
   \   000009   35..         ADDC    A,?V0 + 1
   \   00000B   F0           MOVX    @DPTR,A
   \   00000C   22           RET

   \                                 In  segment BANKED_CODE, align 1, keep-with-next
   \                     ?Subroutine14:
   \   000000   12....       LCALL   ?Subroutine34 & 0xFFFF
   \                     ??CrossCallReturnLabel_59:
   \   000003   2408         ADD     A,#0x8
   \   000005   F5..         MOV     ?V0 + 0,A
   \   000007   E9           MOV     A,R1
   \   000008   3400         ADDC    A,#0x0
   \   00000A   F5..         MOV     ?V0 + 1,A
   \   00000C   22           RET
    806          
    807          /*********************************************************************
    808           * @fn      setChk
    809           *
    810           * @brief   Set the item header checksum given the data buffer offset.
    811           *
    812           * @param   pg - Valid NV page.
    813           * @param   offset - Valid offset into the page of the item data - the header
    814           *                   offset is calculated from this.
    815           * @param   chk - The checksum to set.
    816           *
    817           * @return  The checksum read back.
    818           */

   \                                 In  segment BANKED_CODE, align 1, keep-with-next
    819          static uint16 setChk( uint8 pg, uint16 offset, uint16 chk )
   \                     setChk:
    820          {
   \   000000   74F4         MOV     A,#-0xc
   \   000002   12....       LCALL   ?BANKED_ENTER_XDATA
   \   000005                ; Saved register size: 12
   \   000005                ; Auto size: 2
   \   000005   74FE         MOV     A,#-0x2
   \   000007   12....       LCALL   ?ALLOC_XSTACK8
   \   00000A   85..82       MOV     DPL,?XSP + 0
   \   00000D   85..83       MOV     DPH,?XSP + 1
   \   000010   EC           MOV     A,R4
   \   000011   F0           MOVX    @DPTR,A
   \   000012   A3           INC     DPTR
   \   000013   ED           MOV     A,R5
   \   000014   F0           MOVX    @DPTR,A
   \   000015   89..         MOV     ?V0 + 0,R1
   \   000017   EA           MOV     A,R2
   \   000018   FE           MOV     R6,A
   \   000019   EB           MOV     A,R3
   \   00001A   FF           MOV     R7,A
    821            offset -= OSAL_NV_WORD_SIZE;
   \   00001B   EE           MOV     A,R6
   \   00001C   24FC         ADD     A,#-0x4
   \   00001E   FE           MOV     R6,A
   \   00001F   EF           MOV     A,R7
   \   000020   34FF         ADDC    A,#-0x1
   \   000022   FF           MOV     R7,A
    822            writeWordH( pg, offset, (uint8 *)&chk );
   \   000023                ; Setup parameters for call to function writeWordH
   \   000023   85..82       MOV     DPL,?XSP + 0
   \   000026   85..83       MOV     DPH,?XSP + 1
   \   000029   AC82         MOV     R4,DPL
   \   00002B   AD83         MOV     R5,DPH
   \   00002D   EE           MOV     A,R6
   \   00002E   FA           MOV     R2,A
   \   00002F   EF           MOV     A,R7
   \   000030   FB           MOV     R3,A
   \   000031   12....       LCALL   ??writeWordH?relay
    823            HalFlashRead( pg, offset, (uint8 *)(&chk), sizeof( chk ) );
   \   000034                ; Setup parameters for call to function HalFlashRead
   \   000034   75..02       MOV     ?V0 + 2,#0x2
   \   000037   75..00       MOV     ?V0 + 3,#0x0
   \   00003A   78..         MOV     R0,#?V0 + 2
   \   00003C   12....       LCALL   ?PUSH_XSTACK_I_TWO
   \   00003F   7402         MOV     A,#0x2
   \   000041   12....       LCALL   ?XSTACK_DISP0_8
   \   000044   AC82         MOV     R4,DPL
   \   000046   AD83         MOV     R5,DPH
   \   000048   EE           MOV     A,R6
   \   000049   FA           MOV     R2,A
   \   00004A   EF           MOV     A,R7
   \   00004B   FB           MOV     R3,A
   \   00004C   A9..         MOV     R1,?V0 + 0
   \   00004E   12....       LCALL   ??HalFlashRead?relay
   \   000051   7402         MOV     A,#0x2
   \   000053   12....       LCALL   ?DEALLOC_XSTACK8
    824          
    825            return chk;
   \   000056   85..82       MOV     DPL,?XSP + 0
   \   000059   85..83       MOV     DPH,?XSP + 1
   \   00005C   12....       LCALL   ?Subroutine21 & 0xFFFF
   \                     ??CrossCallReturnLabel_30:
   \   00005F                REQUIRE ?Subroutine7
   \   00005F                ; // Fall through to label ?Subroutine7
    826          }

   \                                 In  segment BANKED_CODE, align 1, keep-with-next
   \                     ?Subroutine7:
   \   000000   7402         MOV     A,#0x2
   \   000002   80..         SJMP    ??Subroutine46_0
    827          
    828          /*********************************************************************
    829           * @fn      calcChkB
    830           *
    831           * @brief   Calculates the data checksum over the 'buf' parameter.
    832           *
    833           * @param   len - Byte count of the data to be checksummed.
    834           * @param   buf - Data buffer to be checksummed.
    835           *
    836           * @return  Calculated checksum of the data bytes.
    837           */
    838          static uint16 calcChkB( uint16 len, uint8 *buf )
    839          {
    840            uint8 fill = len % OSAL_NV_WORD_SIZE;
    841            uint16 chk;
    842          
    843            if ( !buf )
    844            {
    845              chk = len * OSAL_NV_ERASED;
    846            }
    847            else
    848            {
    849              chk = 0;
    850              while ( len-- )
    851              {
    852                chk += *buf++;
    853              }
    854            }
    855          
    856            // calcChkF() will calculate over OSAL_NV_WORD_SIZE alignment.
    857            if ( fill )
    858            {
    859              chk += (OSAL_NV_WORD_SIZE - fill) * OSAL_NV_ERASED;
    860            }
    861          
    862            return chk;
    863          }
    864          
    865          /*********************************************************************
    866           * @fn      calcChkF
    867           *
    868           * @brief   Calculates the data checksum by reading the data bytes from NV.
    869           *
    870           * @param   pg - A valid NV Flash page.
    871           * @param   offset - A valid offset into the page.
    872           * @param   len - Byte count of the data to be checksummed.
    873           *
    874           * @return  Calculated checksum of the data bytes.
    875           */

   \                                 In  segment BANKED_CODE, align 1, keep-with-next
    876          static uint16 calcChkF( uint8 pg, uint16 offset, uint16 len )
   \                     calcChkF:
    877          {
   \   000000   74F1         MOV     A,#-0xf
   \   000002   12....       LCALL   ?BANKED_ENTER_XDATA
   \   000005                ; Saved register size: 15
   \   000005                ; Auto size: 4
   \   000005   74FC         MOV     A,#-0x4
   \   000007   12....       LCALL   ?ALLOC_XSTACK8
   \   00000A   89..         MOV     ?V0 + 6,R1
   \   00000C   EA           MOV     A,R2
   \   00000D   FE           MOV     R6,A
   \   00000E   EB           MOV     A,R3
   \   00000F   FF           MOV     R7,A
    878            uint16 chk = 0;
   \   000010   75..00       MOV     ?V0 + 0,#0x0
   \   000013   75..00       MOV     ?V0 + 1,#0x0
    879          
    880            len = (len + (OSAL_NV_WORD_SIZE-1)) / OSAL_NV_WORD_SIZE;
   \   000016   EC           MOV     A,R4
   \   000017   2403         ADD     A,#0x3
   \   000019   F5..         MOV     ?V0 + 4,A
   \   00001B   ED           MOV     A,R5
   \   00001C   3400         ADDC    A,#0x0
   \   00001E   F5..         MOV     ?V0 + 5,A
   \   000020   7402         MOV     A,#0x2
   \   000022   78..         MOV     R0,#?V0 + 4
   \   000024   12....       LCALL   ?US_SHR
   \   000027   85....       MOV     ?V0 + 2,?V0 + 4
   \   00002A   85....       MOV     ?V0 + 3,?V0 + 5
    881          
    882            while ( len-- )
   \                     ??calcChkF_0:
   \   00002D   A8..         MOV     R0,?V0 + 2
   \   00002F   A9..         MOV     R1,?V0 + 3
   \   000031   E8           MOV     A,R0
   \   000032   24FF         ADD     A,#-0x1
   \   000034   F5..         MOV     ?V0 + 2,A
   \   000036   E9           MOV     A,R1
   \   000037   34FF         ADDC    A,#-0x1
   \   000039   F5..         MOV     ?V0 + 3,A
   \   00003B   E8           MOV     A,R0
   \   00003C   49           ORL     A,R1
   \   00003D   6047         JZ      ??calcChkF_1
    883            {
    884              uint8 cnt, tmp[OSAL_NV_WORD_SIZE];
    885          
    886              HalFlashRead(pg, offset, tmp, OSAL_NV_WORD_SIZE);
   \   00003F                ; Setup parameters for call to function HalFlashRead
   \   00003F   75..04       MOV     ?V0 + 4,#0x4
   \   000042   75..00       MOV     ?V0 + 5,#0x0
   \   000045   78..         MOV     R0,#?V0 + 4
   \   000047   12....       LCALL   ?PUSH_XSTACK_I_TWO
   \   00004A   7402         MOV     A,#0x2
   \   00004C   12....       LCALL   ?XSTACK_DISP0_8
   \   00004F   AC82         MOV     R4,DPL
   \   000051   AD83         MOV     R5,DPH
   \   000053   EE           MOV     A,R6
   \   000054   FA           MOV     R2,A
   \   000055   EF           MOV     A,R7
   \   000056   FB           MOV     R3,A
   \   000057   A9..         MOV     R1,?V0 + 6
   \   000059   12....       LCALL   ??HalFlashRead?relay
   \   00005C   7402         MOV     A,#0x2
   \   00005E   12....       LCALL   ?DEALLOC_XSTACK8
    887              offset += OSAL_NV_WORD_SIZE;
   \   000061   EE           MOV     A,R6
   \   000062   2404         ADD     A,#0x4
   \   000064   FE           MOV     R6,A
   \   000065   EF           MOV     A,R7
   \   000066   3400         ADDC    A,#0x0
   \   000068   FF           MOV     R7,A
    888          
    889              for ( cnt = 0; cnt < OSAL_NV_WORD_SIZE; cnt++ )
   \   000069   7800         MOV     R0,#0x0
    890              {
    891                chk += tmp[cnt];
   \                     ??calcChkF_2:
   \   00006B   88..         MOV     ?V0 + 4,R0
   \   00006D   12....       LCALL   ?Subroutine32 & 0xFFFF
    892              }
   \                     ??CrossCallReturnLabel_57:
   \   000070   E0           MOVX    A,@DPTR
   \   000071   FA           MOV     R2,A
   \   000072   E5..         MOV     A,?V0 + 0
   \   000074   2A           ADD     A,R2
   \   000075   F5..         MOV     ?V0 + 0,A
   \   000077   E5..         MOV     A,?V0 + 1
   \   000079   3400         ADDC    A,#0x0
   \   00007B   F5..         MOV     ?V0 + 1,A
   \   00007D   08           INC     R0
   \   00007E   E8           MOV     A,R0
   \   00007F   C3           CLR     C
   \   000080   9404         SUBB    A,#0x4
   \   000082   50A9         JNC     ??calcChkF_0
   \   000084   80E5         SJMP    ??calcChkF_2
    893            }
    894          
    895            return chk;
   \                     ??calcChkF_1:
   \   000086   AA..         MOV     R2,?V0 + 0
   \   000088   AB..         MOV     R3,?V0 + 1
   \   00008A   7404         MOV     A,#0x4
   \   00008C   12....       LCALL   ?DEALLOC_XSTACK8
   \   00008F   7F07         MOV     R7,#0x7
   \   000091   02....       LJMP    ?BANKED_LEAVE_XDATA
    896          }

   \                                 In  segment BANKED_CODE, align 1, keep-with-next
   \                     ?Subroutine32:
   \   000000   85..82       MOV     DPL,?XSP + 0
   \   000003   85..83       MOV     DPH,?XSP + 1
   \   000006   E582         MOV     A,DPL
   \   000008   25..         ADD     A,?V0 + 4
   \   00000A   F582         MOV     DPL,A
   \   00000C   E583         MOV     A,DPH
   \   00000E   3400         ADDC    A,#0x0
   \   000010   F583         MOV     DPH,A
   \   000012   22           RET
    897          
    898          /*********************************************************************
    899           * @fn      writeWord
    900           *
    901           * @brief   Writes a Flash-WORD to NV.
    902           *
    903           * @param   pg - A valid NV Flash page.
    904           * @param   offset - A valid offset into the page.
    905           * @param   buf - Pointer to source buffer.
    906           *
    907           * @return  none
    908           */

   \                                 In  segment BANKED_CODE, align 1, keep-with-next
    909          static void writeWord( uint8 pg, uint16 offset, uint8 *buf )
   \                     writeWord:
    910          {
   \   000000   74F4         MOV     A,#-0xc
   \   000002   12....       LCALL   ?BANKED_ENTER_XDATA
   \   000005                ; Saved register size: 12
   \   000005                ; Auto size: 0
   \   000005   E9           MOV     A,R1
   \   000006   FE           MOV     R6,A
    911            offset = (offset / HAL_FLASH_WORD_SIZE) +
    912                    ((uint16)pg * (HAL_FLASH_PAGE_SIZE / HAL_FLASH_WORD_SIZE));
    913          
    914            HalFlashWrite(offset, buf, 1);
   \   000007                ; Setup parameters for call to function HalFlashWrite
   \   000007   75..01       MOV     ?V0 + 0,#0x1
   \   00000A   75..00       MOV     ?V0 + 1,#0x0
   \   00000D   78..         MOV     R0,#?V0 + 0
   \   00000F   12....       LCALL   ?PUSH_XSTACK_I_TWO
   \   000012   8A..         MOV     ?V0 + 0,R2
   \   000014   8B..         MOV     ?V0 + 1,R3
   \   000016   7402         MOV     A,#0x2
   \   000018   78..         MOV     R0,#?V0 + 0
   \   00001A   12....       LCALL   ?US_SHR
   \   00001D   8E..         MOV     ?V0 + 2,R6
   \   00001F   F5..         MOV     ?V0 + 3,A
   \   000021   7409         MOV     A,#0x9
   \   000023   78..         MOV     R0,#?V0 + 2
   \   000025   12....       LCALL   ?S_SHL
   \   000028   E5..         MOV     A,?V0 + 0
   \   00002A   2400         ADD     A,#0x0
   \   00002C   FA           MOV     R2,A
   \   00002D   E5..         MOV     A,?V0 + 1
   \   00002F   35..         ADDC    A,?V0 + 3
   \   000031   FB           MOV     R3,A
   \   000032   12....       LCALL   ??HalFlashWrite?relay
   \   000035   02....       LJMP    ?Subroutine7 & 0xFFFF
    915          }
    916          
    917          /*********************************************************************
    918           * @fn      writeWordM
    919           *
    920           * @brief   Writes multiple Flash-WORDs to NV.
    921           *
    922           * @param   pg - A valid NV Flash page.
    923           * @param   offset - A valid offset into the page.
    924           * @param   buf - Pointer to source buffer.
    925           * @param   cnt - Number of 4-byte blocks to write.
    926           *
    927           * @return  none
    928           */
    929          static void writeWordM( uint8 pg, uint16 offset, uint8 *buf, uint16 cnt )
    930          {
    931            offset = (offset / HAL_FLASH_WORD_SIZE) +
    932                    ((uint16)pg * (HAL_FLASH_PAGE_SIZE / HAL_FLASH_WORD_SIZE));
    933            HalFlashWrite(offset, buf, cnt);
    934          }
    935          
    936          /*********************************************************************
    937           * @fn      writeWordH
    938           *
    939           * @brief   Writes the 1st half of a Flash-WORD to NV (filling 2nd half with 0xffff).
    940           *
    941           * @param   pg - A valid NV Flash page.
    942           * @param   offset - A valid offset into the page.
    943           * @param   buf - Pointer to source buffer.
    944           *
    945           * @return  none
    946           */

   \                                 In  segment BANKED_CODE, align 1, keep-with-next
    947          static void writeWordH( uint8 pg, uint16 offset, uint8 *buf )
   \                     writeWordH:
    948          {
   \   000000   74F7         MOV     A,#-0x9
   \   000002   12....       LCALL   ?BANKED_ENTER_XDATA
   \   000005                ; Saved register size: 9
   \   000005                ; Auto size: 4
   \   000005   74FC         MOV     A,#-0x4
   \   000007   12....       LCALL   ?ALLOC_XSTACK8
    949            uint8 tmp[4];
    950          
    951            tmp[0] = buf[0];
   \   00000A   8C82         MOV     DPL,R4
   \   00000C   8D83         MOV     DPH,R5
   \   00000E   E0           MOVX    A,@DPTR
   \   00000F   85..82       MOV     DPL,?XSP + 0
   \   000012   85..83       MOV     DPH,?XSP + 1
   \   000015   F0           MOVX    @DPTR,A
    952            tmp[1] = buf[1];
   \   000016   8C82         MOV     DPL,R4
   \   000018   8D83         MOV     DPH,R5
   \   00001A   A3           INC     DPTR
   \   00001B   E0           MOVX    A,@DPTR
   \   00001C   C0E0         PUSH    A
   \   00001E   7401         MOV     A,#0x1
   \   000020   12....       LCALL   ?XSTACK_DISP0_8
   \   000023   D0E0         POP     A
   \   000025   F0           MOVX    @DPTR,A
    953            tmp[2] = OSAL_NV_ERASED;
   \   000026   7402         MOV     A,#0x2
   \   000028   12....       LCALL   ?XSTACK_DISP0_8
   \   00002B   74FF         MOV     A,#-0x1
   \   00002D   F0           MOVX    @DPTR,A
    954            tmp[3] = OSAL_NV_ERASED;
   \   00002E   7403         MOV     A,#0x3
   \   000030   12....       LCALL   ?XSTACK_DISP0_8
   \   000033   74FF         MOV     A,#-0x1
   \   000035   12....       LCALL   ?Subroutine11 & 0xFFFF
    955          
    956            writeWord( pg, offset, tmp );
   \                     ??CrossCallReturnLabel_4:
   \   000038   12....       LCALL   ??writeWord?relay
    957          }
   \   00003B   7404         MOV     A,#0x4
   \   00003D   02....       LJMP    ?Subroutine1 & 0xFFFF

   \                                 In  segment BANKED_CODE, align 1, keep-with-next
   \                     ?Subroutine11:
   \   000000   12....       LCALL   ?Subroutine33 & 0xFFFF
   \                     ??CrossCallReturnLabel_78:
   \   000003   22           RET
    958          
    959          /*********************************************************************
    960           * @fn      writeBuf
    961           *
    962           * @brief   Writes a data buffer to NV.
    963           *
    964           * @param   dstPg - A valid NV Flash page.
    965           * @param   offset - A valid offset into the page.
    966           * @param   len  - Byte count of the data to write.
    967           * @param   buf  - The data to write.
    968           *
    969           * @return  TRUE if data buf checksum matches read back checksum, else FALSE.
    970           */

   \                                 In  segment BANKED_CODE, align 1, keep-with-next
    971          static void writeBuf( uint8 dstPg, uint16 dstOff, uint16 len, uint8 *buf )
   \                     writeBuf:
    972          {
   \   000000   74EE         MOV     A,#-0x12
   \   000002   12....       LCALL   ?BANKED_ENTER_XDATA
   \   000005                ; Saved register size: 18
   \   000005                ; Auto size: 4
   \   000005   74FC         MOV     A,#-0x4
   \   000007   12....       LCALL   ?ALLOC_XSTACK8
   \   00000A   89..         MOV     ?V0 + 2,R1
   \   00000C   8A..         MOV     ?V0 + 0,R2
   \   00000E   8B..         MOV     ?V0 + 1,R3
   \   000010   8C..         MOV     ?V0 + 4,R4
   \   000012   8D..         MOV     ?V0 + 5,R5
    973            uint8 rem = dstOff % OSAL_NV_WORD_SIZE;
   \   000014   EA           MOV     A,R2
   \   000015   5403         ANL     A,#0x3
   \   000017   F5..         MOV     ?V0 + 3,A
   \   000019   7416         MOV     A,#0x16
   \   00001B   12....       LCALL   ?XSTACK_DISP0_8
   \   00001E   E0           MOVX    A,@DPTR
   \   00001F   FE           MOV     R6,A
   \   000020   A3           INC     DPTR
   \   000021   E0           MOVX    A,@DPTR
   \   000022   FF           MOV     R7,A
    974            uint8 tmp[OSAL_NV_WORD_SIZE];
    975          
    976            if ( rem )
   \   000023   E5..         MOV     A,?V0 + 3
   \   000025   6076         JZ      ??CrossCallReturnLabel_52
    977            {
    978              dstOff = (dstOff / OSAL_NV_WORD_SIZE) * OSAL_NV_WORD_SIZE;
   \   000027   74FC         MOV     A,#-0x4
   \   000029   55..         ANL     A,?V0 + 0
   \   00002B   F5..         MOV     ?V0 + 0,A
    979              HalFlashRead(dstPg, dstOff, tmp, OSAL_NV_WORD_SIZE);
   \   00002D                ; Setup parameters for call to function HalFlashRead
   \   00002D   75..04       MOV     ?V0 + 6,#0x4
   \   000030   75..00       MOV     ?V0 + 7,#0x0
   \   000033   78..         MOV     R0,#?V0 + 6
   \   000035   12....       LCALL   ?PUSH_XSTACK_I_TWO
   \   000038   7402         MOV     A,#0x2
   \   00003A   12....       LCALL   ?XSTACK_DISP0_8
   \   00003D   AC82         MOV     R4,DPL
   \   00003F   AD83         MOV     R5,DPH
   \   000041   AA..         MOV     R2,?V0 + 0
   \   000043   12....       LCALL   ??HalFlashRead?relay
   \   000046   7402         MOV     A,#0x2
   \   000048   12....       LCALL   ?DEALLOC_XSTACK8
   \                     ??writeBuf_0:
   \   00004B   E5..         MOV     A,?V0 + 4
   \   00004D   45..         ORL     A,?V0 + 5
   \   00004F   6036         JZ      ??writeBuf_1
    980          
    981              while ( (rem < OSAL_NV_WORD_SIZE) && len )
    982              {
    983                tmp[rem++] = *buf++;
   \   000051   8E82         MOV     DPL,R6
   \   000053   8F83         MOV     DPH,R7
   \   000055   E0           MOVX    A,@DPTR
   \   000056   C0E0         PUSH    A
   \   000058   85....       MOV     ?V0 + 6,?V0 + 3
   \   00005B   85..82       MOV     DPL,?XSP + 0
   \   00005E   85..83       MOV     DPH,?XSP + 1
   \   000061   E582         MOV     A,DPL
   \   000063   25..         ADD     A,?V0 + 6
   \   000065   F582         MOV     DPL,A
   \   000067   E583         MOV     A,DPH
   \   000069   3400         ADDC    A,#0x0
   \   00006B   F583         MOV     DPH,A
   \   00006D   D0E0         POP     A
   \   00006F   12....       LCALL   ?Subroutine12 & 0xFFFF
   \                     ??CrossCallReturnLabel_6:
   \   000072   05..         INC     ?V0 + 3
    984                len--;
   \   000074   E5..         MOV     A,?V0 + 4
   \   000076   24FF         ADD     A,#-0x1
   \   000078   F5..         MOV     ?V0 + 4,A
   \   00007A   E5..         MOV     A,?V0 + 5
   \   00007C   34FF         ADDC    A,#-0x1
   \   00007E   F5..         MOV     ?V0 + 5,A
    985              }
   \   000080   E5..         MOV     A,?V0 + 3
   \   000082   C3           CLR     C
   \   000083   9404         SUBB    A,#0x4
   \   000085   40C4         JC      ??writeBuf_0
    986          
    987              writeWord( dstPg, dstOff, tmp );
   \                     ??writeBuf_1:
   \   000087                ; Setup parameters for call to function writeWord
   \   000087   85..82       MOV     DPL,?XSP + 0
   \   00008A   85..83       MOV     DPH,?XSP + 1
   \   00008D   AC82         MOV     R4,DPL
   \   00008F   AD83         MOV     R5,DPH
   \   000091   AA..         MOV     R2,?V0 + 0
   \   000093   AB..         MOV     R3,?V0 + 1
   \   000095   A9..         MOV     R1,?V0 + 2
   \   000097   12....       LCALL   ??writeWord?relay
    988              dstOff += OSAL_NV_WORD_SIZE;
   \   00009A   12....       LCALL   ?Subroutine30 & 0xFFFF
    989            }
    990          
    991            rem = len % OSAL_NV_WORD_SIZE;
   \                     ??CrossCallReturnLabel_52:
   \   00009D   E5..         MOV     A,?V0 + 4
   \   00009F   5403         ANL     A,#0x3
   \   0000A1   F5..         MOV     ?V0 + 3,A
    992            len /= OSAL_NV_WORD_SIZE;
   \   0000A3   85....       MOV     ?V0 + 6,?V0 + 4
   \   0000A6   85....       MOV     ?V0 + 7,?V0 + 5
   \   0000A9   7402         MOV     A,#0x2
   \   0000AB   78..         MOV     R0,#?V0 + 6
   \   0000AD   12....       LCALL   ?US_SHR
   \   0000B0   85....       MOV     ?V0 + 4,?V0 + 6
   \   0000B3   85....       MOV     ?V0 + 5,?V0 + 7
    993          
    994            if ( len )
   \   0000B6   E5..         MOV     A,?V0 + 4
   \   0000B8   45..         ORL     A,?V0 + 5
   \   0000BA   604F         JZ      ??writeBuf_2
    995            {
    996              writeWordM( dstPg, dstOff, buf, len );
   \   0000BC                ; Setup parameters for call to function HalFlashWrite
   \   0000BC   78..         MOV     R0,#?V0 + 4
   \   0000BE   12....       LCALL   ?PUSH_XSTACK_I_TWO
   \   0000C1   EE           MOV     A,R6
   \   0000C2   FC           MOV     R4,A
   \   0000C3   EF           MOV     A,R7
   \   0000C4   FD           MOV     R5,A
   \   0000C5   85....       MOV     ?V0 + 6,?V0 + 0
   \   0000C8   85....       MOV     ?V0 + 7,?V0 + 1
   \   0000CB   7402         MOV     A,#0x2
   \   0000CD   78..         MOV     R0,#?V0 + 6
   \   0000CF   12....       LCALL   ?US_SHR
   \   0000D2   85....       MOV     ?V0 + 8,?V0 + 2
   \   0000D5   F5..         MOV     ?V0 + 9,A
   \   0000D7   7409         MOV     A,#0x9
   \   0000D9   78..         MOV     R0,#?V0 + 8
   \   0000DB   12....       LCALL   ?S_SHL
   \   0000DE   E5..         MOV     A,?V0 + 6
   \   0000E0   2400         ADD     A,#0x0
   \   0000E2   FA           MOV     R2,A
   \   0000E3   E5..         MOV     A,?V0 + 7
   \   0000E5   35..         ADDC    A,?V0 + 9
   \   0000E7   FB           MOV     R3,A
   \   0000E8   12....       LCALL   ??HalFlashWrite?relay
   \   0000EB   7402         MOV     A,#0x2
   \   0000ED   12....       LCALL   ?DEALLOC_XSTACK8
    997              dstOff += OSAL_NV_WORD_SIZE * len;
   \   0000F0   7402         MOV     A,#0x2
   \   0000F2   78..         MOV     R0,#?V0 + 4
   \   0000F4   12....       LCALL   ?S_SHL
   \   0000F7   A8..         MOV     R0,?V0 + 4
   \   0000F9   A9..         MOV     R1,?V0 + 5
   \   0000FB   E5..         MOV     A,?V0 + 0
   \   0000FD   28           ADD     A,R0
   \   0000FE   F5..         MOV     ?V0 + 0,A
   \   000100   E5..         MOV     A,?V0 + 1
   \   000102   39           ADDC    A,R1
   \   000103   F5..         MOV     ?V0 + 1,A
    998              buf += OSAL_NV_WORD_SIZE * len;
   \   000105   EE           MOV     A,R6
   \   000106   28           ADD     A,R0
   \   000107   FE           MOV     R6,A
   \   000108   EF           MOV     A,R7
   \   000109   39           ADDC    A,R1
   \   00010A   FF           MOV     R7,A
    999            }
   1000          
   1001            if ( rem )
   \                     ??writeBuf_2:
   \   00010B   E5..         MOV     A,?V0 + 3
   \   00010D   605A         JZ      ??writeBuf_3
   1002            {
   1003              uint8 idx = 0;
   \   00010F   75..00       MOV     ?V0 + 6,#0x0
   1004              HalFlashRead(dstPg, dstOff, tmp, OSAL_NV_WORD_SIZE);
   \   000112                ; Setup parameters for call to function HalFlashRead
   \   000112   75..04       MOV     ?V0 + 4,#0x4
   \   000115   75..00       MOV     ?V0 + 5,#0x0
   \   000118   78..         MOV     R0,#?V0 + 4
   \   00011A   12....       LCALL   ?PUSH_XSTACK_I_TWO
   \   00011D   7402         MOV     A,#0x2
   \   00011F   12....       LCALL   ?XSTACK_DISP0_8
   \   000122   AC82         MOV     R4,DPL
   \   000124   AD83         MOV     R5,DPH
   \   000126   AA..         MOV     R2,?V0 + 0
   \   000128   AB..         MOV     R3,?V0 + 1
   \   00012A   A9..         MOV     R1,?V0 + 2
   \   00012C   12....       LCALL   ??HalFlashRead?relay
   \   00012F   7402         MOV     A,#0x2
   \   000131   12....       LCALL   ?DEALLOC_XSTACK8
   \   000134   8014         SJMP    ??writeBuf_4
   1005              while ( rem-- )
   1006              {
   1007                tmp[idx++] = *buf++;
   \                     ??writeBuf_5:
   \   000136   8E82         MOV     DPL,R6
   \   000138   8F83         MOV     DPH,R7
   \   00013A   E0           MOVX    A,@DPTR
   \   00013B   C0E0         PUSH    A
   \   00013D   85....       MOV     ?V0 + 4,?V0 + 6
   \   000140   12....       LCALL   ?Subroutine32 & 0xFFFF
   1008              }
   \                     ??CrossCallReturnLabel_58:
   \   000143   D0E0         POP     A
   \   000145   12....       LCALL   ?Subroutine12 & 0xFFFF
   \                     ??CrossCallReturnLabel_7:
   \   000148   05..         INC     ?V0 + 6
   \                     ??writeBuf_4:
   \   00014A   85....       MOV     ?V0 + 4,?V0 + 3
   \   00014D   74FF         MOV     A,#-0x1
   \   00014F   25..         ADD     A,?V0 + 4
   \   000151   F5..         MOV     ?V0 + 3,A
   \   000153   04           INC     A
   \   000154   70E0         JNZ     ??writeBuf_5
   1009              writeWord( dstPg, dstOff, tmp );
   \   000156                ; Setup parameters for call to function writeWord
   \   000156   85..82       MOV     DPL,?XSP + 0
   \   000159   85..83       MOV     DPH,?XSP + 1
   \   00015C   AC82         MOV     R4,DPL
   \   00015E   AD83         MOV     R5,DPH
   \   000160   AA..         MOV     R2,?V0 + 0
   \   000162   AB..         MOV     R3,?V0 + 1
   \   000164   A9..         MOV     R1,?V0 + 2
   \   000166   12....       LCALL   ??writeWord?relay
   1010            }
   1011          }
   \                     ??writeBuf_3:
   \   000169                REQUIRE ?Subroutine6
   \   000169                ; // Fall through to label ?Subroutine6

   \                                 In  segment BANKED_CODE, align 1, keep-with-next
   \                     ?Subroutine6:
   \   000000   7404         MOV     A,#0x4
   \   000002   02....       LJMP    ??Subroutine44_0 & 0xFFFF

   \                                 In  segment BANKED_CODE, align 1, keep-with-next
   \                     ?Subroutine12:
   \   000000   F0           MOVX    @DPTR,A
   \   000001   8E82         MOV     DPL,R6
   \   000003   8F83         MOV     DPH,R7
   \   000005   A3           INC     DPTR
   \   000006   AE82         MOV     R6,DPL
   \   000008   AF83         MOV     R7,DPH
   \   00000A   22           RET

   \                                 In  segment BANKED_CODE, align 1, keep-with-next
   \                     ?Subroutine30:
   \   000000   E5..         MOV     A,?V0 + 0
   \   000002   2404         ADD     A,#0x4
   \   000004   F5..         MOV     ?V0 + 0,A
   \   000006   E5..         MOV     A,?V0 + 1
   \   000008   3400         ADDC    A,#0x0
   \   00000A   F5..         MOV     ?V0 + 1,A
   \   00000C   22           RET
   1012          
   1013          /*********************************************************************
   1014           * @fn      xferBuf
   1015           *
   1016           * @brief   Xfers an NV buffer from one location to another, enforcing OSAL_NV_WORD_SIZE writes.
   1017           *
   1018           * @return  none
   1019           */

   \                                 In  segment BANKED_CODE, align 1, keep-with-next
   1020          static void xferBuf( uint8 srcPg, uint16 srcOff, uint8 dstPg, uint16 dstOff, uint16 len )
   \                     xferBuf:
   1021          {
   \   000000   74EE         MOV     A,#-0x12
   \   000002   12....       LCALL   ?BANKED_ENTER_XDATA
   \   000005                ; Saved register size: 18
   \   000005                ; Auto size: 4
   \   000005   74FC         MOV     A,#-0x4
   \   000007   12....       LCALL   ?ALLOC_XSTACK8
   \   00000A   89..         MOV     ?V0 + 6,R1
   \   00000C   8A..         MOV     ?V0 + 4,R2
   \   00000E   8B..         MOV     ?V0 + 5,R3
   \   000010   8C..         MOV     ?V0 + 3,R4
   \   000012   7416         MOV     A,#0x16
   \   000014   12....       LCALL   ?XSTACK_DISP0_8
   \   000017   E0           MOVX    A,@DPTR
   \   000018   F5..         MOV     ?V0 + 0,A
   \   00001A   A3           INC     DPTR
   \   00001B   E0           MOVX    A,@DPTR
   \   00001C   F5..         MOV     ?V0 + 1,A
   1022            uint8 rem = dstOff % OSAL_NV_WORD_SIZE;
   \   00001E   E5..         MOV     A,?V0 + 0
   \   000020   5403         ANL     A,#0x3
   \   000022   F5..         MOV     ?V0 + 2,A
   \   000024   7418         MOV     A,#0x18
   \   000026   12....       LCALL   ?XSTACK_DISP0_8
   \   000029   E0           MOVX    A,@DPTR
   \   00002A   FE           MOV     R6,A
   \   00002B   A3           INC     DPTR
   \   00002C   E0           MOVX    A,@DPTR
   \   00002D   FF           MOV     R7,A
   1023            uint8 tmp[OSAL_NV_WORD_SIZE];
   1024          
   1025            if ( rem )
   \   00002E   E5..         MOV     A,?V0 + 2
   \   000030   607A         JZ      ??CrossCallReturnLabel_53
   1026            {
   1027              dstOff -= rem;
   \   000032   F5..         MOV     ?V0 + 8,A
   \   000034   C3           CLR     C
   \   000035   E5..         MOV     A,?V0 + 0
   \   000037   95..         SUBB    A,?V0 + 8
   \   000039   F5..         MOV     ?V0 + 0,A
   \   00003B   E5..         MOV     A,?V0 + 1
   \   00003D   9400         SUBB    A,#0x0
   \   00003F   F5..         MOV     ?V0 + 1,A
   1028              HalFlashRead(dstPg, dstOff, tmp, OSAL_NV_WORD_SIZE);
   \   000041                ; Setup parameters for call to function HalFlashRead
   \   000041   75..04       MOV     ?V0 + 8,#0x4
   \   000044   75..00       MOV     ?V0 + 9,#0x0
   \   000047   78..         MOV     R0,#?V0 + 8
   \   000049   12....       LCALL   ?PUSH_XSTACK_I_TWO
   \   00004C   7402         MOV     A,#0x2
   \   00004E   12....       LCALL   ?XSTACK_DISP0_8
   \   000051   AC82         MOV     R4,DPL
   \   000053   AD83         MOV     R5,DPH
   \   000055   AA..         MOV     R2,?V0 + 0
   \   000057   AB..         MOV     R3,?V0 + 1
   \   000059   A9..         MOV     R1,?V0 + 3
   \   00005B   12....       LCALL   ??HalFlashRead?relay
   \   00005E   7402         MOV     A,#0x2
   \   000060   12....       LCALL   ?DEALLOC_XSTACK8
   \                     ??xferBuf_0:
   \   000063   EE           MOV     A,R6
   \   000064   4F           ORL     A,R7
   \   000065   602F         JZ      ??xferBuf_1
   1029          
   1030              while ( (rem < OSAL_NV_WORD_SIZE) && len )
   1031              {
   1032                HalFlashRead(srcPg, srcOff, tmp+rem, 1);
   \   000067                ; Setup parameters for call to function HalFlashRead
   \   000067   75..01       MOV     ?V0 + 8,#0x1
   \   00006A   78..         MOV     R0,#?V0 + 8
   \   00006C   12....       LCALL   ?PUSH_XSTACK_I_TWO
   \   00006F   85....       MOV     ?V0 + 8,?V0 + 2
   \   000072   7402         MOV     A,#0x2
   \   000074   12....       LCALL   ?XSTACK_DISP0_8
   \   000077   12....       LCALL   ?Subroutine29 & 0xFFFF
   \                     ??CrossCallReturnLabel_50:
   \   00007A   12....       LCALL   ??HalFlashRead?relay
   \   00007D   7402         MOV     A,#0x2
   \   00007F   12....       LCALL   ?DEALLOC_XSTACK8
   1033                srcOff++;
   \   000082   12....       LCALL   ?Subroutine31 & 0xFFFF
   1034                rem++;
   \                     ??CrossCallReturnLabel_55:
   \   000085   05..         INC     ?V0 + 2
   1035                len--;
   \   000087   EE           MOV     A,R6
   \   000088   24FF         ADD     A,#-0x1
   \   00008A   1E           DEC     R6
   \   00008B   EF           MOV     A,R7
   \   00008C   34FF         ADDC    A,#-0x1
   \   00008E   FF           MOV     R7,A
   1036              }
   \   00008F   E5..         MOV     A,?V0 + 2
   \   000091   C3           CLR     C
   \   000092   9404         SUBB    A,#0x4
   \   000094   40CD         JC      ??xferBuf_0
   1037          
   1038              writeWord( dstPg, dstOff, tmp );
   \                     ??xferBuf_1:
   \   000096                ; Setup parameters for call to function writeWord
   \   000096   85..82       MOV     DPL,?XSP + 0
   \   000099   85..83       MOV     DPH,?XSP + 1
   \   00009C   AC82         MOV     R4,DPL
   \   00009E   AD83         MOV     R5,DPH
   \   0000A0   AA..         MOV     R2,?V0 + 0
   \   0000A2   AB..         MOV     R3,?V0 + 1
   \   0000A4   A9..         MOV     R1,?V0 + 3
   \   0000A6   12....       LCALL   ??writeWord?relay
   1039              dstOff += OSAL_NV_WORD_SIZE;
   \   0000A9   12....       LCALL   ?Subroutine30 & 0xFFFF
   1040            }
   1041          
   1042            rem = len % OSAL_NV_WORD_SIZE;
   \                     ??CrossCallReturnLabel_53:
   \   0000AC   EE           MOV     A,R6
   \   0000AD   5403         ANL     A,#0x3
   \   0000AF   F5..         MOV     ?V0 + 2,A
   1043            len /= OSAL_NV_WORD_SIZE;
   \   0000B1   8E..         MOV     ?V0 + 8,R6
   \   0000B3   8F..         MOV     ?V0 + 9,R7
   \   0000B5   7402         MOV     A,#0x2
   \   0000B7   78..         MOV     R0,#?V0 + 8
   \   0000B9   12....       LCALL   ?US_SHR
   \   0000BC   AE..         MOV     R6,?V0 + 8
   \   0000BE   AF..         MOV     R7,?V0 + 9
   \   0000C0   8044         SJMP    ??CrossCallReturnLabel_54
   1044          
   1045            while ( len-- )
   1046            {
   1047              HalFlashRead(srcPg, srcOff, tmp, OSAL_NV_WORD_SIZE);
   \                     ??xferBuf_2:
   \   0000C2                ; Setup parameters for call to function HalFlashRead
   \   0000C2   75..04       MOV     ?V0 + 8,#0x4
   \   0000C5   75..00       MOV     ?V0 + 9,#0x0
   \   0000C8   78..         MOV     R0,#?V0 + 8
   \   0000CA   12....       LCALL   ?PUSH_XSTACK_I_TWO
   \   0000CD   7402         MOV     A,#0x2
   \   0000CF   12....       LCALL   ?XSTACK_DISP0_8
   \   0000D2   AC82         MOV     R4,DPL
   \   0000D4   AD83         MOV     R5,DPH
   \   0000D6   AA..         MOV     R2,?V0 + 4
   \   0000D8   AB..         MOV     R3,?V0 + 5
   \   0000DA   A9..         MOV     R1,?V0 + 6
   \   0000DC   12....       LCALL   ??HalFlashRead?relay
   \   0000DF   7402         MOV     A,#0x2
   \   0000E1   12....       LCALL   ?DEALLOC_XSTACK8
   1048              srcOff += OSAL_NV_WORD_SIZE;
   \   0000E4   E5..         MOV     A,?V0 + 4
   \   0000E6   2404         ADD     A,#0x4
   \   0000E8   F5..         MOV     ?V0 + 4,A
   \   0000EA   E5..         MOV     A,?V0 + 5
   \   0000EC   3400         ADDC    A,#0x0
   \   0000EE   F5..         MOV     ?V0 + 5,A
   1049              writeWord( dstPg, dstOff, tmp );
   \   0000F0                ; Setup parameters for call to function writeWord
   \   0000F0   85..82       MOV     DPL,?XSP + 0
   \   0000F3   85..83       MOV     DPH,?XSP + 1
   \   0000F6   AC82         MOV     R4,DPL
   \   0000F8   AD83         MOV     R5,DPH
   \   0000FA   AA..         MOV     R2,?V0 + 0
   \   0000FC   AB..         MOV     R3,?V0 + 1
   \   0000FE   A9..         MOV     R1,?V0 + 3
   \   000100   12....       LCALL   ??writeWord?relay
   1050              dstOff += OSAL_NV_WORD_SIZE;
   \   000103   12....       LCALL   ?Subroutine30 & 0xFFFF
   1051            }
   \                     ??CrossCallReturnLabel_54:
   \   000106   EE           MOV     A,R6
   \   000107   F8           MOV     R0,A
   \   000108   EF           MOV     A,R7
   \   000109   F9           MOV     R1,A
   \   00010A   E8           MOV     A,R0
   \   00010B   24FF         ADD     A,#-0x1
   \   00010D   1E           DEC     R6
   \   00010E   E9           MOV     A,R1
   \   00010F   34FF         ADDC    A,#-0x1
   \   000111   FF           MOV     R7,A
   \   000112   E8           MOV     A,R0
   \   000113   49           ORL     A,R1
   \   000114   70AC         JNZ     ??xferBuf_2
   1052          
   1053            if ( rem )
   \   000116   E5..         MOV     A,?V0 + 2
   \   000118   6060         JZ      ??xferBuf_3
   1054            {
   1055              uint8 idx = 0;
   \   00011A   7E00         MOV     R6,#0x0
   1056              HalFlashRead(dstPg, dstOff, tmp, OSAL_NV_WORD_SIZE);
   \   00011C                ; Setup parameters for call to function HalFlashRead
   \   00011C   75..04       MOV     ?V0 + 8,#0x4
   \   00011F   8E..         MOV     ?V0 + 9,R6
   \   000121   78..         MOV     R0,#?V0 + 8
   \   000123   12....       LCALL   ?PUSH_XSTACK_I_TWO
   \   000126   7402         MOV     A,#0x2
   \   000128   12....       LCALL   ?XSTACK_DISP0_8
   \   00012B   AC82         MOV     R4,DPL
   \   00012D   AD83         MOV     R5,DPH
   \   00012F   AA..         MOV     R2,?V0 + 0
   \   000131   AB..         MOV     R3,?V0 + 1
   \   000133   A9..         MOV     R1,?V0 + 3
   \   000135   12....       LCALL   ??HalFlashRead?relay
   \   000138   7402         MOV     A,#0x2
   \   00013A   12....       LCALL   ?DEALLOC_XSTACK8
   \   00013D   801E         SJMP    ??xferBuf_4
   1057              while ( rem-- )
   1058              {
   1059                HalFlashRead(srcPg, srcOff, tmp+idx, 1);
   \                     ??xferBuf_5:
   \   00013F                ; Setup parameters for call to function HalFlashRead
   \   00013F   75..01       MOV     ?V0 + 8,#0x1
   \   000142   78..         MOV     R0,#?V0 + 8
   \   000144   12....       LCALL   ?PUSH_XSTACK_I_TWO
   \   000147   8E..         MOV     ?V0 + 8,R6
   \   000149   7402         MOV     A,#0x2
   \   00014B   12....       LCALL   ?XSTACK_DISP0_8
   \   00014E   12....       LCALL   ?Subroutine29 & 0xFFFF
   \                     ??CrossCallReturnLabel_51:
   \   000151   12....       LCALL   ??HalFlashRead?relay
   \   000154   7402         MOV     A,#0x2
   \   000156   12....       LCALL   ?DEALLOC_XSTACK8
   1060                srcOff++;
   \   000159   12....       LCALL   ?Subroutine31 & 0xFFFF
   1061                idx++;
   \                     ??CrossCallReturnLabel_56:
   \   00015C   0E           INC     R6
   1062              }
   \                     ??xferBuf_4:
   \   00015D   AF..         MOV     R7,?V0 + 2
   \   00015F   74FF         MOV     A,#-0x1
   \   000161   2F           ADD     A,R7
   \   000162   F5..         MOV     ?V0 + 2,A
   \   000164   04           INC     A
   \   000165   70D8         JNZ     ??xferBuf_5
   1063              writeWord( dstPg, dstOff, tmp );
   \   000167                ; Setup parameters for call to function writeWord
   \   000167   85..82       MOV     DPL,?XSP + 0
   \   00016A   85..83       MOV     DPH,?XSP + 1
   \   00016D   AC82         MOV     R4,DPL
   \   00016F   AD83         MOV     R5,DPH
   \   000171   AA..         MOV     R2,?V0 + 0
   \   000173   AB..         MOV     R3,?V0 + 1
   \   000175   A9..         MOV     R1,?V0 + 3
   \   000177   12....       LCALL   ??writeWord?relay
   1064            }
   1065          }
   \                     ??xferBuf_3:
   \   00017A   02....       LJMP    ?Subroutine6 & 0xFFFF

   \                                 In  segment BANKED_CODE, align 1, keep-with-next
   \                     ?Subroutine31:
   \   000000   E5..         MOV     A,?V0 + 4
   \   000002   2401         ADD     A,#0x1
   \   000004   F5..         MOV     ?V0 + 4,A
   \   000006   E5..         MOV     A,?V0 + 5
   \   000008   3400         ADDC    A,#0x0
   \   00000A   F5..         MOV     ?V0 + 5,A
   \   00000C   22           RET

   \                                 In  segment BANKED_CODE, align 1, keep-with-next
   \                     ?Subroutine29:
   \   000000   E582         MOV     A,DPL
   \   000002   25..         ADD     A,?V0 + 8
   \   000004   FC           MOV     R4,A
   \   000005   E583         MOV     A,DPH
   \   000007   3400         ADDC    A,#0x0
   \   000009   FD           MOV     R5,A
   \   00000A   AA..         MOV     R2,?V0 + 4
   \   00000C   AB..         MOV     R3,?V0 + 5
   \   00000E   A9..         MOV     R1,?V0 + 6
   \   000010   22           RET
   1066          
   1067          /*********************************************************************
   1068           * @fn      writeItem
   1069           *
   1070           * @brief   Writes an item header/data combo to the specified NV page.
   1071           *
   1072           * @param   pg - Valid NV Flash page.
   1073           * @param   id - Valid NV item Id.
   1074           * @param   len  - Byte count of the data to write.
   1075           * @param   buf  - The data to write. If NULL, no data/checksum write.
   1076           * @param   flag - TRUE if the checksum should be written, FALSE otherwise.
   1077           *
   1078           * @return  TRUE if header/data to write matches header/data read back, else FALSE.
   1079           */

   \                                 In  segment BANKED_CODE, align 1, keep-with-next
   1080          static uint8 writeItem( uint8 pg, uint16 id, uint16 len, void *buf, uint8 flag )
   \                     writeItem:
   1081          {
   \   000000   74EE         MOV     A,#-0x12
   \   000002   12....       LCALL   ?BANKED_ENTER_XDATA
   \   000005                ; Saved register size: 18
   \   000005                ; Auto size: 8
   \   000005   74F8         MOV     A,#-0x8
   \   000007   12....       LCALL   ?ALLOC_XSTACK8
   \   00000A   89..         MOV     ?V0 + 2,R1
   \   00000C   8A..         MOV     ?V0 + 4,R2
   \   00000E   8B..         MOV     ?V0 + 5,R3
   \   000010   8C..         MOV     ?V0 + 0,R4
   \   000012   8D..         MOV     ?V0 + 1,R5
   \   000014   741C         MOV     A,#0x1c
   \   000016   12....       LCALL   ?XSTACK_DISP0_8
   \   000019   E0           MOVX    A,@DPTR
   \   00001A   F5..         MOV     ?V0 + 6,A
   1082            uint16 offset = pgOff[pg-OSAL_NV_PAGE_BEG];
   \   00001C   E9           MOV     A,R1
   \   00001D   12....       LCALL   ?Subroutine26 & 0xFFFF
   \                     ??CrossCallReturnLabel_47:
   \   000020   E0           MOVX    A,@DPTR
   \   000021   FE           MOV     R6,A
   \   000022   A3           INC     DPTR
   \   000023   E0           MOVX    A,@DPTR
   \   000024   FF           MOV     R7,A
   1083            uint8 rtrn = FALSE;
   \   000025   75..00       MOV     ?V0 + 3,#0x0
   1084            osalNvHdr_t hdr;
   1085          
   1086            hdr.id = id;
   \   000028   85..82       MOV     DPL,?XSP + 0
   \   00002B   85..83       MOV     DPH,?XSP + 1
   \   00002E   EA           MOV     A,R2
   \   00002F   F0           MOVX    @DPTR,A
   \   000030   A3           INC     DPTR
   \   000031   EB           MOV     A,R3
   \   000032   F0           MOVX    @DPTR,A
   1087            hdr.len = len;
   \   000033   7402         MOV     A,#0x2
   \   000035   12....       LCALL   ?XSTACK_DISP0_8
   \   000038   EC           MOV     A,R4
   \   000039   F0           MOVX    @DPTR,A
   \   00003A   A3           INC     DPTR
   \   00003B   ED           MOV     A,R5
   \   00003C   12....       LCALL   ?Subroutine11 & 0xFFFF
   1088          
   1089            writeWord( pg, offset, (uint8 *)&hdr );
   \                     ??CrossCallReturnLabel_5:
   \   00003F   EE           MOV     A,R6
   \   000040   FA           MOV     R2,A
   \   000041   EF           MOV     A,R7
   \   000042   FB           MOV     R3,A
   \   000043   A9..         MOV     R1,?V0 + 2
   \   000045   12....       LCALL   ??writeWord?relay
   1090            HalFlashRead(pg, offset, (uint8 *)(&hdr), OSAL_NV_HDR_SIZE);
   \   000048                ; Setup parameters for call to function HalFlashRead
   \   000048   75..08       MOV     ?V0 + 8,#0x8
   \   00004B   75..00       MOV     ?V0 + 9,#0x0
   \   00004E   78..         MOV     R0,#?V0 + 8
   \   000050   12....       LCALL   ?PUSH_XSTACK_I_TWO
   \   000053   7402         MOV     A,#0x2
   \   000055   12....       LCALL   ?XSTACK_DISP0_8
   \   000058   AC82         MOV     R4,DPL
   \   00005A   AD83         MOV     R5,DPH
   \   00005C   EE           MOV     A,R6
   \   00005D   FA           MOV     R2,A
   \   00005E   EF           MOV     A,R7
   \   00005F   FB           MOV     R3,A
   \   000060   A9..         MOV     R1,?V0 + 2
   \   000062   12....       LCALL   ??HalFlashRead?relay
   \   000065   7402         MOV     A,#0x2
   \   000067   12....       LCALL   ?DEALLOC_XSTACK8
   1091          
   1092            if ( (hdr.id == id) && (hdr.len == len) )
   \   00006A   85..82       MOV     DPL,?XSP + 0
   \   00006D   85..83       MOV     DPH,?XSP + 1
   \   000070   E0           MOVX    A,@DPTR
   \   000071   65..         XRL     A,?V0 + 4
   \   000073   7004         JNZ     ??writeItem_0
   \   000075   A3           INC     DPTR
   \   000076   E0           MOVX    A,@DPTR
   \   000077   65..         XRL     A,?V0 + 5
   \                     ??writeItem_0:
   \   000079   6003         JZ      $+5
   \   00007B   02....       LJMP    ??writeItem_1 & 0xFFFF
   \   00007E   7402         MOV     A,#0x2
   \   000080   12....       LCALL   ?XSTACK_DISP0_8
   \   000083   E0           MOVX    A,@DPTR
   \   000084   65..         XRL     A,?V0 + 0
   \   000086   7004         JNZ     ??writeItem_2
   \   000088   A3           INC     DPTR
   \   000089   E0           MOVX    A,@DPTR
   \   00008A   65..         XRL     A,?V0 + 1
   \                     ??writeItem_2:
   \   00008C   6003         JZ      $+5
   \   00008E   02....       LJMP    ??writeItem_1 & 0xFFFF
   1093            {
   1094              if ( flag )
   \   000091   E5..         MOV     A,?V0 + 6
   \   000093   7003         JNZ     $+5
   \   000095   02....       LJMP    ??writeItem_3 & 0xFFFF
   \   000098   741A         MOV     A,#0x1a
   \   00009A   12....       LCALL   ?XSTACK_DISP0_8
   \   00009D   12....       LCALL   ?Subroutine22 & 0xFFFF
   1095              {
   1096                hdr.chk = calcChkB( len, buf );
   \                     ??CrossCallReturnLabel_34:
   \   0000A0   85..82       MOV     DPL,?V0 + 4
   \   0000A3   F583         MOV     DPH,A
   \   0000A5   A8..         MOV     R0,?V0 + 0
   \   0000A7   A9..         MOV     R1,?V0 + 1
   \   0000A9   E8           MOV     A,R0
   \   0000AA   5403         ANL     A,#0x3
   \   0000AC   F5..         MOV     ?V0 + 6,A
   \   0000AE   E582         MOV     A,DPL
   \   0000B0   4583         ORL     A,DPH
   \   0000B2   7015         JNZ     ??writeItem_4
   \   0000B4   E8           MOV     A,R0
   \   0000B5   75F0FF       MOV     B,#-0x1
   \   0000B8   A4           MUL     AB
   \   0000B9   F8           MOV     R0,A
   \   0000BA   AAF0         MOV     R2,B
   \   0000BC   75F0FF       MOV     B,#-0x1
   \   0000BF   E9           MOV     A,R1
   \   0000C0   A4           MUL     AB
   \   0000C1   2A           ADD     A,R2
   \   0000C2   F9           MOV     R1,A
   \   0000C3   E8           MOV     A,R0
   \   0000C4   FA           MOV     R2,A
   \   0000C5   E9           MOV     A,R1
   \   0000C6   FB           MOV     R3,A
   \   0000C7   8020         SJMP    ??writeItem_5
   \                     ??writeItem_4:
   \   0000C9   7A00         MOV     R2,#0x0
   \   0000CB   7B00         MOV     R3,#0x0
   \   0000CD   800A         SJMP    ??writeItem_6
   \                     ??writeItem_7:
   \   0000CF   E0           MOVX    A,@DPTR
   \   0000D0   FC           MOV     R4,A
   \   0000D1   EA           MOV     A,R2
   \   0000D2   2C           ADD     A,R4
   \   0000D3   FA           MOV     R2,A
   \   0000D4   EB           MOV     A,R3
   \   0000D5   3400         ADDC    A,#0x0
   \   0000D7   FB           MOV     R3,A
   \   0000D8   A3           INC     DPTR
   \                     ??writeItem_6:
   \   0000D9   E8           MOV     A,R0
   \   0000DA   FC           MOV     R4,A
   \   0000DB   E9           MOV     A,R1
   \   0000DC   FD           MOV     R5,A
   \   0000DD   EC           MOV     A,R4
   \   0000DE   24FF         ADD     A,#-0x1
   \   0000E0   18           DEC     R0
   \   0000E1   ED           MOV     A,R5
   \   0000E2   34FF         ADDC    A,#-0x1
   \   0000E4   F9           MOV     R1,A
   \   0000E5   EC           MOV     A,R4
   \   0000E6   4D           ORL     A,R5
   \   0000E7   70E6         JNZ     ??writeItem_7
   \                     ??writeItem_5:
   \   0000E9   E5..         MOV     A,?V0 + 6
   \   0000EB   601E         JZ      ??writeItem_8
   \   0000ED   7404         MOV     A,#0x4
   \   0000EF   C3           CLR     C
   \   0000F0   95..         SUBB    A,?V0 + 6
   \   0000F2   F8           MOV     R0,A
   \   0000F3   95E0         SUBB    A,0xE0 /* A   */
   \   0000F5   F9           MOV     R1,A
   \   0000F6   E8           MOV     A,R0
   \   0000F7   75F0FF       MOV     B,#-0x1
   \   0000FA   A4           MUL     AB
   \   0000FB   F8           MOV     R0,A
   \   0000FC   ACF0         MOV     R4,B
   \   0000FE   75F0FF       MOV     B,#-0x1
   \   000101   E9           MOV     A,R1
   \   000102   A4           MUL     AB
   \   000103   2C           ADD     A,R4
   \   000104   F9           MOV     R1,A
   \   000105   EA           MOV     A,R2
   \   000106   28           ADD     A,R0
   \   000107   FA           MOV     R2,A
   \   000108   EB           MOV     A,R3
   \   000109   39           ADDC    A,R1
   \   00010A   FB           MOV     R3,A
   \                     ??writeItem_8:
   \   00010B   7404         MOV     A,#0x4
   \   00010D   12....       LCALL   ?XSTACK_DISP0_8
   \   000110   EA           MOV     A,R2
   \   000111   F0           MOVX    @DPTR,A
   \   000112   A3           INC     DPTR
   \   000113   EB           MOV     A,R3
   \   000114   F0           MOVX    @DPTR,A
   1097          
   1098                offset += OSAL_NV_HDR_SIZE;
   \   000115   EE           MOV     A,R6
   \   000116   2408         ADD     A,#0x8
   \   000118   FE           MOV     R6,A
   \   000119   EF           MOV     A,R7
   \   00011A   3400         ADDC    A,#0x0
   \   00011C   FF           MOV     R7,A
   1099                if ( buf != NULL )
   \   00011D   E5..         MOV     A,?V0 + 4
   \   00011F   45..         ORL     A,?V0 + 5
   \   000121   6017         JZ      ??writeItem_9
   1100                {
   1101                  writeBuf( pg, offset, len, buf );
   \   000123                ; Setup parameters for call to function writeBuf
   \   000123   78..         MOV     R0,#?V0 + 4
   \   000125   12....       LCALL   ?PUSH_XSTACK_I_TWO
   \   000128   AC..         MOV     R4,?V0 + 0
   \   00012A   AD..         MOV     R5,?V0 + 1
   \   00012C   EE           MOV     A,R6
   \   00012D   FA           MOV     R2,A
   \   00012E   EF           MOV     A,R7
   \   00012F   FB           MOV     R3,A
   \   000130   A9..         MOV     R1,?V0 + 2
   \   000132   12....       LCALL   ??writeBuf?relay
   \   000135   7402         MOV     A,#0x2
   \   000137   12....       LCALL   ?DEALLOC_XSTACK8
   1102                }
   1103          
   1104                if ( hdr.chk == calcChkF( pg, offset, len ) )
   \                     ??writeItem_9:
   \   00013A                ; Setup parameters for call to function calcChkF
   \   00013A   AC..         MOV     R4,?V0 + 0
   \   00013C   AD..         MOV     R5,?V0 + 1
   \   00013E   EE           MOV     A,R6
   \   00013F   FA           MOV     R2,A
   \   000140   EF           MOV     A,R7
   \   000141   FB           MOV     R3,A
   \   000142   A9..         MOV     R1,?V0 + 2
   \   000144   12....       LCALL   ??calcChkF?relay
   \   000147   8A..         MOV     ?V0 + 0,R2
   \   000149   8B..         MOV     ?V0 + 1,R3
   \   00014B   A8..         MOV     R0,?V0 + 0
   \   00014D   A9..         MOV     R1,?V0 + 1
   \   00014F   7404         MOV     A,#0x4
   \   000151   12....       LCALL   ?XSTACK_DISP0_8
   \   000154   E0           MOVX    A,@DPTR
   \   000155   68           XRL     A,R0
   \   000156   7003         JNZ     ??writeItem_10
   \   000158   A3           INC     DPTR
   \   000159   E0           MOVX    A,@DPTR
   \   00015A   69           XRL     A,R1
   \                     ??writeItem_10:
   \   00015B   7030         JNZ     ??writeItem_11
   1105                {
   1106                  if ( hdr.chk == setChk( pg, offset, hdr.chk ) )
   \   00015D                ; Setup parameters for call to function setChk
   \   00015D   7404         MOV     A,#0x4
   \   00015F   12....       LCALL   ?XSTACK_DISP0_8
   \   000162   12....       LCALL   ?Subroutine20 & 0xFFFF
   \                     ??CrossCallReturnLabel_26:
   \   000165   12....       LCALL   ??setChk?relay
   \   000168   8A..         MOV     ?V0 + 0,R2
   \   00016A   8B..         MOV     ?V0 + 1,R3
   \   00016C   A8..         MOV     R0,?V0 + 0
   \   00016E   A9..         MOV     R1,?V0 + 1
   \   000170   7404         MOV     A,#0x4
   \   000172   12....       LCALL   ?XSTACK_DISP0_8
   \   000175   E0           MOVX    A,@DPTR
   \   000176   68           XRL     A,R0
   \   000177   7003         JNZ     ??writeItem_12
   \   000179   A3           INC     DPTR
   \   00017A   E0           MOVX    A,@DPTR
   \   00017B   69           XRL     A,R1
   \                     ??writeItem_12:
   \   00017C   700F         JNZ     ??writeItem_11
   1107                  {
   1108                    hotItemUpdate(pg, offset, hdr.id);
   \   00017E                ; Setup parameters for call to function hotItemUpdate
   \   00017E   85..82       MOV     DPL,?XSP + 0
   \   000181   85..83       MOV     DPH,?XSP + 1
   \   000184   12....       LCALL   ?Subroutine20 & 0xFFFF
   \                     ??CrossCallReturnLabel_27:
   \   000187   12....       LCALL   ??hotItemUpdate?relay
   1109                    rtrn = TRUE;
   1110                  }
   1111                }
   1112              }
   1113              else
   1114              {
   1115                rtrn = TRUE;
   \                     ??writeItem_3:
   \   00018A   75..01       MOV     ?V0 + 3,#0x1
   1116              }
   1117          
   1118              len = OSAL_NV_ITEM_SIZE( hdr.len );
   \                     ??writeItem_11:
   \   00018D   7402         MOV     A,#0x2
   \   00018F   12....       LCALL   ?XSTACK_DISP0_8
   \   000192   C3           CLR     C
   \   000193   E0           MOVX    A,@DPTR
   \   000194   94F4         SUBB    A,#-0xc
   \   000196   A3           INC     DPTR
   \   000197   E0           MOVX    A,@DPTR
   \   000198   94FF         SUBB    A,#-0x1
   \   00019A   4008         JC      ??writeItem_13
   \   00019C   75..FC       MOV     ?V0 + 0,#-0x4
   \   00019F   75..FF       MOV     ?V0 + 1,#-0x1
   \   0001A2   8047         SJMP    ??CrossCallReturnLabel_81
   \                     ??writeItem_13:
   \   0001A4   7402         MOV     A,#0x2
   \   0001A6   12....       LCALL   ?XSTACK_DISP0_8
   \   0001A9   12....       LCALL   ?Subroutine14 & 0xFFFF
   1119            }
   \                     ??CrossCallReturnLabel_9:
   \   0001AC   803D         SJMP    ??CrossCallReturnLabel_81
   1120            else
   1121            {
   1122              len = OSAL_NV_ITEM_SIZE( hdr.len );
   \                     ??writeItem_1:
   \   0001AE   7402         MOV     A,#0x2
   \   0001B0   12....       LCALL   ?XSTACK_DISP0_8
   \   0001B3   C3           CLR     C
   \   0001B4   E0           MOVX    A,@DPTR
   \   0001B5   94F4         SUBB    A,#-0xc
   \   0001B7   A3           INC     DPTR
   \   0001B8   E0           MOVX    A,@DPTR
   \   0001B9   94FF         SUBB    A,#-0x1
   \   0001BB   4008         JC      ??writeItem_14
   \   0001BD   75..FC       MOV     ?V0 + 0,#-0x4
   \   0001C0   75..FF       MOV     ?V0 + 1,#-0x1
   \   0001C3   8008         SJMP    ??CrossCallReturnLabel_10
   \                     ??writeItem_14:
   \   0001C5   7402         MOV     A,#0x2
   \   0001C7   12....       LCALL   ?XSTACK_DISP0_8
   \   0001CA   12....       LCALL   ?Subroutine14 & 0xFFFF
   1123          
   1124              if (len > (OSAL_NV_PAGE_SIZE - pgOff[pg - OSAL_NV_PAGE_BEG]))
   \                     ??CrossCallReturnLabel_10:
   \   0001CD   12....       LCALL   ?Subroutine18 & 0xFFFF
   \                     ??CrossCallReturnLabel_21:
   \   0001D0   F8           MOV     R0,A
   \   0001D1   7408         MOV     A,#0x8
   \   0001D3   99           SUBB    A,R1
   \   0001D4   F9           MOV     R1,A
   \   0001D5   C3           CLR     C
   \   0001D6   E8           MOV     A,R0
   \   0001D7   95..         SUBB    A,?V0 + 0
   \   0001D9   E9           MOV     A,R1
   \   0001DA   95..         SUBB    A,?V0 + 1
   \   0001DC   500A         JNC     ??writeItem_15
   1125              {
   1126                len = (OSAL_NV_PAGE_SIZE - pgOff[pg - OSAL_NV_PAGE_BEG]);
   \   0001DE   12....       LCALL   ?Subroutine18 & 0xFFFF
   1127              }
   \                     ??CrossCallReturnLabel_22:
   \   0001E1   F5..         MOV     ?V0 + 0,A
   \   0001E3   7408         MOV     A,#0x8
   \   0001E5   99           SUBB    A,R1
   \   0001E6   F5..         MOV     ?V0 + 1,A
   1128          
   1129              pgLost[pg - OSAL_NV_PAGE_BEG] += len;
   \                     ??writeItem_15:
   \   0001E8   12....       LCALL   ?Subroutine13 & 0xFFFF
   1130            }
   1131            pgOff[pg - OSAL_NV_PAGE_BEG] += len;
   \                     ??CrossCallReturnLabel_81:
   \   0001EB   E5..         MOV     A,?V0 + 2
   \   0001ED   C3           CLR     C
   \   0001EE   33           RLC     A
   \   0001EF   F8           MOV     R0,A
   \   0001F0   E4           CLR     A
   \   0001F1   33           RLC     A
   \   0001F2   F9           MOV     R1,A
   \   0001F3   74..         MOV     A,#(pgOff + 14) & 0xff
   \   0001F5   28           ADD     A,R0
   \   0001F6   F582         MOV     DPL,A
   \   0001F8   74..         MOV     A,#((pgOff - 242) >> 8) & 0xff
   \   0001FA   12....       LCALL   ??Subroutine45_0 & 0xFFFF
   1132          
   1133            return rtrn;
   \                     ??CrossCallReturnLabel_79:
   \   0001FD   A9..         MOV     R1,?V0 + 3
   \   0001FF   02....       LJMP    ?Subroutine2 & 0xFFFF
   1134          }

   \                                 In  segment BANKED_CODE, align 1, keep-with-next
   \                     ?Subroutine20:
   \   000000   E0           MOVX    A,@DPTR
   \   000001   FC           MOV     R4,A
   \   000002   A3           INC     DPTR
   \   000003   E0           MOVX    A,@DPTR
   \   000004   FD           MOV     R5,A
   \   000005   EE           MOV     A,R6
   \   000006   FA           MOV     R2,A
   \   000007   EF           MOV     A,R7
   \   000008   FB           MOV     R3,A
   \   000009   A9..         MOV     R1,?V0 + 2
   \   00000B   22           RET
   1135          
   1136          /*********************************************************************
   1137           * @fn      hotItem
   1138           *
   1139           * @brief   Look for the parameter 'id' in the hot items array.
   1140           *
   1141           * @param   id - A valid NV item Id.
   1142           *
   1143           * @return  A valid index into the hot items if the item is hot; OSAL_NV_MAX_HOT if not.
   1144           */

   \                                 In  segment BANKED_CODE, align 1, keep-with-next
   1145          static uint8 hotItem(uint16 id)
   \                     hotItem:
   1146          {
   \   000000   C082         PUSH    DPL
   \   000002   C083         PUSH    DPH
   \   000004                ; Saved register size: 2
   \   000004                ; Auto size: 0
   1147            uint8 hotIdx;
   1148          
   1149            for (hotIdx = 0; hotIdx < OSAL_NV_MAX_HOT; hotIdx++)
   \   000004   7900         MOV     R1,#0x0
   1150            {
   1151              if (hotIds[hotIdx] == id)
   \                     ??hotItem_0:
   \   000006   E9           MOV     A,R1
   \   000007   C3           CLR     C
   \   000008   33           RLC     A
   \   000009   FC           MOV     R4,A
   \   00000A   E4           CLR     A
   \   00000B   33           RLC     A
   \   00000C   FD           MOV     R5,A
   \   00000D   74..         MOV     A,#hotIds & 0xff
   \   00000F   2C           ADD     A,R4
   \   000010   F582         MOV     DPL,A
   \   000012   74..         MOV     A,#(hotIds >> 8) & 0xff
   \   000014   3D           ADDC    A,R5
   \   000015   F583         MOV     DPH,A
   \   000017   E0           MOVX    A,@DPTR
   \   000018   6A           XRL     A,R2
   \   000019   7003         JNZ     ??hotItem_1
   \   00001B   A3           INC     DPTR
   \   00001C   E0           MOVX    A,@DPTR
   \   00001D   6B           XRL     A,R3
   \                     ??hotItem_1:
   \   00001E   6007         JZ      ??hotItem_2
   1152              {
   1153                break;
   1154              }
   1155            }
   \   000020   09           INC     R1
   \   000021   E9           MOV     A,R1
   \   000022   C3           CLR     C
   \   000023   9403         SUBB    A,#0x3
   \   000025   40DF         JC      ??hotItem_0
   1156          
   1157            return hotIdx;
   \                     ??hotItem_2:
   \   000027                REQUIRE ?Subroutine3
   \   000027                ; // Fall through to label ?Subroutine3
   1158          }

   \                                 In  segment BANKED_CODE, align 1, keep-with-next
   \                     ?Subroutine3:
   \   000000   D083         POP     DPH
   \   000002   D082         POP     DPL
   \   000004   02....       LJMP    ?BRET
   1159          
   1160          /*********************************************************************
   1161           * @fn      hotItemUpdate
   1162           *
   1163           * @brief   If the parameter 'id' is a hot item, update the corresponding hot item data.
   1164           *
   1165           * @param   pg - The new NV page corresponding to the hot item.
   1166           * @param   off - The new NV page offset corresponding to the hot item.
   1167           * @param   id - A valid NV item Id.
   1168           *
   1169           * @return  none
   1170           */

   \                                 In  segment BANKED_CODE, align 1, keep-with-next
   1171          static void hotItemUpdate(uint8 pg, uint16 off, uint16 id)
   \                     hotItemUpdate:
   1172          {
   \   000000   74F6         MOV     A,#-0xa
   \   000002   12....       LCALL   ?BANKED_ENTER_XDATA
   \   000005                ; Saved register size: 10
   \   000005                ; Auto size: 0
   \   000005   E9           MOV     A,R1
   \   000006   FE           MOV     R6,A
   \   000007   8A..         MOV     ?V0 + 0,R2
   \   000009   8B..         MOV     ?V0 + 1,R3
   \   00000B   EC           MOV     A,R4
   \   00000C   FA           MOV     R2,A
   \   00000D   ED           MOV     A,R5
   \   00000E   FB           MOV     R3,A
   1173            uint8 hotIdx = hotItem(id);
   \   00000F                ; Setup parameters for call to function hotItem
   \   00000F   12....       LCALL   ??hotItem?relay
   \   000012   E9           MOV     A,R1
   \   000013   F8           MOV     R0,A
   1174          
   1175            if (hotIdx < OSAL_NV_MAX_HOT)
   \   000014   C3           CLR     C
   \   000015   9403         SUBB    A,#0x3
   \   000017   500E         JNC     ??hotItemUpdate_0
   1176            {
   1177              {
   1178                hotPg[hotIdx] = pg;
   \   000019   12....       LCALL   ?Subroutine28 & 0xFFFF
   1179                hotOff[hotIdx] = off;
   1180              }
   1181            }
   \                     ??CrossCallReturnLabel_48:
   \   00001C   EE           MOV     A,R6
   \   00001D   12....       LCALL   ?Subroutine9 & 0xFFFF
   \                     ??CrossCallReturnLabel_0:
   \   000020   E5..         MOV     A,?V0 + 0
   \   000022   F0           MOVX    @DPTR,A
   \   000023   A3           INC     DPTR
   \   000024   E5..         MOV     A,?V0 + 1
   \   000026   F0           MOVX    @DPTR,A
   1182          }
   \                     ??hotItemUpdate_0:
   \   000027                REQUIRE ?Subroutine4
   \   000027                ; // Fall through to label ?Subroutine4

   \                                 In  segment BANKED_CODE, align 1, keep-with-next
   \                     ?Subroutine4:
   \   000000   7F02         MOV     R7,#0x2
   \   000002   02....       LJMP    ?BANKED_LEAVE_XDATA

   \                                 In  segment BANKED_CODE, align 1, keep-with-next
   \                     ?Subroutine28:
   \   000000   74..         MOV     A,#hotPg & 0xff
   \   000002   28           ADD     A,R0
   \   000003   F582         MOV     DPL,A
   \   000005   74..         MOV     A,#(hotPg >> 8) & 0xff
   \   000007   3400         ADDC    A,#0x0
   \   000009   F583         MOV     DPH,A
   \   00000B   22           RET

   \                                 In  segment BANKED_CODE, align 1, keep-with-next
   \                     ?Subroutine9:
   \   000000   F0           MOVX    @DPTR,A
   \   000001   E8           MOV     A,R0
   \   000002   12....       LCALL   ?Subroutine39 & 0xFFFF
   \                     ??CrossCallReturnLabel_64:
   \   000005   22           RET

   \                                 In  segment BANKED_CODE, align 1, keep-with-next
   \                     ?Subroutine39:
   \   000000   C3           CLR     C
   \   000001   33           RLC     A
   \   000002   F8           MOV     R0,A
   \   000003   E4           CLR     A
   \   000004   33           RLC     A
   \   000005   F9           MOV     R1,A
   \   000006   74..         MOV     A,#hotOff & 0xff
   \   000008   28           ADD     A,R0
   \   000009   F582         MOV     DPL,A
   \   00000B   74..         MOV     A,#(hotOff >> 8) & 0xff
   \   00000D   39           ADDC    A,R1
   \   00000E   F583         MOV     DPH,A
   \   000010   22           RET
   1183          
   1184          /*********************************************************************
   1185           * @fn      osal_nv_init
   1186           *
   1187           * @brief   Initialize NV service.
   1188           *
   1189           * @param   p - Not used.
   1190           *
   1191           * @return  none
   1192           */

   \                                 In  segment BANKED_CODE, align 1, keep-with-next
   1193          void osal_nv_init( void *p )
   \                     osal_nv_init:
   1194          {
   \   000000   C082         PUSH    DPL
   \   000002   C083         PUSH    DPH
   \   000004                ; Saved register size: 2
   \   000004                ; Auto size: 0
   1195            (void)p;  // Suppress Lint warning.
   1196            (void)initNV();  // Always returns TRUE after pages have been erased.
   \   000004                ; Setup parameters for call to function initNV
   \   000004   12....       LCALL   ??initNV?relay
   1197          }
   \   000007   80..         SJMP    ?Subroutine3
   1198          
   1199          /*********************************************************************
   1200           * @fn      osal_nv_item_init
   1201           *
   1202           * @brief   If the NV item does not already exist, it is created and
   1203           *          initialized with the data passed to the function, if any.
   1204           *          This function must be called before calling osal_nv_read() or
   1205           *          osal_nv_write().
   1206           *
   1207           * @param   id  - Valid NV item Id.
   1208           * @param   len - Item length.
   1209           * @param  *buf - Pointer to item initalization data. Set to NULL if none.
   1210           *
   1211           * @return  NV_ITEM_UNINIT - Id did not exist and was created successfully.
   1212           *          SUCCESS        - Id already existed, no action taken.
   1213           *          NV_OPER_FAILED - Failure to find or create Id.
   1214           */

   \                                 In  segment BANKED_CODE, align 1, keep-with-next
   1215          uint8 osal_nv_item_init( uint16 id, uint16 len, void *buf )
   \                     osal_nv_item_init:
   1216          {
   \   000000   74F2         MOV     A,#-0xe
   \   000002   12....       LCALL   ?BANKED_ENTER_XDATA
   \   000005                ; Saved register size: 14
   \   000005                ; Auto size: 0
   \   000005   EA           MOV     A,R2
   \   000006   FE           MOV     R6,A
   \   000007   EB           MOV     A,R3
   \   000008   FF           MOV     R7,A
   \   000009   8C..         MOV     ?V0 + 0,R4
   \   00000B   8D..         MOV     ?V0 + 1,R5
   \   00000D   740E         MOV     A,#0xe
   \   00000F   12....       LCALL   ?XSTACK_DISP0_8
   \   000012   E0           MOVX    A,@DPTR
   \   000013   F5..         MOV     ?V0 + 2,A
   \   000015   A3           INC     DPTR
   \   000016   E0           MOVX    A,@DPTR
   \   000017   F5..         MOV     ?V0 + 3,A
   1217            uint16 offset;
   1218          
   1219            if ( !OSAL_NV_CHECK_BUS_VOLTAGE )
   \   000019                ; Setup parameters for call to function HalAdcCheckVdd
   \   000019   794E         MOV     R1,#0x4e
   \   00001B   12....       LCALL   ??HalAdcCheckVdd?relay
   \   00001E   E9           MOV     A,R1
   \   00001F   6039         JZ      ??osal_nv_item_init_0
   1220            {
   1221              return NV_OPER_FAILED;
   1222            }
   1223            else if ((offset = findItem(id)) != OSAL_NV_ITEM_NULL)
   \   000021                ; Setup parameters for call to function findItem
   \   000021   EE           MOV     A,R6
   \   000022   FA           MOV     R2,A
   \   000023   EF           MOV     A,R7
   \   000024   FB           MOV     R3,A
   \   000025   12....       LCALL   ??findItem?relay
   \   000028   EA           MOV     A,R2
   \   000029   4B           ORL     A,R3
   \   00002A   6010         JZ      ??osal_nv_item_init_1
   1224            {
   1225              // Re-populate the NV hot item data if the corresponding items are already established.
   1226              hotItemUpdate(findPg, offset, id);
   \   00002C                ; Setup parameters for call to function hotItemUpdate
   \   00002C   EE           MOV     A,R6
   \   00002D   FC           MOV     R4,A
   \   00002E   EF           MOV     A,R7
   \   00002F   FD           MOV     R5,A
   \   000030   90....       MOV     DPTR,#findPg
   \   000033   E0           MOVX    A,@DPTR
   \   000034   F9           MOV     R1,A
   \   000035   12....       LCALL   ??hotItemUpdate?relay
   1227          
   1228              return SUCCESS;
   \   000038   7900         MOV     R1,#0x0
   \   00003A   8020         SJMP    ??osal_nv_item_init_2
   1229            }
   1230            else if ( initItem( TRUE, id, len, buf ) != OSAL_NV_PAGE_NULL )
   \                     ??osal_nv_item_init_1:
   \   00003C                ; Setup parameters for call to function initItem
   \   00003C   78..         MOV     R0,#?V0 + 2
   \   00003E   12....       LCALL   ?PUSH_XSTACK_I_TWO
   \   000041   AC..         MOV     R4,?V0 + 0
   \   000043   AD..         MOV     R5,?V0 + 1
   \   000045   EE           MOV     A,R6
   \   000046   FA           MOV     R2,A
   \   000047   EF           MOV     A,R7
   \   000048   FB           MOV     R3,A
   \   000049   7901         MOV     R1,#0x1
   \   00004B   12....       LCALL   ??initItem?relay
   \   00004E   7402         MOV     A,#0x2
   \   000050   12....       LCALL   ?DEALLOC_XSTACK8
   \   000053   E9           MOV     A,R1
   \   000054   6004         JZ      ??osal_nv_item_init_0
   1231            {
   1232              return NV_ITEM_UNINIT;
   \   000056   7909         MOV     R1,#0x9
   \   000058   8002         SJMP    ??osal_nv_item_init_2
   1233            }
   1234            else
   1235            {
   1236              return NV_OPER_FAILED;
   \                     ??osal_nv_item_init_0:
   \   00005A   790A         MOV     R1,#0xa
   1237            }
   \                     ??osal_nv_item_init_2:
   \   00005C                REQUIRE ?Subroutine5
   \   00005C                ; // Fall through to label ?Subroutine5
   1238          }

   \                                 In  segment BANKED_CODE, align 1, keep-with-next
   \                     ?Subroutine5:
   \   000000   7F06         MOV     R7,#0x6
   \   000002   02....       LJMP    ?BANKED_LEAVE_XDATA
   1239          
   1240          /*********************************************************************
   1241           * @fn      osal_nv_item_len
   1242           *
   1243           * @brief   Get the data length of the item stored in NV memory.
   1244           *
   1245           * @param   id  - Valid NV item Id.
   1246           *
   1247           * @return  Item length, if found; zero otherwise.
   1248           */

   \                                 In  segment BANKED_CODE, align 1, keep-with-next
   1249          uint16 osal_nv_item_len( uint16 id )
   \                     osal_nv_item_len:
   1250          {
   \   000000   74F6         MOV     A,#-0xa
   \   000002   12....       LCALL   ?BANKED_ENTER_XDATA
   \   000005                ; Saved register size: 10
   \   000005                ; Auto size: 8
   \   000005   74F8         MOV     A,#-0x8
   \   000007   12....       LCALL   ?ALLOC_XSTACK8
   \   00000A   EA           MOV     A,R2
   \   00000B   FE           MOV     R6,A
   \   00000C   EB           MOV     A,R3
   \   00000D   FF           MOV     R7,A
   1251            osalNvHdr_t hdr;
   1252            uint16 offset;
   1253            uint8 hotIdx;
   1254          
   1255            if ((hotIdx = hotItem(id)) < OSAL_NV_MAX_HOT)
   \   00000E                ; Setup parameters for call to function hotItem
   \   00000E   12....       LCALL   ??hotItem?relay
   \   000011   E9           MOV     A,R1
   \   000012   F8           MOV     R0,A
   \   000013   C3           CLR     C
   \   000014   9403         SUBB    A,#0x3
   \   000016   5046         JNC     ??osal_nv_item_len_0
   1256            {
   1257              findPg = hotPg[hotIdx];
   \   000018   12....       LCALL   ?Subroutine28 & 0xFFFF
   1258              offset = hotOff[hotIdx];
   1259            }
   \                     ??CrossCallReturnLabel_49:
   \   00001B   E0           MOVX    A,@DPTR
   \   00001C   90....       MOV     DPTR,#findPg
   \   00001F   12....       LCALL   ?Subroutine9 & 0xFFFF
   \                     ??CrossCallReturnLabel_1:
   \   000022   12....       LCALL   ?Subroutine21 & 0xFFFF
   1260            else if ((offset = findItem(id)) == OSAL_NV_ITEM_NULL)
   1261            {
   1262              return 0;
   1263            }
   1264          
   1265            HalFlashRead(findPg, (offset - OSAL_NV_HDR_SIZE), (uint8 *)(&hdr), OSAL_NV_HDR_SIZE);
   \                     ??CrossCallReturnLabel_31:
   \   000025                ; Setup parameters for call to function HalFlashRead
   \   000025   75..08       MOV     ?V0 + 0,#0x8
   \   000028   75..00       MOV     ?V0 + 1,#0x0
   \   00002B   78..         MOV     R0,#?V0 + 0
   \   00002D   12....       LCALL   ?PUSH_XSTACK_I_TWO
   \   000030   7402         MOV     A,#0x2
   \   000032   12....       LCALL   ?XSTACK_DISP0_8
   \   000035   AC82         MOV     R4,DPL
   \   000037   AD83         MOV     R5,DPH
   \   000039   EA           MOV     A,R2
   \   00003A   24F8         ADD     A,#-0x8
   \   00003C   FA           MOV     R2,A
   \   00003D   EB           MOV     A,R3
   \   00003E   34FF         ADDC    A,#-0x1
   \   000040   FB           MOV     R3,A
   \   000041   90....       MOV     DPTR,#findPg
   \   000044   E0           MOVX    A,@DPTR
   \   000045   F9           MOV     R1,A
   \   000046   12....       LCALL   ??HalFlashRead?relay
   \   000049   7402         MOV     A,#0x2
   \   00004B   12....       LCALL   ?DEALLOC_XSTACK8
   1266            return hdr.len;
   \   00004E   7402         MOV     A,#0x2
   \   000050   12....       LCALL   ?XSTACK_DISP0_8
   \   000053   12....       LCALL   ?Subroutine21 & 0xFFFF
   \                     ??CrossCallReturnLabel_32:
   \   000056   7408         MOV     A,#0x8
   \   000058   12....       LCALL   ?DEALLOC_XSTACK8
   \   00005B   02....       LJMP    ?Subroutine4 & 0xFFFF
   \                     ??osal_nv_item_len_0:
   \   00005E                ; Setup parameters for call to function findItem
   \   00005E   EE           MOV     A,R6
   \   00005F   FA           MOV     R2,A
   \   000060   EF           MOV     A,R7
   \   000061   FB           MOV     R3,A
   \   000062   12....       LCALL   ??findItem?relay
   \   000065   8B..         MOV     ?V0 + 1,R3
   \   000067   A9..         MOV     R1,?V0 + 1
   \   000069   EA           MOV     A,R2
   \   00006A   49           ORL     A,R1
   \   00006B   70B8         JNZ     ??CrossCallReturnLabel_31
   \   00006D   7A00         MOV     R2,#0x0
   \   00006F   7B00         MOV     R3,#0x0
   \   000071   80E3         SJMP    ??CrossCallReturnLabel_32
   1267          }
   1268          
   1269          /*********************************************************************
   1270           * @fn      osal_nv_write
   1271           *
   1272           * @brief   Write a data item to NV. Function can write an entire item to NV or
   1273           *          an element of an item by indexing into the item with an offset.
   1274           *
   1275           * @param   id  - Valid NV item Id.
   1276           * @param   ndx - Index offset into item
   1277           * @param   len - Length of data to write.
   1278           * @param  *buf - Data to write.
   1279           *
   1280           * @return  SUCCESS if successful, NV_ITEM_UNINIT if item did not
   1281           *          exist in NV and offset is non-zero, NV_OPER_FAILED if failure.
   1282           */

   \                                 In  segment BANKED_CODE, align 1, keep-with-next
   1283          uint8 osal_nv_write( uint16 id, uint16 ndx, uint16 len, void *buf )
   \                     osal_nv_write:
   1284          {
   \   000000   74E2         MOV     A,#-0x1e
   \   000002   12....       LCALL   ?BANKED_ENTER_XDATA
   \   000005                ; Saved register size: 30
   \   000005                ; Auto size: 9
   \   000005   74F7         MOV     A,#-0x9
   \   000007   12....       LCALL   ?ALLOC_XSTACK8
   \   00000A   8A..         MOV     ?V0 + 16,R2
   \   00000C   8B..         MOV     ?V0 + 17,R3
   \   00000E   8C..         MOV     ?V0 + 0,R4
   \   000010   8D..         MOV     ?V0 + 1,R5
   1285            uint8 rtrn = SUCCESS;
   \   000012   75..00       MOV     ?V0 + 10,#0x0
   1286          
   1287            if ( !OSAL_NV_CHECK_BUS_VOLTAGE )
   \   000015                ; Setup parameters for call to function HalAdcCheckVdd
   \   000015   794E         MOV     R1,#0x4e
   \   000017   12....       LCALL   ??HalAdcCheckVdd?relay
   \   00001A   E9           MOV     A,R1
   \   00001B   606D         JZ      ??osal_nv_write_0
   \   00001D   7427         MOV     A,#0x27
   \   00001F   12....       LCALL   ?XSTACK_DISP0_8
   \   000022   E0           MOVX    A,@DPTR
   \   000023   F5..         MOV     ?V0 + 8,A
   \   000025   A3           INC     DPTR
   \   000026   E0           MOVX    A,@DPTR
   \   000027   F5..         MOV     ?V0 + 9,A
   1288            {
   1289              return NV_OPER_FAILED;
   1290            }
   1291            else if ( len != 0 )
   \   000029   E5..         MOV     A,?V0 + 8
   \   00002B   45..         ORL     A,?V0 + 9
   \   00002D   7003         JNZ     $+5
   \   00002F   02....       LJMP    ??osal_nv_write_1 & 0xFFFF
   1292            {
   1293              osalNvHdr_t hdr;
   1294              uint16 origOff, srcOff;
   1295              uint16 cnt, chk;
   1296              uint8 *ptr, srcPg;
   1297          
   1298              origOff = srcOff = findItem( id );
   \   000032                ; Setup parameters for call to function findItem
   \   000032   AA..         MOV     R2,?V0 + 16
   \   000034   AB..         MOV     R3,?V0 + 17
   \   000036   12....       LCALL   ??findItem?relay
   \   000039   8A..         MOV     ?V0 + 14,R2
   \   00003B   8B..         MOV     ?V0 + 15,R3
   1299              srcPg = findPg;
   \   00003D   90....       MOV     DPTR,#findPg
   \   000040   E0           MOVX    A,@DPTR
   \   000041   F5..         MOV     ?V0 + 3,A
   1300              if ( srcOff == OSAL_NV_ITEM_NULL )
   \   000043   EA           MOV     A,R2
   \   000044   45..         ORL     A,?V0 + 15
   \   000046   7005         JNZ     ??osal_nv_write_2
   1301              {
   1302                return NV_ITEM_UNINIT;
   \   000048   7909         MOV     R1,#0x9
   \   00004A   02....       LJMP    ??osal_nv_write_3 & 0xFFFF
   1303              }
   1304          
   1305              HalFlashRead(srcPg, (srcOff - OSAL_NV_HDR_SIZE), (uint8 *)(&hdr), OSAL_NV_HDR_SIZE);
   \                     ??osal_nv_write_2:
   \   00004D                ; Setup parameters for call to function HalFlashRead
   \   00004D   75..08       MOV     ?V0 + 4,#0x8
   \   000050   75..00       MOV     ?V0 + 5,#0x0
   \   000053   78..         MOV     R0,#?V0 + 4
   \   000055   12....       LCALL   ?PUSH_XSTACK_I_TWO
   \   000058   7403         MOV     A,#0x3
   \   00005A   12....       LCALL   ?XSTACK_DISP0_8
   \   00005D   AC82         MOV     R4,DPL
   \   00005F   AD83         MOV     R5,DPH
   \   000061   EA           MOV     A,R2
   \   000062   24F8         ADD     A,#-0x8
   \   000064   FA           MOV     R2,A
   \   000065   EB           MOV     A,R3
   \   000066   34FF         ADDC    A,#-0x1
   \   000068   FB           MOV     R3,A
   \   000069   A9..         MOV     R1,?V0 + 3
   \   00006B   12....       LCALL   ??HalFlashRead?relay
   \   00006E   7402         MOV     A,#0x2
   \   000070   12....       LCALL   ?DEALLOC_XSTACK8
   1306              if ( hdr.len < (ndx + len) )
   \   000073   7403         MOV     A,#0x3
   \   000075   12....       LCALL   ?XSTACK_DISP0_8
   \   000078   E5..         MOV     A,?V0 + 0
   \   00007A   25..         ADD     A,?V0 + 8
   \   00007C   F8           MOV     R0,A
   \   00007D   E5..         MOV     A,?V0 + 1
   \   00007F   35..         ADDC    A,?V0 + 9
   \   000081   F9           MOV     R1,A
   \   000082   C3           CLR     C
   \   000083   E0           MOVX    A,@DPTR
   \   000084   98           SUBB    A,R0
   \   000085   A3           INC     DPTR
   \   000086   E0           MOVX    A,@DPTR
   \   000087   99           SUBB    A,R1
   \   000088   5005         JNC     ??osal_nv_write_4
   1307              {
   1308                return NV_OPER_FAILED;
   \                     ??osal_nv_write_0:
   \   00008A   790A         MOV     R1,#0xa
   \   00008C   02....       LJMP    ??osal_nv_write_3 & 0xFFFF
   1309              }
   1310          
   1311              srcOff += ndx;
   \                     ??osal_nv_write_4:
   \   00008F   E5..         MOV     A,?V0 + 14
   \   000091   25..         ADD     A,?V0 + 0
   \   000093   F5..         MOV     ?V0 + 12,A
   \   000095   E5..         MOV     A,?V0 + 15
   \   000097   35..         ADDC    A,?V0 + 1
   \   000099   F5..         MOV     ?V0 + 13,A
   \   00009B   7429         MOV     A,#0x29
   \   00009D   12....       LCALL   ?XSTACK_DISP0_8
   \   0000A0   E0           MOVX    A,@DPTR
   \   0000A1   F5..         MOV     ?V0 + 18,A
   \   0000A3   A3           INC     DPTR
   \   0000A4   E0           MOVX    A,@DPTR
   \   0000A5   F5..         MOV     ?V0 + 19,A
   1312              ptr = buf;
   \   0000A7   AE..         MOV     R6,?V0 + 18
   \   0000A9   FF           MOV     R7,A
   1313              cnt = len;
   \   0000AA   85....       MOV     ?V0 + 4,?V0 + 8
   \   0000AD   85....       MOV     ?V0 + 5,?V0 + 9
   1314              chk = 0;
   \   0000B0   75..00       MOV     ?V0 + 6,#0x0
   \   0000B3   806B         SJMP    ??osal_nv_write_5
   1315              while ( cnt-- )
   1316              {
   1317                uint8 tmp;
   1318                HalFlashRead(srcPg, srcOff, &tmp, 1);
   \                     ??osal_nv_write_6:
   \   0000B5                ; Setup parameters for call to function HalFlashRead
   \   0000B5   75..01       MOV     ?V0 + 20,#0x1
   \   0000B8   75..00       MOV     ?V0 + 21,#0x0
   \   0000BB   78..         MOV     R0,#?V0 + 20
   \   0000BD   12....       LCALL   ?PUSH_XSTACK_I_TWO
   \   0000C0   7402         MOV     A,#0x2
   \   0000C2   12....       LCALL   ?XSTACK_DISP0_8
   \   0000C5   AC82         MOV     R4,DPL
   \   0000C7   AD83         MOV     R5,DPH
   \   0000C9   AA..         MOV     R2,?V0 + 12
   \   0000CB   AB..         MOV     R3,?V0 + 13
   \   0000CD   A9..         MOV     R1,?V0 + 3
   \   0000CF   12....       LCALL   ??HalFlashRead?relay
   \   0000D2   7402         MOV     A,#0x2
   \   0000D4   12....       LCALL   ?DEALLOC_XSTACK8
   1319                if ( tmp != *ptr )
   \   0000D7   85..82       MOV     DPL,?XSP + 0
   \   0000DA   85..83       MOV     DPH,?XSP + 1
   \   0000DD   E0           MOVX    A,@DPTR
   \   0000DE   F8           MOV     R0,A
   \   0000DF   8E82         MOV     DPL,R6
   \   0000E1   8F83         MOV     DPH,R7
   \   0000E3   E0           MOVX    A,@DPTR
   \   0000E4   68           XRL     A,R0
   \   0000E5   6024         JZ      ??osal_nv_write_7
   1320                {
   1321                  chk = 1;  // Mark that at least one byte is different.
   \   0000E7   75..01       MOV     ?V0 + 6,#0x1
   1322                  // Calculate expected checksum after transferring old data and writing new data.
   1323                  hdr.chk -= tmp;
   \   0000EA   7405         MOV     A,#0x5
   \   0000EC   12....       LCALL   ?XSTACK_DISP0_8
   \   0000EF   C3           CLR     C
   \   0000F0   E0           MOVX    A,@DPTR
   \   0000F1   98           SUBB    A,R0
   \   0000F2   F0           MOVX    @DPTR,A
   \   0000F3   A3           INC     DPTR
   \   0000F4   E0           MOVX    A,@DPTR
   \   0000F5   9400         SUBB    A,#0x0
   \   0000F7   F0           MOVX    @DPTR,A
   1324                  hdr.chk += *ptr;
   \   0000F8   8E82         MOV     DPL,R6
   \   0000FA   8F83         MOV     DPH,R7
   \   0000FC   E0           MOVX    A,@DPTR
   \   0000FD   F8           MOV     R0,A
   \   0000FE   7405         MOV     A,#0x5
   \   000100   12....       LCALL   ?XSTACK_DISP0_8
   \   000103   E0           MOVX    A,@DPTR
   \   000104   28           ADD     A,R0
   \   000105   F0           MOVX    @DPTR,A
   \   000106   A3           INC     DPTR
   \   000107   E0           MOVX    A,@DPTR
   \   000108   3400         ADDC    A,#0x0
   \   00010A   F0           MOVX    @DPTR,A
   1325                }
   1326                srcOff++;
   \                     ??osal_nv_write_7:
   \   00010B   E5..         MOV     A,?V0 + 12
   \   00010D   2401         ADD     A,#0x1
   \   00010F   F5..         MOV     ?V0 + 12,A
   \   000111   E5..         MOV     A,?V0 + 13
   \   000113   3400         ADDC    A,#0x0
   \   000115   F5..         MOV     ?V0 + 13,A
   1327                ptr++;
   \   000117   8E82         MOV     DPL,R6
   \   000119   8F83         MOV     DPH,R7
   \   00011B   A3           INC     DPTR
   \   00011C   AE82         MOV     R6,DPL
   \   00011E   AF83         MOV     R7,DPH
   1328              }
   \                     ??osal_nv_write_5:
   \   000120   A8..         MOV     R0,?V0 + 4
   \   000122   A9..         MOV     R1,?V0 + 5
   \   000124   E8           MOV     A,R0
   \   000125   24FF         ADD     A,#-0x1
   \   000127   F5..         MOV     ?V0 + 4,A
   \   000129   E9           MOV     A,R1
   \   00012A   34FF         ADDC    A,#-0x1
   \   00012C   F5..         MOV     ?V0 + 5,A
   \   00012E   E8           MOV     A,R0
   \   00012F   49           ORL     A,R1
   \   000130   7083         JNZ     ??osal_nv_write_6
   1329          
   1330              if ( chk != 0 )  // If the buffer to write is different in one or more bytes.
   \   000132   E5..         MOV     A,?V0 + 6
   \   000134   A2E0         MOV     C,0xE0 /* A   */.0
   \   000136   4003         JC      $+5
   \   000138   02....       LJMP    ??osal_nv_write_1 & 0xFFFF
   1331              {
   1332                uint8 comPg = OSAL_NV_PAGE_NULL;
   \   00013B   85..82       MOV     DPL,?XSP + 0
   \   00013E   85..83       MOV     DPH,?XSP + 1
   \   000141   E4           CLR     A
   \   000142   F0           MOVX    @DPTR,A
   1333                uint8 dstPg = initItem( FALSE, id, hdr.len, &comPg );
   \   000143                ; Setup parameters for call to function initItem
   \   000143   8582..       MOV     ?V0 + 4,DPL
   \   000146   8583..       MOV     ?V0 + 5,DPH
   \   000149   78..         MOV     R0,#?V0 + 4
   \   00014B   12....       LCALL   ?PUSH_XSTACK_I_TWO
   \   00014E   7405         MOV     A,#0x5
   \   000150   12....       LCALL   ?XSTACK_DISP0_8
   \   000153   12....       LCALL   ?Subroutine25 & 0xFFFF
   \                     ??CrossCallReturnLabel_43:
   \   000156   AA..         MOV     R2,?V0 + 16
   \   000158   AB..         MOV     R3,?V0 + 17
   \   00015A   7900         MOV     R1,#0x0
   \   00015C   12....       LCALL   ??initItem?relay
   \   00015F   7402         MOV     A,#0x2
   \   000161   12....       LCALL   ?DEALLOC_XSTACK8
   \   000164   E9           MOV     A,R1
   \   000165   F5..         MOV     ?V0 + 2,A
   1334          
   1335                if ( dstPg != OSAL_NV_PAGE_NULL )
   \   000167   7003         JNZ     $+5
   \   000169   02....       LJMP    ??osal_nv_write_8 & 0xFFFF
   1336                {
   1337                  uint16 tmp = OSAL_NV_DATA_SIZE( hdr.len );
   \   00016C   7403         MOV     A,#0x3
   \   00016E   12....       LCALL   ?XSTACK_DISP0_8
   \   000171   12....       LCALL   ?Subroutine19 & 0xFFFF
   \                     ??CrossCallReturnLabel_25:
   \   000174   4006         JC      ??osal_nv_write_9
   \   000176   7EFC         MOV     R6,#-0x4
   \   000178   7FFF         MOV     R7,#-0x1
   \   00017A   800B         SJMP    ??osal_nv_write_10
   \                     ??osal_nv_write_9:
   \   00017C   7403         MOV     A,#0x3
   \   00017E   12....       LCALL   ?XSTACK_DISP0_8
   \   000181   12....       LCALL   ?Subroutine16 & 0xFFFF
   \                     ??CrossCallReturnLabel_16:
   \   000184   FE           MOV     R6,A
   \   000185   E9           MOV     A,R1
   \   000186   FF           MOV     R7,A
   1338                  uint16 dstOff = pgOff[dstPg-OSAL_NV_PAGE_BEG] - tmp;
   \                     ??osal_nv_write_10:
   \   000187   12....       LCALL   ?Subroutine24 & 0xFFFF
   1339                  srcOff = origOff;
   1340          
   1341                  /* Prevent excessive re-writes to item header caused by numerous, rapid, & successive
   1342                   * OSAL_Nv interruptions caused by resets.
   1343                   */
   1344                  if ( hdr.stat == OSAL_NV_ERASED_ID )
   \                     ??CrossCallReturnLabel_38:
   \   00018A   7407         MOV     A,#0x7
   \   00018C   12....       LCALL   ?XSTACK_DISP0_8
   \   00018F   E0           MOVX    A,@DPTR
   \   000190   F4           CPL     A
   \   000191   7003         JNZ     ??osal_nv_write_11
   \   000193   A3           INC     DPTR
   \   000194   E0           MOVX    A,@DPTR
   \   000195   F4           CPL     A
   \                     ??osal_nv_write_11:
   \   000196   700B         JNZ     ??osal_nv_write_12
   1345                  {
   1346                    setItem( srcPg, srcOff, eNvXfer );
   \   000198                ; Setup parameters for call to function setItem
   \   000198   7C00         MOV     R4,#0x0
   \   00019A   AA..         MOV     R2,?V0 + 14
   \   00019C   AB..         MOV     R3,?V0 + 15
   \   00019E   A9..         MOV     R1,?V0 + 3
   \   0001A0   12....       LCALL   ??setItem?relay
   1347                  }
   1348          
   1349                  xferBuf( srcPg, srcOff, dstPg, dstOff, ndx );
   \                     ??osal_nv_write_12:
   \   0001A3                ; Setup parameters for call to function xferBuf
   \   0001A3   78..         MOV     R0,#?V0 + 0
   \   0001A5   12....       LCALL   ?PUSH_XSTACK_I_TWO
   \   0001A8   78..         MOV     R0,#?V0 + 4
   \   0001AA   12....       LCALL   ?PUSH_XSTACK_I_TWO
   \   0001AD   AC..         MOV     R4,?V0 + 2
   \   0001AF   AA..         MOV     R2,?V0 + 14
   \   0001B1   AB..         MOV     R3,?V0 + 15
   \   0001B3   A9..         MOV     R1,?V0 + 3
   \   0001B5   12....       LCALL   ??xferBuf?relay
   \   0001B8   7404         MOV     A,#0x4
   \   0001BA   12....       LCALL   ?DEALLOC_XSTACK8
   1350                  srcOff += ndx;
   1351                  dstOff += ndx;
   \   0001BD   E5..         MOV     A,?V0 + 4
   \   0001BF   25..         ADD     A,?V0 + 0
   \   0001C1   F5..         MOV     ?V0 + 4,A
   \   0001C3   E5..         MOV     A,?V0 + 5
   \   0001C5   35..         ADDC    A,?V0 + 1
   \   0001C7   F5..         MOV     ?V0 + 5,A
   1352          
   1353                  writeBuf( dstPg, dstOff, len, buf );
   \   0001C9                ; Setup parameters for call to function writeBuf
   \   0001C9   78..         MOV     R0,#?V0 + 18
   \   0001CB   12....       LCALL   ?PUSH_XSTACK_I_TWO
   \   0001CE   AC..         MOV     R4,?V0 + 8
   \   0001D0   AD..         MOV     R5,?V0 + 9
   \   0001D2   AA..         MOV     R2,?V0 + 4
   \   0001D4   AB..         MOV     R3,?V0 + 5
   \   0001D6   A9..         MOV     R1,?V0 + 2
   \   0001D8   12....       LCALL   ??writeBuf?relay
   \   0001DB   7402         MOV     A,#0x2
   \   0001DD   12....       LCALL   ?DEALLOC_XSTACK8
   1354                  srcOff += len;
   1355                  dstOff += len;
   1356          
   1357                  xferBuf( srcPg, srcOff, dstPg, dstOff, (hdr.len-ndx-len) );
   \   0001E0                ; Setup parameters for call to function xferBuf
   \   0001E0   7403         MOV     A,#0x3
   \   0001E2   12....       LCALL   ?XSTACK_DISP0_8
   \   0001E5   E0           MOVX    A,@DPTR
   \   0001E6   C3           CLR     C
   \   0001E7   95..         SUBB    A,?V0 + 0
   \   0001E9   F8           MOV     R0,A
   \   0001EA   A3           INC     DPTR
   \   0001EB   E0           MOVX    A,@DPTR
   \   0001EC   95..         SUBB    A,?V0 + 1
   \   0001EE   F9           MOV     R1,A
   \   0001EF   E8           MOV     A,R0
   \   0001F0   C3           CLR     C
   \   0001F1   95..         SUBB    A,?V0 + 8
   \   0001F3   F5..         MOV     ?V0 + 6,A
   \   0001F5   E9           MOV     A,R1
   \   0001F6   95..         SUBB    A,?V0 + 9
   \   0001F8   F5..         MOV     ?V0 + 7,A
   \   0001FA   78..         MOV     R0,#?V0 + 6
   \   0001FC   12....       LCALL   ?PUSH_XSTACK_I_TWO
   \   0001FF   E5..         MOV     A,?V0 + 4
   \   000201   25..         ADD     A,?V0 + 8
   \   000203   F5..         MOV     ?V0 + 4,A
   \   000205   E5..         MOV     A,?V0 + 5
   \   000207   35..         ADDC    A,?V0 + 9
   \   000209   F5..         MOV     ?V0 + 5,A
   \   00020B   78..         MOV     R0,#?V0 + 4
   \   00020D   12....       LCALL   ?PUSH_XSTACK_I_TWO
   \   000210   AC..         MOV     R4,?V0 + 2
   \   000212   E5..         MOV     A,?V0 + 14
   \   000214   25..         ADD     A,?V0 + 0
   \   000216   F8           MOV     R0,A
   \   000217   E5..         MOV     A,?V0 + 15
   \   000219   35..         ADDC    A,?V0 + 1
   \   00021B   F9           MOV     R1,A
   \   00021C   E8           MOV     A,R0
   \   00021D   25..         ADD     A,?V0 + 8
   \   00021F   FA           MOV     R2,A
   \   000220   E9           MOV     A,R1
   \   000221   35..         ADDC    A,?V0 + 9
   \   000223   FB           MOV     R3,A
   \   000224   A9..         MOV     R1,?V0 + 3
   \   000226   12....       LCALL   ??xferBuf?relay
   \   000229   7404         MOV     A,#0x4
   \   00022B   12....       LCALL   ?DEALLOC_XSTACK8
   1358          
   1359                  // Calculate and write the new checksum.
   1360                  dstOff = pgOff[dstPg-OSAL_NV_PAGE_BEG] - tmp;
   \   00022E   12....       LCALL   ?Subroutine24 & 0xFFFF
   1361          
   1362                  if ( hdr.chk == calcChkF( dstPg, dstOff, hdr.len ) )
   \                     ??CrossCallReturnLabel_39:
   \   000231                ; Setup parameters for call to function calcChkF
   \   000231   7403         MOV     A,#0x3
   \   000233   12....       LCALL   ?XSTACK_DISP0_8
   \   000236   12....       LCALL   ?Subroutine17 & 0xFFFF
   \                     ??CrossCallReturnLabel_17:
   \   000239   12....       LCALL   ??calcChkF?relay
   \   00023C   8A..         MOV     ?V0 + 0,R2
   \   00023E   8B..         MOV     ?V0 + 1,R3
   \   000240   A8..         MOV     R0,?V0 + 0
   \   000242   A9..         MOV     R1,?V0 + 1
   \   000244   7405         MOV     A,#0x5
   \   000246   12....       LCALL   ?XSTACK_DISP0_8
   \   000249   E0           MOVX    A,@DPTR
   \   00024A   68           XRL     A,R0
   \   00024B   7003         JNZ     ??osal_nv_write_13
   \   00024D   A3           INC     DPTR
   \   00024E   E0           MOVX    A,@DPTR
   \   00024F   69           XRL     A,R1
   \                     ??osal_nv_write_13:
   \   000250   702E         JNZ     ??osal_nv_write_8
   1363                  {
   1364                    if ( hdr.chk != setChk( dstPg, dstOff, hdr.chk ) )
   \   000252                ; Setup parameters for call to function setChk
   \   000252   7405         MOV     A,#0x5
   \   000254   12....       LCALL   ?XSTACK_DISP0_8
   \   000257   12....       LCALL   ?Subroutine17 & 0xFFFF
   \                     ??CrossCallReturnLabel_18:
   \   00025A   12....       LCALL   ??setChk?relay
   \   00025D   8A..         MOV     ?V0 + 0,R2
   \   00025F   8B..         MOV     ?V0 + 1,R3
   \   000261   A8..         MOV     R0,?V0 + 0
   \   000263   A9..         MOV     R1,?V0 + 1
   \   000265   7405         MOV     A,#0x5
   \   000267   12....       LCALL   ?XSTACK_DISP0_8
   \   00026A   E0           MOVX    A,@DPTR
   \   00026B   68           XRL     A,R0
   \   00026C   7003         JNZ     ??osal_nv_write_14
   \   00026E   A3           INC     DPTR
   \   00026F   E0           MOVX    A,@DPTR
   \   000270   69           XRL     A,R1
   \                     ??osal_nv_write_14:
   \   000271   700D         JNZ     ??osal_nv_write_8
   1365                    {
   1366                      rtrn = NV_OPER_FAILED;
   1367                    }
   1368                    else
   1369                    {
   1370                      hotItemUpdate(dstPg, dstOff, hdr.id);
   \   000273                ; Setup parameters for call to function hotItemUpdate
   \   000273   7401         MOV     A,#0x1
   \   000275   12....       LCALL   ?XSTACK_DISP0_8
   \   000278   12....       LCALL   ?Subroutine17 & 0xFFFF
   1371                    }
   1372                  }
   1373                  else
   1374                  {
   1375                    rtrn = NV_OPER_FAILED;
   1376                  }
   1377                }
   \                     ??CrossCallReturnLabel_19:
   \   00027B   12....       LCALL   ??hotItemUpdate?relay
   \   00027E   8003         SJMP    ??osal_nv_write_15
   1378                else
   1379                {
   1380                  rtrn = NV_OPER_FAILED;
   \                     ??osal_nv_write_8:
   \   000280   75..0A       MOV     ?V0 + 10,#0xa
   1381                }
   1382          
   1383                if ( comPg != OSAL_NV_PAGE_NULL )
   \                     ??osal_nv_write_15:
   \   000283   85..82       MOV     DPL,?XSP + 0
   \   000286   85..83       MOV     DPH,?XSP + 1
   \   000289   E0           MOVX    A,@DPTR
   \   00028A   6034         JZ      ??osal_nv_write_16
   1384                {
   1385                  /* Even though the page compaction succeeded, if the new item is coming from the compacted
   1386                   * page and writing the new value failed, then the compaction must be aborted.
   1387                   */
   1388                  if ( (srcPg == comPg) && (rtrn == NV_OPER_FAILED) )
   \   00028C   65..         XRL     A,?V0 + 3
   \   00028E   7010         JNZ     ??osal_nv_write_17
   \   000290   740A         MOV     A,#0xa
   \   000292   65..         XRL     A,?V0 + 10
   \   000294   700A         JNZ     ??osal_nv_write_17
   1389                  {
   1390                    erasePage( pgRes );
   \   000296                ; Setup parameters for call to function erasePage
   \   000296   90....       MOV     DPTR,#pgRes
   \   000299   E0           MOVX    A,@DPTR
   \   00029A   F9           MOV     R1,A
   \   00029B   12....       LCALL   ??erasePage?relay
   \   00029E   803C         SJMP    ??osal_nv_write_1
   1391                  }
   1392                  else
   1393                  {
   1394                    COMPACT_PAGE_CLEANUP( comPg );
   \                     ??osal_nv_write_17:
   \   0002A0                ; Setup parameters for call to function setPageUse
   \   0002A0   7A01         MOV     R2,#0x1
   \   0002A2   90....       MOV     DPTR,#pgRes
   \   0002A5   E0           MOVX    A,@DPTR
   \   0002A6   F9           MOV     R1,A
   \   0002A7   12....       LCALL   ??setPageUse?relay
   \   0002AA                ; Setup parameters for call to function erasePage
   \   0002AA   85..82       MOV     DPL,?XSP + 0
   \   0002AD   85..83       MOV     DPH,?XSP + 1
   \   0002B0   E0           MOVX    A,@DPTR
   \   0002B1   F9           MOV     R1,A
   \   0002B2   12....       LCALL   ??erasePage?relay
   \   0002B5   85..82       MOV     DPL,?XSP + 0
   \   0002B8   85..83       MOV     DPH,?XSP + 1
   \   0002BB   E0           MOVX    A,@DPTR
   \   0002BC   90....       MOV     DPTR,#pgRes
   \   0002BF   F0           MOVX    @DPTR,A
   1395                  }
   1396                }
   1397          
   1398                /* Zero of the old item must wait until after compact page cleanup has finished - if the item
   1399                 * is zeroed before and cleanup is interrupted by a power-cycle, the new item can be lost.
   1400                 */
   1401                if ( (srcPg != comPg) && (rtrn != NV_OPER_FAILED) )
   \                     ??osal_nv_write_16:
   \   0002C0   85..82       MOV     DPL,?XSP + 0
   \   0002C3   85..83       MOV     DPH,?XSP + 1
   \   0002C6   E0           MOVX    A,@DPTR
   \   0002C7   65..         XRL     A,?V0 + 3
   \   0002C9   6011         JZ      ??osal_nv_write_1
   \   0002CB   740A         MOV     A,#0xa
   \   0002CD   65..         XRL     A,?V0 + 10
   \   0002CF   600B         JZ      ??osal_nv_write_1
   1402                {
   1403                  setItem( srcPg, origOff, eNvZero );
   \   0002D1                ; Setup parameters for call to function setItem
   \   0002D1   7C01         MOV     R4,#0x1
   \   0002D3   AA..         MOV     R2,?V0 + 14
   \   0002D5   AB..         MOV     R3,?V0 + 15
   \   0002D7   A9..         MOV     R1,?V0 + 3
   \   0002D9   12....       LCALL   ??setItem?relay
   1404                }
   1405              }
   1406            }
   1407          
   1408            return rtrn;
   \                     ??osal_nv_write_1:
   \   0002DC   A9..         MOV     R1,?V0 + 10
   \                     ??osal_nv_write_3:
   \   0002DE   7409         MOV     A,#0x9
   \   0002E0   12....       LCALL   ?DEALLOC_XSTACK8
   \   0002E3   7F16         MOV     R7,#0x16
   \   0002E5   02....       LJMP    ?BANKED_LEAVE_XDATA
   1409          }

   \                                 In  segment BANKED_CODE, align 1, keep-with-next
   \                     ?Subroutine24:
   \   000000   12....       LCALL   ?Subroutine37 & 0xFFFF
   \                     ??CrossCallReturnLabel_84:
   \   000003   E0           MOVX    A,@DPTR
   \   000004   C3           CLR     C
   \   000005   9E           SUBB    A,R6
   \   000006   F5..         MOV     ?V0 + 4,A
   \   000008   A3           INC     DPTR
   \   000009   E0           MOVX    A,@DPTR
   \   00000A   9F           SUBB    A,R7
   \   00000B   F5..         MOV     ?V0 + 5,A
   \   00000D   22           RET

   \                                 In  segment BANKED_CODE, align 1, keep-with-next
   \                     ?Subroutine17:
   \   000000   12....       LCALL   ?Subroutine36 & 0xFFFF
   \                     ??CrossCallReturnLabel_62:
   \   000003   A9..         MOV     R1,?V0 + 2
   \   000005   22           RET
   1410          
   1411          /*********************************************************************
   1412           * @fn      osal_nv_read
   1413           *
   1414           * @brief   Read data from NV. This function can be used to read an entire item from NV or
   1415           *          an element of an item by indexing into the item with an offset.
   1416           *          Read data is copied into *buf.
   1417           *
   1418           * @param   id  - Valid NV item Id.
   1419           * @param   ndx - Index offset into item
   1420           * @param   len - Length of data to read.
   1421           * @param  *buf - Data is read into this buffer.
   1422           *
   1423           * @return  SUCCESS if NV data was copied to the parameter 'buf'.
   1424           *          Otherwise, NV_OPER_FAILED for failure.
   1425           */

   \                                 In  segment BANKED_CODE, align 1, keep-with-next
   1426          uint8 osal_nv_read( uint16 id, uint16 ndx, uint16 len, void *buf )
   \                     osal_nv_read:
   1427          {
   \   000000   74F0         MOV     A,#-0x10
   \   000002   12....       LCALL   ?BANKED_ENTER_XDATA
   \   000005                ; Saved register size: 16
   \   000005                ; Auto size: 0
   \   000005   EA           MOV     A,R2
   \   000006   FE           MOV     R6,A
   \   000007   EB           MOV     A,R3
   \   000008   FF           MOV     R7,A
   \   000009   8C..         MOV     ?V0 + 2,R4
   \   00000B   8D..         MOV     ?V0 + 3,R5
   1428            uint16 offset;
   1429            uint8 hotIdx;
   1430          
   1431            if ((hotIdx = hotItem(id)) < OSAL_NV_MAX_HOT)
   \   00000D                ; Setup parameters for call to function hotItem
   \   00000D   12....       LCALL   ??hotItem?relay
   \   000010   E9           MOV     A,R1
   \   000011   F8           MOV     R0,A
   \   000012   7410         MOV     A,#0x10
   \   000014   12....       LCALL   ?XSTACK_DISP0_8
   \   000017   12....       LCALL   ?Subroutine22 & 0xFFFF
   \                     ??CrossCallReturnLabel_35:
   \   00001A   7412         MOV     A,#0x12
   \   00001C   12....       LCALL   ?XSTACK_DISP0_8
   \   00001F   E0           MOVX    A,@DPTR
   \   000020   F5..         MOV     ?V0 + 0,A
   \   000022   A3           INC     DPTR
   \   000023   E0           MOVX    A,@DPTR
   \   000024   F5..         MOV     ?V0 + 1,A
   \   000026   E8           MOV     A,R0
   \   000027   C3           CLR     C
   \   000028   9403         SUBB    A,#0x3
   \   00002A   5027         JNC     ??osal_nv_read_0
   1432            {
   1433              HalFlashRead(hotPg[hotIdx], hotOff[hotIdx]+ndx, buf, len);
   \   00002C   8882         MOV     DPL,R0
   \   00002E   AE82         MOV     R6,DPL
   \   000030                ; Setup parameters for call to function HalFlashRead
   \   000030   78..         MOV     R0,#?V0 + 4
   \   000032   12....       LCALL   ?PUSH_XSTACK_I_TWO
   \   000035   AC..         MOV     R4,?V0 + 0
   \   000037   AD..         MOV     R5,?V0 + 1
   \   000039   EE           MOV     A,R6
   \   00003A   12....       LCALL   ?Subroutine39 & 0xFFFF
   1434              return SUCCESS;
   1435            }
   \                     ??CrossCallReturnLabel_63:
   \   00003D   E0           MOVX    A,@DPTR
   \   00003E   25..         ADD     A,?V0 + 2
   \   000040   FA           MOV     R2,A
   \   000041   A3           INC     DPTR
   \   000042   E0           MOVX    A,@DPTR
   \   000043   35..         ADDC    A,?V0 + 3
   \   000045   FB           MOV     R3,A
   \   000046   74..         MOV     A,#hotPg & 0xff
   \   000048   2E           ADD     A,R6
   \   000049   F582         MOV     DPL,A
   \   00004B   74..         MOV     A,#(hotPg >> 8) & 0xff
   \   00004D   3400         ADDC    A,#0x0
   \   00004F   F583         MOV     DPH,A
   \   000051   8023         SJMP    ??osal_nv_read_1
   1436          
   1437            if ((offset = findItem(id)) == OSAL_NV_ITEM_NULL)
   \                     ??osal_nv_read_0:
   \   000053                ; Setup parameters for call to function findItem
   \   000053   EE           MOV     A,R6
   \   000054   FA           MOV     R2,A
   \   000055   EF           MOV     A,R7
   \   000056   FB           MOV     R3,A
   \   000057   12....       LCALL   ??findItem?relay
   \   00005A   EA           MOV     A,R2
   \   00005B   4B           ORL     A,R3
   \   00005C   7004         JNZ     ??osal_nv_read_2
   1438            {
   1439              return NV_OPER_FAILED;
   \   00005E   790A         MOV     R1,#0xa
   \   000060   8020         SJMP    ??osal_nv_read_3
   1440            }
   1441            else
   1442            {
   1443              HalFlashRead(findPg, offset+ndx, buf, len);
   \                     ??osal_nv_read_2:
   \   000062                ; Setup parameters for call to function HalFlashRead
   \   000062   78..         MOV     R0,#?V0 + 4
   \   000064   12....       LCALL   ?PUSH_XSTACK_I_TWO
   \   000067   AC..         MOV     R4,?V0 + 0
   \   000069   AD..         MOV     R5,?V0 + 1
   \   00006B   EA           MOV     A,R2
   \   00006C   25..         ADD     A,?V0 + 2
   \   00006E   FA           MOV     R2,A
   \   00006F   EB           MOV     A,R3
   \   000070   35..         ADDC    A,?V0 + 3
   \   000072   FB           MOV     R3,A
   \   000073   90....       MOV     DPTR,#findPg
   \                     ??osal_nv_read_1:
   \   000076   E0           MOVX    A,@DPTR
   \   000077   F9           MOV     R1,A
   \   000078   12....       LCALL   ??HalFlashRead?relay
   \   00007B   7402         MOV     A,#0x2
   \   00007D   12....       LCALL   ?DEALLOC_XSTACK8
   1444              return SUCCESS;
   \   000080   7900         MOV     R1,#0x0
   \                     ??osal_nv_read_3:
   \   000082   7F08         MOV     R7,#0x8
   \   000084   02....       LJMP    ?BANKED_LEAVE_XDATA
   1445            }
   1446          }
   1447          
   1448          /*********************************************************************
   1449           * @fn      osal_nv_delete
   1450           *
   1451           * @brief   Delete item from NV. This function will fail if the length
   1452           *          parameter does not match the length of the item in NV.
   1453           *
   1454           * @param   id  - Valid NV item Id.
   1455           * @param   len - Length of item to delete.
   1456           *
   1457           * @return  SUCCESS if item was deleted,
   1458           *          NV_ITEM_UNINIT if item did not exist in NV,
   1459           *          NV_BAD_ITEM_LEN if length parameter not correct,
   1460           *          NV_OPER_FAILED if attempted deletion failed.
   1461           */

   \                                 In  segment BANKED_CODE, align 1, keep-with-next
   1462          uint8 osal_nv_delete( uint16 id, uint16 len )
   \                     osal_nv_delete:
   1463          {
   \   000000   74F2         MOV     A,#-0xe
   \   000002   12....       LCALL   ?BANKED_ENTER_XDATA
   \   000005                ; Saved register size: 14
   \   000005                ; Auto size: 0
   \   000005   EA           MOV     A,R2
   \   000006   FE           MOV     R6,A
   \   000007   EB           MOV     A,R3
   \   000008   FF           MOV     R7,A
   \   000009   8C..         MOV     ?V0 + 2,R4
   \   00000B   8D..         MOV     ?V0 + 3,R5
   1464            uint16 length;
   1465            uint16 offset;
   1466          
   1467            offset = findItem( id );
   \   00000D                ; Setup parameters for call to function findItem
   \   00000D   12....       LCALL   ??findItem?relay
   \   000010   8A..         MOV     ?V0 + 0,R2
   \   000012   8B..         MOV     ?V0 + 1,R3
   1468            if ( offset == OSAL_NV_ITEM_NULL )
   \   000014   EA           MOV     A,R2
   \   000015   45..         ORL     A,?V0 + 1
   \   000017   7004         JNZ     ??osal_nv_delete_0
   1469            {
   1470              // NV item does not exist
   1471              return NV_ITEM_UNINIT;
   \   000019   7909         MOV     R1,#0x9
   \   00001B   803D         SJMP    ??osal_nv_delete_1
   1472            }
   1473          
   1474            length = osal_nv_item_len( id );
   1475            if ( length != len )
   \                     ??osal_nv_delete_0:
   \   00001D                ; Setup parameters for call to function osal_nv_item_len
   \   00001D   EE           MOV     A,R6
   \   00001E   FA           MOV     R2,A
   \   00001F   EF           MOV     A,R7
   \   000020   FB           MOV     R3,A
   \   000021   12....       LCALL   ??osal_nv_item_len?relay
   \   000024   8A..         MOV     ?V0 + 4,R2
   \   000026   8B..         MOV     ?V0 + 5,R3
   \   000028   E5..         MOV     A,?V0 + 2
   \   00002A   65..         XRL     A,?V0 + 4
   \   00002C   7004         JNZ     ??osal_nv_delete_2
   \   00002E   E5..         MOV     A,?V0 + 3
   \   000030   65..         XRL     A,?V0 + 5
   \                     ??osal_nv_delete_2:
   \   000032   6004         JZ      ??osal_nv_delete_3
   1476            {
   1477              // NV item has different length
   1478              return NV_BAD_ITEM_LEN;
   \   000034   790C         MOV     R1,#0xc
   \   000036   8022         SJMP    ??osal_nv_delete_1
   1479            }
   1480          
   1481            // Set item header ID to zero to 'delete' the item
   1482            setItem( findPg, offset, eNvZero );
   \                     ??osal_nv_delete_3:
   \   000038                ; Setup parameters for call to function setItem
   \   000038   7C01         MOV     R4,#0x1
   \   00003A   AA..         MOV     R2,?V0 + 0
   \   00003C   AB..         MOV     R3,?V0 + 1
   \   00003E   90....       MOV     DPTR,#findPg
   \   000041   E0           MOVX    A,@DPTR
   \   000042   F9           MOV     R1,A
   \   000043   12....       LCALL   ??setItem?relay
   1483          
   1484            // Verify that item has been removed
   1485            offset = findItem( id );
   1486            if ( offset != OSAL_NV_ITEM_NULL )
   \   000046                ; Setup parameters for call to function findItem
   \   000046   EE           MOV     A,R6
   \   000047   FA           MOV     R2,A
   \   000048   EF           MOV     A,R7
   \   000049   FB           MOV     R3,A
   \   00004A   12....       LCALL   ??findItem?relay
   \   00004D   8B..         MOV     ?V0 + 1,R3
   \   00004F   EA           MOV     A,R2
   \   000050   45..         ORL     A,?V0 + 1
   \   000052   6004         JZ      ??osal_nv_delete_4
   1487            {
   1488              // Still there
   1489              return NV_OPER_FAILED;
   \   000054   790A         MOV     R1,#0xa
   \   000056   8002         SJMP    ??osal_nv_delete_1
   1490            }
   1491            else
   1492            {
   1493              // Yes, it's gone
   1494              return SUCCESS;
   \                     ??osal_nv_delete_4:
   \   000058   7900         MOV     R1,#0x0
   1495            }
   \                     ??osal_nv_delete_1:
   \   00005A   02....       LJMP    ?Subroutine5 & 0xFFFF
   1496          }

   \                                 In  segment BANK_RELAYS, align 1
   \                     ??initNV?relay:
   \   000000   12....       LCALL   ?BDISPATCH
   \   000003   ......       DC24    initNV

   \                                 In  segment BANK_RELAYS, align 1
   \                     ??setPageUse?relay:
   \   000000   12....       LCALL   ?BDISPATCH
   \   000003   ......       DC24    setPageUse

   \                                 In  segment BANK_RELAYS, align 1
   \                     ??initPage?relay:
   \   000000   12....       LCALL   ?BDISPATCH
   \   000003   ......       DC24    initPage

   \                                 In  segment BANK_RELAYS, align 1
   \                     ??erasePage?relay:
   \   000000   12....       LCALL   ?BDISPATCH
   \   000003   ......       DC24    erasePage

   \                                 In  segment BANK_RELAYS, align 1
   \                     ??compactPage?relay:
   \   000000   12....       LCALL   ?BDISPATCH
   \   000003   ......       DC24    compactPage

   \                                 In  segment BANK_RELAYS, align 1
   \                     ??findItem?relay:
   \   000000   12....       LCALL   ?BDISPATCH
   \   000003   ......       DC24    findItem

   \                                 In  segment BANK_RELAYS, align 1
   \                     ??initItem?relay:
   \   000000   12....       LCALL   ?BDISPATCH
   \   000003   ......       DC24    initItem

   \                                 In  segment BANK_RELAYS, align 1
   \                     ??setItem?relay:
   \   000000   12....       LCALL   ?BDISPATCH
   \   000003   ......       DC24    setItem

   \                                 In  segment BANK_RELAYS, align 1
   \                     ??setChk?relay:
   \   000000   12....       LCALL   ?BDISPATCH
   \   000003   ......       DC24    setChk

   \                                 In  segment BANK_RELAYS, align 1
   \                     ??calcChkF?relay:
   \   000000   12....       LCALL   ?BDISPATCH
   \   000003   ......       DC24    calcChkF

   \                                 In  segment BANK_RELAYS, align 1
   \                     ??writeWord?relay:
   \   000000   12....       LCALL   ?BDISPATCH
   \   000003   ......       DC24    writeWord

   \                                 In  segment BANK_RELAYS, align 1
   \                     ??writeWordH?relay:
   \   000000   12....       LCALL   ?BDISPATCH
   \   000003   ......       DC24    writeWordH

   \                                 In  segment BANK_RELAYS, align 1
   \                     ??writeBuf?relay:
   \   000000   12....       LCALL   ?BDISPATCH
   \   000003   ......       DC24    writeBuf

   \                                 In  segment BANK_RELAYS, align 1
   \                     ??xferBuf?relay:
   \   000000   12....       LCALL   ?BDISPATCH
   \   000003   ......       DC24    xferBuf

   \                                 In  segment BANK_RELAYS, align 1
   \                     ??writeItem?relay:
   \   000000   12....       LCALL   ?BDISPATCH
   \   000003   ......       DC24    writeItem

   \                                 In  segment BANK_RELAYS, align 1
   \                     ??hotItem?relay:
   \   000000   12....       LCALL   ?BDISPATCH
   \   000003   ......       DC24    hotItem

   \                                 In  segment BANK_RELAYS, align 1
   \                     ??hotItemUpdate?relay:
   \   000000   12....       LCALL   ?BDISPATCH
   \   000003   ......       DC24    hotItemUpdate

   \                                 In  segment BANK_RELAYS, align 1
   \                     ??osal_nv_init?relay:
   \   000000   12....       LCALL   ?BDISPATCH
   \   000003   ......       DC24    osal_nv_init

   \                                 In  segment BANK_RELAYS, align 1
   \                     ??osal_nv_item_init?relay:
   \   000000   12....       LCALL   ?BDISPATCH
   \   000003   ......       DC24    osal_nv_item_init

   \                                 In  segment BANK_RELAYS, align 1
   \                     ??osal_nv_item_len?relay:
   \   000000   12....       LCALL   ?BDISPATCH
   \   000003   ......       DC24    osal_nv_item_len

   \                                 In  segment BANK_RELAYS, align 1
   \                     ??osal_nv_write?relay:
   \   000000   12....       LCALL   ?BDISPATCH
   \   000003   ......       DC24    osal_nv_write

   \                                 In  segment BANK_RELAYS, align 1
   \                     ??osal_nv_read?relay:
   \   000000   12....       LCALL   ?BDISPATCH
   \   000003   ......       DC24    osal_nv_read

   \                                 In  segment BANK_RELAYS, align 1
   \                     ??osal_nv_delete?relay:
   \   000000   12....       LCALL   ?BDISPATCH
   \   000003   ......       DC24    osal_nv_delete
   1497          
   1498          /*********************************************************************
   1499           */

   Maximum stack usage in bytes:

   ISTACK PSTACK XSTACK Function
   ------ ------ ------ --------
       0      0     60  calcChkF
                          0 0 21 -> HalFlashRead
       0      0     59  compactPage
                          0 0 29 -> HalFlashRead
                          0 0 27 -> calcChkF
                          0 0 27 -> erasePage
                          0 0 27 -> hotItemUpdate
                          0 0 27 -> setChk
                          0 0 27 -> setItem
                          0 0 27 -> setPageUse
                          0 0 30 -> writeItem
                          0 0 31 -> xferBuf
       0      0     48  erasePage
                          0 0  9 -> HalFlashErase
       0      0     51  findItem
                          0 0 12 -> initPage
       2      0     18  hotItem
       1      0     49  hotItemUpdate
                          0 0 10 -> hotItem
       1      0     72  initItem
                          0 0 30 -> HalFlashRead
                          0 0 28 -> compactPage
                          0 0 28 -> erasePage
                          0 0 28 -> setPageUse
                          0 0 31 -> writeItem
                          0 0 28 -> writeWordH
       2      0     22  initNV
                          0 0 22 -> HalFlashRead
                          0 0 20 -> compactPage
                          0 0 20 -> erasePage
                          0 0 20 -> initPage
                          0 0 20 -> setPageUse
       0      0     48  initPage
                          0 0 28 -> HalFlashRead
                          0 0 26 -> calcChkF
                          0 0 26 -> findItem
                          0 0 26 -> setItem
       0      0     14  osal_nv_delete
                          0 0 14 -> findItem
                          0 0 14 -> osal_nv_item_len
                          0 0 14 -> setItem
       2      0      0  osal_nv_init
                          2 0  0 -> initNV
       0      0     18  osal_nv_item_init
                          0 0 14 -> HalAdcCheckVdd
                          0 0 14 -> findItem
                          0 0 14 -> hotItemUpdate
                          0 0 16 -> initItem
       0      0     34  osal_nv_item_len
                          0 0 20 -> HalFlashRead
                          0 0 18 -> findItem
                          0 0 18 -> hotItem
       0      0     22  osal_nv_read
                          0 0 18 -> HalFlashRead
                          0 0 16 -> findItem
                          0 0 16 -> hotItem
       0      0     47  osal_nv_write
                          0 0 39 -> HalAdcCheckVdd
                          0 0 41 -> HalFlashRead
                          0 0 39 -> calcChkF
                          0 0 39 -> erasePage
                          0 0 39 -> findItem
                          0 0 39 -> hotItemUpdate
                          0 0 41 -> initItem
                          0 0 39 -> setChk
                          0 0 39 -> setItem
                          0 0 39 -> setPageUse
                          0 0 41 -> writeBuf
                          0 0 43 -> xferBuf
       0      0     55  setChk
                          0 0 16 -> HalFlashRead
                          0 0 14 -> writeWordH
       0      0     61  setItem
                          0 0 22 -> HalFlashRead
                          0 0 20 -> writeWord
       0      0     56  setPageUse
                          0 0 17 -> writeWord
       1      0     65  writeBuf
                          0 0 24 -> HalFlashRead
                          0 0 24 -> HalFlashWrite
                          0 0 22 -> writeWord
       0      0     59  writeItem
                          0 0 28 -> HalFlashRead
                          0 0 26 -> calcChkF
                          0 0 26 -> hotItemUpdate
                          0 0 26 -> setChk
                          0 0 28 -> writeBuf
                          0 0 26 -> writeWord
       0      0     40  writeWord
                          0 0 14 -> HalFlashWrite
       1      0     41  writeWordH
                          0 0 13 -> writeWord
       0      0     67  xferBuf
                          0 0 24 -> HalFlashRead
                          0 0 22 -> writeWord


   Segment part sizes:

   Bytes  Function/Label
   -----  --------------
       5  ??Subroutine40_0
       5  ??Subroutine41_0
       6  ??Subroutine42_0
       6  ??Subroutine43_0
       8  ??Subroutine44_0
      13  ??Subroutine45_0
       3  ??Subroutine46_0
       5  ??Subroutine47_0
      17  ??Subroutine48_0
       6  ??calcChkF?relay
       6  ??compactPage?relay
       6  ??erasePage?relay
       6  ??findItem?relay
       6  ??hotItem?relay
       6  ??hotItemUpdate?relay
       6  ??initItem?relay
       6  ??initNV?relay
       6  ??initPage?relay
       6  ??osal_nv_delete?relay
       6  ??osal_nv_init?relay
       6  ??osal_nv_item_init?relay
       6  ??osal_nv_item_len?relay
       6  ??osal_nv_read?relay
       6  ??osal_nv_write?relay
       6  ??setChk?relay
       6  ??setItem?relay
       6  ??setPageUse?relay
       6  ??writeBuf?relay
       6  ??writeItem?relay
       6  ??writeWord?relay
       6  ??writeWordH?relay
       6  ??xferBuf?relay
       2  ?Subroutine0
       3  ?Subroutine1
      12  ?Subroutine10
       4  ?Subroutine11
      11  ?Subroutine12
      15  ?Subroutine13
      13  ?Subroutine14
       9  ?Subroutine15
       4  ?Subroutine16
       6  ?Subroutine17
      10  ?Subroutine18
       9  ?Subroutine19
       2  ?Subroutine2
      12  ?Subroutine20
       6  ?Subroutine21
       8  ?Subroutine22
      10  ?Subroutine23
      14  ?Subroutine24
       6  ?Subroutine25
       4  ?Subroutine26
       7  ?Subroutine27
      12  ?Subroutine28
      17  ?Subroutine29
       7  ?Subroutine3
      13  ?Subroutine30
      13  ?Subroutine31
      19  ?Subroutine32
      12  ?Subroutine33
      13  ?Subroutine34
       6  ?Subroutine35
      10  ?Subroutine36
       2  ?Subroutine37
      11  ?Subroutine38
      17  ?Subroutine39
       5  ?Subroutine4
       5  ?Subroutine5
       5  ?Subroutine6
       4  ?Subroutine7
       7  ?Subroutine8
       6  ?Subroutine9
   12288  _nvBuf
     148  calcChkF
     605  compactPage
      29  erasePage
      64  findItem
       1  findPg
       6  hotIds
      39  hotItem
      39  hotItemUpdate
       6  hotOff
       3  hotPg
     382  initItem
     298  initNV
     447  initPage
      93  osal_nv_delete
       9  osal_nv_init
      92  osal_nv_item_init
     115  osal_nv_item_len
     135  osal_nv_read
     744  osal_nv_write
      12  pgLost
      12  pgOff
       1  pgRes
      95  setChk
     121  setItem
      52  setPageUse
     361  writeBuf
     514  writeItem
      56  writeWord
      64  writeWordH
     381  xferBuf

 
  5 302 bytes in segment BANKED_CODE
    138 bytes in segment BANK_RELAYS
      6 bytes in segment XDATA_ROM_C
     35 bytes in segment XDATA_Z
 12 288 bytes in segment ZIGNV_ADDRESS_SPACE
 
  5 440 bytes of CODE  memory
      6 bytes of CONST memory
 12 323 bytes of XDATA memory

Errors: none
Warnings: none
